
build/gd32vf103.elf:     file format elf32-littleriscv
build/gd32vf103.elf
architecture: riscv:rv32, flags 0x00000112:
EXEC_P, HAS_SYMS, D_PAGED
start address 0x0800015c

Program Header:
    LOAD off    0x00001000 vaddr 0x08000000 paddr 0x08000000 align 2**12
         filesz 0x0000cda8 memsz 0x0000cda8 flags rwx
    LOAD off    0x0000e000 vaddr 0x20000000 paddr 0x0800cda8 align 2**12
         filesz 0x000009d4 memsz 0x000009d4 flags rw-
    LOAD off    0x0000e9d4 vaddr 0x200009d4 paddr 0x200009d4 align 2**12
         filesz 0x00000000 memsz 0x00000840 flags rw-
    LOAD off    0x0000f000 vaddr 0x20007000 paddr 0x20001214 align 2**12
         filesz 0x00000000 memsz 0x00001000 flags rw-

Sections:
Idx Name          Size      VMA       LMA       File off  Algn
  0 .init         00000254  08000000  08000000  00001000  2**2
                  CONTENTS, ALLOC, LOAD, READONLY, CODE
  1 .ilalign      00000000  08000254  08000254  0000e9d4  2**0
                  CONTENTS
  2 .text         0000cb22  08000280  08000280  00001280  2**6
                  CONTENTS, ALLOC, LOAD, READONLY, CODE
  3 .init_array   00000004  0800cda4  0800cda4  0000dda4  2**2
                  CONTENTS, ALLOC, LOAD, DATA
  4 .lalign       00000000  0800cda8  0800cda8  0000e9d4  2**0
                  CONTENTS
  5 .dalign       00000000  20000000  20000000  0000e9d4  2**0
                  CONTENTS
  6 .data         000009d4  20000000  0800cda8  0000e000  2**3
                  CONTENTS, ALLOC, LOAD, DATA
  7 .bss          00000840  200009d4  200009d4  0000e9d4  2**2
                  ALLOC
  8 .stack        00001000  20007000  20001214  0000f000  2**0
                  ALLOC
  9 .debug_info   00015a57  00000000  00000000  0000e9d4  2**0
                  CONTENTS, READONLY, DEBUGGING
 10 .debug_abbrev 000047e4  00000000  00000000  0002442b  2**0
                  CONTENTS, READONLY, DEBUGGING
 11 .debug_loc    00014cbd  00000000  00000000  00028c0f  2**0
                  CONTENTS, READONLY, DEBUGGING
 12 .debug_aranges 00000dd8  00000000  00000000  0003d8d0  2**3
                  CONTENTS, READONLY, DEBUGGING
 13 .debug_ranges 000024d0  00000000  00000000  0003e6a8  2**3
                  CONTENTS, READONLY, DEBUGGING
 14 .debug_line   00016eda  00000000  00000000  00040b78  2**0
                  CONTENTS, READONLY, DEBUGGING
 15 .debug_str    000049fc  00000000  00000000  00057a52  2**0
                  CONTENTS, READONLY, DEBUGGING
 16 .comment      00000028  00000000  00000000  0005c44e  2**0
                  CONTENTS, READONLY
 17 .riscv.attributes 0000002b  00000000  00000000  0005c476  2**0
                  CONTENTS, READONLY
 18 .debug_frame  00001b44  00000000  00000000  0005c4a4  2**2
                  CONTENTS, READONLY, DEBUGGING
SYMBOL TABLE:
08000000 l    d  .init	00000000 .init
08000254 l    d  .ilalign	00000000 .ilalign
08000280 l    d  .text	00000000 .text
0800cda4 l    d  .init_array	00000000 .init_array
0800cda8 l    d  .lalign	00000000 .lalign
20000000 l    d  .dalign	00000000 .dalign
20000000 l    d  .data	00000000 .data
200009d4 l    d  .bss	00000000 .bss
20007000 l    d  .stack	00000000 .stack
00000000 l    d  .debug_info	00000000 .debug_info
00000000 l    d  .debug_abbrev	00000000 .debug_abbrev
00000000 l    d  .debug_loc	00000000 .debug_loc
00000000 l    d  .debug_aranges	00000000 .debug_aranges
00000000 l    d  .debug_ranges	00000000 .debug_ranges
00000000 l    d  .debug_line	00000000 .debug_line
00000000 l    d  .debug_str	00000000 .debug_str
00000000 l    d  .comment	00000000 .comment
00000000 l    d  .riscv.attributes	00000000 .riscv.attributes
00000000 l    d  .debug_frame	00000000 .debug_frame
00000000 l    df *ABS*	00000000 build/start.o
08000000 l       .init	00000000 vector_base
08000182 l       .init	00000000 _start0800
00000000 l    df *ABS*	00000000 _exit.c
00000000 l    df *ABS*	00000000 write_hex.c
00000000 l    df *ABS*	00000000 handlers.c
00000000 l    df *ABS*	00000000 main.c
00000000 l    df *ABS*	00000000 systick.c
00000000 l    df *ABS*	00000000 divdf3.c
00000000 l    df *ABS*	00000000 muldf3.c
00000000 l    df *ABS*	00000000 libgcc2.c
00000000 l    df *ABS*	00000000 vfprintf.c
080005cc l     O .text	00000010 blanks.4489
080005dc l     O .text	00000010 zeroes.4490
00000000 l    df *ABS*	00000000 ldtoa.c
08005aa4 l     F .text	00000048 eshdn1
08005aec l     F .text	0000004e eshup1
08005b3a l     F .text	00000074 m16m
08005bae l     F .text	00000018 eisnan.part.0
08005bc6 l     F .text	00000034 eneg
08005bfa l     F .text	0000002e eisneg
08005c28 l     F .text	000000ac emovi
08005cd4 l     F .text	000000dc ecmp
08005db0 l     F .text	00000016 eisinf.part.1
08005dc6 l     F .text	0000013e eshift.part.3
08005f04 l     F .text	00000118 enormlz
0800601c l     F .text	00000308 emdnorm
08006324 l     F .text	00000108 eiremain
0800642c l     F .text	00000082 emovo.isra.6
080064ae l     F .text	00000354 emul
08006802 l     F .text	000003f6 ediv
08006bf8 l     F .text	000000fa e113toe.isra.8
0800061c l     O .text	00000014 ezero
08000630 l     O .text	00000014 eone
08000644 l     O .text	00000104 etens
08000748 l     O .text	00000104 emtens
0800084c l     O .text	00000022 bmask
00000000 l    df *ABS*	00000000 locale.c
00000000 l    df *ABS*	00000000 mprec.c
080008a8 l     O .text	0000000c p05.3298
00000000 l    df *ABS*	00000000 vfprintf.c
08000b3c l     O .text	00000010 blanks.4466
08000b4c l     O .text	00000010 zeroes.4467
00000000 l    df *ABS*	00000000 ctype_.c
00000000 l    df *ABS*	00000000 multf3.c
00000000 l    df *ABS*	00000000 __call_atexit.c
08000d66 l     F .text	0000001c register_fini
00000000 l    df *ABS*	00000000 gd32vf103_eclic.c
00000000 l    df *ABS*	00000000 gd32vf103_dma.c
00000000 l    df *ABS*	00000000 gd32vf103_timer.c
00000000 l    df *ABS*	00000000 gd32vf103_usart.c
00000000 l    df *ABS*	00000000 gd32vf103_adc.c
00000000 l    df *ABS*	00000000 gd32vf103_rcu.c
00000000 l    df *ABS*	00000000 gd32vf103_gpio.c
00000000 l    df *ABS*	00000000 system_gd32vf103.c
00000000 l    df *ABS*	00000000 sbrk.c
200009a4 l     O .data	00000004 curbrk.1524
00000000 l    df *ABS*	00000000 n200_func.c
00000000 l    df *ABS*	00000000 init.c
00000000 l    df *ABS*	00000000 liobt.c
00000000 l    df *ABS*	00000000 build/entry.o
08002734 l       .text	00000000 service_loop
00000000 l    df *ABS*	00000000 ledf2.c
00000000 l    df *ABS*	00000000 floatunsidf.c
00000000 l    df *ABS*	00000000 floatundidf.c
00000000 l    df *ABS*	00000000 libgcc2.c
00000000 l    df *ABS*	00000000 libgcc2.c
00000000 l    df *ABS*	00000000 libgcc2.c
00000000 l    df *ABS*	00000000 atexit.c
00000000 l    df *ABS*	00000000 exit.c
00000000 l    df *ABS*	00000000 fini.c
00000000 l    df *ABS*	00000000 init.c
00000000 l    df *ABS*	00000000 sprintf.c
00000000 l    df *ABS*	00000000 strlen.c
00000000 l    df *ABS*	00000000 strncpy.c
00000000 l    df *ABS*	00000000 syswrite.c
00000000 l    df *ABS*	00000000 writer.c
00000000 l    df *ABS*	00000000 __atexit.c
00000000 l    df *ABS*	00000000 mallocr.c
00000000 l    df *ABS*	00000000 localeconv.c
00000000 l    df *ABS*	00000000 mallocr.c
00000000 l    df *ABS*	00000000 mbtowc_r.c
00000000 l    df *ABS*	00000000 memchr.c
00000000 l    df *ABS*	00000000 mlock.c
00000000 l    df *ABS*	00000000 sbrkr.c
00000000 l    df *ABS*	00000000 s_frexp.c
00000000 l    df *ABS*	00000000 strcpy.c
00000000 l    df *ABS*	00000000 wctomb_r.c
00000000 l    df *ABS*	00000000 mallocr.c
00000000 l    df *ABS*	00000000 memcpy.c
00000000 l    df *ABS*	00000000 memmove-stub.c
00000000 l    df *ABS*	00000000 mallocr.c
00000000 l    df *ABS*	00000000 sys_write.c
00000000 l    df *ABS*	00000000 errno.c
00000000 l    df *ABS*	00000000 libgcc2.c
00000000 l    df *ABS*	00000000 libgcc2.c
00000000 l    df *ABS*	00000000 eqtf2.c
00000000 l    df *ABS*	00000000 getf2.c
00000000 l    df *ABS*	00000000 letf2.c
00000000 l    df *ABS*	00000000 subtf3.c
00000000 l    df *ABS*	00000000 fixtfsi.c
00000000 l    df *ABS*	00000000 floatsitf.c
00000000 l    df *ABS*	00000000 extenddftf2.c
00000000 l    df *ABS*	00000000 trunctfdf2.c
00000000 l    df *ABS*	00000000 impure.c
20000000 l     O .data	00000428 impure_data
00000000 l    df *ABS*	00000000 
0800cda8 l       .init_array	00000000 __fini_array_end
0800cda8 l       .init_array	00000000 __fini_array_start
0800cda8 l       .init_array	00000000 __init_array_end
0800cda2 l       .init_array	00000000 __preinit_array_end
0800cda4 l       .init_array	00000000 __init_array_start
0800cda2 l       .init_array	00000000 __preinit_array_start
08008dce g     F .text	00000068 _mprec_log10
08008e7c g     F .text	00000054 __any_on
08000980 g     O .text	00000028 __mprec_tinytens
08001696 g     F .text	0000000a usart_transmit_config
08008f8e g     F .text	0000007a strcpy
08003392 g     F .text	0000002a .hidden __ashldi3
0800ac76 g     F .text	000000f4 .hidden __getf2
08001904 g     F .text	00000034 adc_external_trigger_source_config
0800abd0 g     F .text	000000a6 .hidden __eqtf2
200011a0 g       .data	00000000 __global_pointer$
080083d6 g     F .text	00000002 __malloc_unlock
0800c91c g     F .text	000000f8 .hidden __floatsitf
08009f66 g     F .text	000000d0 memmove
08001848 g     F .text	000000bc adc_regular_channel_config
080083d8 g     F .text	0000006e _Balloc
08000d88 g     F .text	00000008 eclic_priority_group_set
08001668 g     F .text	00000012 usart_word_length_set
0800a514 g     F .text	0000000c __errno
08000ef6 g     F .text	00000028 dma_channel_enable
08007c40 g     F .text	00000006 __localeconv_l
20001210 g     O .bss	00000004 errno
080019c8 g     F .text	0000013c rcu_clock_freq_get
00001000 g       *ABS*	00000000 __stack_size
080011b8 g     F .text	0000000a timer_auto_reload_shadow_enable
080011dc g     F .text	0000025c timer_channel_output_config
080017c2 g     F .text	00000010 adc_enable
08000fa2 g     F .text	00000026 dma_interrupt_enable
08009e84 g     F .text	000000e2 memcpy
080014bc g     F .text	0000005e timer_channel_output_shadow_config
0800168c g     F .text	0000000a usart_enable
08003718 g     F .text	00001eac _svfprintf_r
08002cbc g     F .text	000000a4 .hidden __ltdf2
080011ae g     F .text	0000000a timer_enable
200009a0 g     O .data	00000004 SystemCoreClock
08008d60 g     F .text	0000006e __ratio
0800ad6a g     F .text	000000f4 .hidden __letf2
080019ac g     F .text	0000001c rcu_periph_reset_disable
080008b8 g     O .text	000000c8 __mprec_tens
08001f30  w    F .text	0000003a handle_trap
200009dc g     O .bss	00000004 __malloc_top_pad
08002704  w      .text	00000000 irq_entry
08000f9a g     F .text	00000008 dma_interrupt_flag_clear
08007c46 g     F .text	0000000a _localeconv_r
0800867e g     F .text	00000020 __i2b
08002514 g     F .text	00000070 DMA0_Channel0_IRQHandler
08008ed0 g     F .text	0000003e _sbrk_r
200009d8 g     O .bss	00000004 __malloc_max_sbrked_mem
08001658 g     F .text	00000010 usart_parity_config
20007000 g       .stack	00000000 _heap_end
08008ba6 g     F .text	000000ce __b2d
080016da g     F .text	0000005a adc_deinit
08001f98 g     F .text	00000172 lio_init_bt
0800a87e g     F .text	00000352 .hidden __umoddi3
200009d0 g     O .data	00000004 _global_impure_ptr
0800a036 g     F .text	000004a8 _realloc_r
0800346e g     F .text	0000006a __libc_init_array
0800a520 g     F .text	0000035e .hidden __udivdi3
080009a8 g     O .text	00000028 __mprec_bigtens
08008514 g     F .text	000000b4 __s2b
080031ac g     F .text	00000056 .hidden __floatunsidf
08001ddc g     F .text	00000030 _sbrk
080089dc g     F .text	0000003a __mcmp
08001734 g     F .text	00000020 adc_mode_config
080016c2 g     F .text	0000000c usart_dma_receive_config
08001f6a g     F .text	0000002c _init
08003434 g     F .text	0000003a __libc_fini_array
08001f0e  w    F .text	00000022 handle_nmi
08002288 g     F .text	00000038 rcu_config
080085c8 g     F .text	00000048 __hi0bits
080010d6 g     F .text	00000018 timer_struct_para_init
080010ee g     F .text	000000c0 timer_init
080055c4 g     F .text	00000018 write
08003368 g     F .text	0000002a .hidden __lshrdi3
08002cbc g     F .text	000000a4 .hidden __ledf2
08001438 g     F .text	0000005e timer_channel_output_mode_config
08002584 g     F .text	000000ce delay_1ms
0800c830 g     F .text	000000ec .hidden __fixtfsi
080016a0 g     F .text	0000000a usart_receive_config
08001e6a g     F .text	00000048 eclic_set_irq_lvl_abs
08001e40 g     F .text	00000012 eclic_enable_interrupt
08008818 g     F .text	000000da __pow5mult
08001d42 g     F .text	0000009a write_hex
080033bc g     F .text	0000003c .hidden __clzsi2
0800832c g     F .text	000000a8 memchr
08003580 g     F .text	00000046 _sprintf_r
08005848 g     F .text	0000025c _free_r
08005692 g     F .text	000000c2 __call_exitprocs
20008000 g       .stack	00000000 _sp
0800167a g     F .text	00000012 usart_stop_bit_set
200009ac g     O .data	00000004 __malloc_sbrk_base
0800015c g     F .init	00000000 _start
0800197c g     F .text	00000018 rcu_periph_clock_enable
08003202 g     F .text	00000166 .hidden __floatundidf
080088f2 g     F .text	000000ea __lshift
0800ad6a g     F .text	000000f4 .hidden __lttf2
0800abd0 g     F .text	000000a6 .hidden __netf2
08009008 g     F .text	00000140 __ssprint_r
0800024c g       .init	00000000 enable_mcycle_minstret
08005620 g     F .text	00000072 __register_exitproc
08007bfa g     F .text	00000046 _ldcheck
08000fc8 g     F .text	0000010e timer_deinit
0800869e g     F .text	0000017a __multiply
08003680 g     F .text	00000098 strncpy
200011e0 g     O .bss	00000028 __malloc_current_mallinfo
08008c74 g     F .text	000000ec __d2b
08001e0c g     F .text	00000010 get_timer_value
0800ca14 g     F .text	0000015e .hidden __extenddftf2
08000f2c g     F .text	0000006e dma_interrupt_flag_get
08002776 g     F .text	00000546 .hidden __divdf3
080015e4 g     F .text	00000074 usart_baudrate_set
080016ce g     F .text	0000000c usart_dma_transmit_config
08008e36 g     F .text	00000046 __copybits
20000594 g     O .data	00000408 __malloc_av_
080022c0 g     F .text	000000ac timer_config
08002d60 g     F .text	0000044c .hidden __muldf3
08000ea6 g     F .text	00000028 dma_circulation_enable
080017a6 g     F .text	0000001c adc_data_alignment_config
080024ec g     F .text	00000028 config_clic_irqs
200009e0 g     O .bss	00000400 rx_dma_buffer
080083d4 g     F .text	00000002 __malloc_lock
08009dfa g     F .text	0000008a _calloc_r
080016b6 g     F .text	0000000c usart_hardware_flow_cts_config
08001eb2 g     F .text	0000004a eclic_set_irq_priority
200009d4 g       .bss	00000000 __bss_start
20001208 g     O .bss	00000004 sample_buffer_size
080034d8 g     F .text	000000a8 memset
08000c9c g     F .text	000000ca main
200009d4 g     O .bss	00000004 __malloc_max_total_mem
08002680  w      .text	00000000 trap_entry
08000246 g       .init	00000000 disable_mcycle_minstret
08000e0e g     F .text	00000098 dma_init
08007c5a g     F .text	00000684 _malloc_r
08009dda g     F .text	00000020 __ascii_wctomb
08001efc g     F .text	00000012 eclic_mode_enable
080082de g     F .text	0000000e _mbtowc_r
08005754 g     F .text	000000f4 _malloc_trim_r
08001e52 g     F .text	00000018 eclic_set_nlbits
08001bac g     F .text	0000011e SystemInit
0800ae5e g     F .text	00000b5c .hidden __multf3
08001f96 g     F .text	00000002 _fini
080035c6 g     F .text	00000054 sprintf
08000360 g     O .text	00000100 .hidden __clz_tab
0800236c g     F .text	000000ce adc_config
0800151a g     F .text	000000ca usart_deinit
080033f8 g     F .text	00000010 atexit
080055dc g     F .text	00000044 _write_r
0800210a g     F .text	000000a8 lio_send_bt
200009a8 g     O .data	00000004 _impure_ptr
08001994 g     F .text	00000018 rcu_periph_reset_enable
0800ac76 g     F .text	000000f4 .hidden __gttf2
08009148 g     F .text	00000c84 _svfiprintf_r
080082ec g     F .text	00000040 __ascii_mbtowc
20000000 g       .dalign	00000000 _data
0800b9ba g     F .text	00000e76 .hidden __subtf3
08008b60 g     F .text	00000046 __ulp
2000120c g     O .bss	00000004 pSample_buffer
080021b2 g     F .text	000000d6 write_handle_raw
08000d90 g     F .text	0000003a eclic_irq_enable
08007c50 g     F .text	0000000a localeconv
080016aa g     F .text	0000000c usart_hardware_flow_rts_config
20000de0 g     O .bss	00000400 tx_dma_buffer
0800a4de g     F .text	00000036 _write
200009d4 g       .bss	00000000 _edata
20001218 g       .bss	00000000 _end
08000d82 g     F .text	00000006 eclic_global_interrupt_enable
0800cda8 g       .lalign	00000000 _data_lma
200009b0 g     O .data	00000004 __malloc_trim_threshold
08001938 g     F .text	00000044 adc_external_trigger_config
080017f4 g     F .text	0000000a adc_dma_mode_enable
08003408 g     F .text	0000002c exit
080011c2 g     F .text	0000001a timer_channel_output_struct_para_init
08008a16 g     F .text	0000014a __mdiff
08001e1c g     F .text	00000024 eclic_init
08001496 g     F .text	00000026 timer_channel_output_pulse_value_config
08006cf2 g     F .text	00000f08 _ldtoa_r
080017fe g     F .text	0000004a adc_channel_length_config
08000b5c g     O .text	00000101 _ctype_
08001cca g     F .text	00000078 _exit
08000dca g     F .text	00000044 dma_deinit
08000ece g     F .text	00000028 dma_circulation_disable
0800243a g     F .text	000000b2 dma_config
0800361a g     F .text	00000066 strlen
08001754 g     F .text	00000052 adc_special_function_config
08001b04 g     F .text	000000a8 gpio_init
080017d2 g     F .text	00000022 adc_calibration_enable
08009dcc g     F .text	0000000e _wctomb_r
08000f1e g     F .text	0000000e dma_flag_clear
08008610 g     F .text	0000006e __lo0bits
08008f0e g     F .text	00000080 frexp
20000428 g     O .data	0000016c __global_locale
0800cb72 g     F .text	00000230 .hidden __trunctfdf2
08008458 g     F .text	000000bc __multadd
08008446 g     F .text	00000012 _Bfree



Disassembly of section .init:

08000000 <vector_base>:
    .weak  CAN1_RX1_IRQHandler
    .weak  CAN1_EWMC_IRQHandler
    .weak  USBFS_IRQHandler

vector_base:
    j _start
 8000000:	aab1                	j	800015c <_start>
 8000002:	0001                	nop
	...
 8000078:	2514                	fld	fa3,8(a0)
 800007a:	0800                	addi	s0,sp,16
	...

0800015c <_start>:
	.globl _start
	.type _start,@function

_start:

	csrc CSR_MSTATUS, MSTATUS_MIE
 800015c:	30047073          	csrci	mstatus,8
	/* Jump to logical address first to ensure correct operation of RAM region  */
    la		a0,	_start
 8000160:	00000517          	auipc	a0,0x0
 8000164:	ffc50513          	addi	a0,a0,-4 # 800015c <_start>
    li		a1,	1
 8000168:	4585                	li	a1,1
	slli	a1,	a1, 29
 800016a:	05f6                	slli	a1,a1,0x1d
    bleu	a1, a0, _start0800
 800016c:	00b57b63          	bgeu	a0,a1,8000182 <_start0800>
    srli	a1,	a1, 2
 8000170:	8189                	srli	a1,a1,0x2
    bleu	a1, a0, _start0800
 8000172:	00b57863          	bgeu	a0,a1,8000182 <_start0800>
    la		a0,	_start0800
 8000176:	00000517          	auipc	a0,0x0
 800017a:	00c50513          	addi	a0,a0,12 # 8000182 <_start0800>
    add		a0, a0, a1
 800017e:	952e                	add	a0,a0,a1
	jr      a0
 8000180:	8502                	jr	a0

08000182 <_start0800>:

_start0800:

    /* Set the the NMI base to share with mtvec by setting CSR_MMISC_CTL */
    li t0, 0x200
 8000182:	20000293          	li	t0,512
    csrs CSR_MMISC_CTL, t0
 8000186:	7d02a073          	csrs	0x7d0,t0

	/* Intial the mtvt*/
    la t0, vector_base
 800018a:	00000297          	auipc	t0,0x0
 800018e:	e7628293          	addi	t0,t0,-394 # 8000000 <vector_base>
    csrw CSR_MTVT, t0
 8000192:	30729073          	csrw	mtvt,t0

	/* Intial the mtvt2 and enable it*/
    la t0, irq_entry
 8000196:	00002297          	auipc	t0,0x2
 800019a:	56e28293          	addi	t0,t0,1390 # 8002704 <irq_entry>
    csrw CSR_MTVT2, t0
 800019e:	7ec29073          	csrw	0x7ec,t0
    csrs CSR_MTVT2, 0x1
 80001a2:	7ec0e073          	csrsi	0x7ec,1

    /* Intial the CSR MTVEC for the Trap ane NMI base addr*/
    la t0, trap_entry
 80001a6:	00002297          	auipc	t0,0x2
 80001aa:	4da28293          	addi	t0,t0,1242 # 8002680 <trap_entry>
    csrw CSR_MTVEC, t0
 80001ae:	30529073          	csrw	mtvec,t0
	csrw fcsr, x0
#endif

.option push
.option norelax
	la gp, __global_pointer$
 80001b2:	18001197          	auipc	gp,0x18001
 80001b6:	fee18193          	addi	gp,gp,-18 # 200011a0 <__global_pointer$>
.option pop
	la sp, _sp
 80001ba:	18008117          	auipc	sp,0x18008
 80001be:	e4610113          	addi	sp,sp,-442 # 20008000 <_sp>

	/* Load data section */
	la a0, _data_lma
 80001c2:	0000d517          	auipc	a0,0xd
 80001c6:	be650513          	addi	a0,a0,-1050 # 800cda8 <__fini_array_end>
	la a1, _data
 80001ca:	18000597          	auipc	a1,0x18000
 80001ce:	e3658593          	addi	a1,a1,-458 # 20000000 <_data>
	la a2, _edata
 80001d2:	18001617          	auipc	a2,0x18001
 80001d6:	80260613          	addi	a2,a2,-2046 # 200009d4 <__malloc_max_total_mem>
	bgeu a1, a2, 2f
 80001da:	00c5fa63          	bgeu	a1,a2,80001ee <_start0800+0x6c>
1:
	lw t0, (a0)
 80001de:	00052283          	lw	t0,0(a0)
	sw t0, (a1)
 80001e2:	0055a023          	sw	t0,0(a1)
	addi a0, a0, 4
 80001e6:	0511                	addi	a0,a0,4
	addi a1, a1, 4
 80001e8:	0591                	addi	a1,a1,4
	bltu a1, a2, 1b
 80001ea:	fec5eae3          	bltu	a1,a2,80001de <_start0800+0x5c>
2:
	/* Clear bss section */
	la a0, __bss_start
 80001ee:	18000517          	auipc	a0,0x18000
 80001f2:	7e650513          	addi	a0,a0,2022 # 200009d4 <__malloc_max_total_mem>
	la a1, _end
 80001f6:	18001597          	auipc	a1,0x18001
 80001fa:	02258593          	addi	a1,a1,34 # 20001218 <_end>
	bgeu a0, a1, 2f
 80001fe:	00b57763          	bgeu	a0,a1,800020c <_start0800+0x8a>
1:
	sw zero, (a0)
 8000202:	00052023          	sw	zero,0(a0)
	addi a0, a0, 4
 8000206:	0511                	addi	a0,a0,4
	bltu a0, a1, 1b
 8000208:	feb56de3          	bltu	a0,a1,8000202 <_start0800+0x80>
2:
	/*enable mcycle_minstret*/
    csrci CSR_MCOUNTINHIBIT, 0x5
 800020c:	3202f073          	csrci	mucounteren,5
	/* Call global constructors */
	la a0, __libc_fini_array
 8000210:	00003517          	auipc	a0,0x3
 8000214:	22450513          	addi	a0,a0,548 # 8003434 <__libc_fini_array>
	call atexit
 8000218:	00003097          	auipc	ra,0x3
 800021c:	1e0080e7          	jalr	480(ra) # 80033f8 <atexit>
	call __libc_init_array
 8000220:	00003097          	auipc	ra,0x3
 8000224:	24e080e7          	jalr	590(ra) # 800346e <__libc_init_array>


	/* argc = argv = 0 */
	call _init
 8000228:	00002097          	auipc	ra,0x2
 800022c:	d42080e7          	jalr	-702(ra) # 8001f6a <_init>
	li a0, 0
 8000230:	4501                	li	a0,0
	li a1, 0
 8000232:	4581                	li	a1,0
	call main
 8000234:	00001097          	auipc	ra,0x1
 8000238:	a68080e7          	jalr	-1432(ra) # 8000c9c <main>
	tail exit
 800023c:	00003317          	auipc	t1,0x3
 8000240:	1cc30067          	jr	460(t1) # 8003408 <exit>

1:
	j 1b
 8000244:	a001                	j	8000244 <_start0800+0xc2>

08000246 <disable_mcycle_minstret>:
	
	.global disable_mcycle_minstret
disable_mcycle_minstret:
        csrsi CSR_MCOUNTINHIBIT, 0x5
 8000246:	3202e073          	csrsi	mucounteren,5
	ret
 800024a:	8082                	ret

0800024c <enable_mcycle_minstret>:

	.global enable_mcycle_minstret
enable_mcycle_minstret:
        csrci CSR_MCOUNTINHIBIT, 0x5
 800024c:	3202f073          	csrci	mucounteren,5
	ret
 8000250:	8082                	ret
	...

Disassembly of section .text:

08000280 <__clz_tab-0xe0>:
 8000280:	500a                	0x500a
 8000282:	6f72                	flw	ft10,28(sp)
 8000284:	6d617267          	0x6d617267
 8000288:	6820                	flw	fs0,80(s0)
 800028a:	7361                	lui	t1,0xffff8
 800028c:	6520                	flw	fs0,72(a0)
 800028e:	6978                	flw	fa4,84(a0)
 8000290:	6574                	flw	fa3,76(a0)
 8000292:	2064                	fld	fs1,192(s0)
 8000294:	68746977          	0x68746977
 8000298:	6320                	flw	fs0,64(a4)
 800029a:	3a65646f          	jal	s0,8056640 <__fini_array_end+0x49898>
 800029e:	0000                	unimp
 80002a0:	7830                	flw	fa2,112(s0)
 80002a2:	0000                	unimp
 80002a4:	6d6e                	flw	fs10,216(sp)
 80002a6:	0a69                	addi	s4,s4,26
 80002a8:	0000                	unimp
 80002aa:	0000                	unimp
 80002ac:	7274                	flw	fa3,100(a2)
 80002ae:	7061                	c.lui	zero,0xffff8
 80002b0:	000a                	c.slli	zero,0x2
 80002b2:	0000                	unimp
 80002b4:	2c574853          	0x2c574853
 80002b8:	0000                	unimp
 80002ba:	0000                	unimp
 80002bc:	7325                	lui	t1,0xfffe9
 80002be:	2e25                	jal	80005f6 <zeroes.4490+0x1a>
 80002c0:	7834                	flw	fa3,112(s0)
 80002c2:	252c                	fld	fa1,72(a0)
 80002c4:	000a0d73          	0xa0d73
 80002c8:	3130                	fld	fa2,96(a0)
 80002ca:	3332                	fld	ft6,296(sp)
 80002cc:	3534                	fld	fa3,104(a0)
 80002ce:	3736                	fld	fa4,360(sp)
 80002d0:	3938                	fld	fa4,112(a0)
 80002d2:	4241                	li	tp,16
 80002d4:	46454443          	fmadd.q	fs0,fa0,ft4,fs0,rmm
	...
 80002e4:	4000                	lw	s0,0(s0)
 80002e6:	29bc40af          	0x29bc40af
 80002ea:	0000                	unimp
 80002ec:	290c                	fld	fa1,16(a0)
 80002ee:	0000                	unimp
 80002f0:	2912                	fld	fs2,256(sp)
 80002f2:	0000                	unimp
 80002f4:	290c                	fld	fa1,16(a0)
 80002f6:	0000                	unimp
 80002f8:	29ae                	fld	fs3,200(sp)
 80002fa:	0000                	unimp
 80002fc:	290c                	fld	fa1,16(a0)
 80002fe:	0000                	unimp
 8000300:	2912                	fld	fs2,256(sp)
 8000302:	0000                	unimp
 8000304:	29bc                	fld	fa5,80(a1)
 8000306:	0000                	unimp
 8000308:	29bc                	fld	fa5,80(a1)
 800030a:	0000                	unimp
 800030c:	29ae                	fld	fs3,200(sp)
 800030e:	0000                	unimp
 8000310:	2912                	fld	fs2,256(sp)
 8000312:	0000                	unimp
 8000314:	28f2                	fld	fa7,280(sp)
 8000316:	0000                	unimp
 8000318:	28f2                	fld	fa7,280(sp)
 800031a:	0000                	unimp
 800031c:	28f2                	fld	fa7,280(sp)
 800031e:	0000                	unimp
 8000320:	2916                	fld	fs2,320(sp)
 8000322:	0000                	unimp
 8000324:	2dc2                	fld	fs11,16(sp)
 8000326:	0000                	unimp
 8000328:	2dc2                	fld	fs11,16(sp)
 800032a:	0000                	unimp
 800032c:	2dda                	fld	fs11,400(sp)
 800032e:	0000                	unimp
 8000330:	2dbc                	fld	fa5,88(a1)
 8000332:	0000                	unimp
 8000334:	2dbc                	fld	fa5,88(a1)
 8000336:	0000                	unimp
 8000338:	2e68                	fld	fa0,216(a2)
 800033a:	0000                	unimp
 800033c:	2dda                	fld	fs11,400(sp)
 800033e:	0000                	unimp
 8000340:	2dbc                	fld	fa5,88(a1)
 8000342:	0000                	unimp
 8000344:	2e68                	fld	fa0,216(a2)
 8000346:	0000                	unimp
 8000348:	2dbc                	fld	fa5,88(a1)
 800034a:	0000                	unimp
 800034c:	2dda                	fld	fs11,400(sp)
 800034e:	0000                	unimp
 8000350:	2dba                	fld	fs11,392(sp)
 8000352:	0000                	unimp
 8000354:	2dba                	fld	fs11,392(sp)
 8000356:	0000                	unimp
 8000358:	2dba                	fld	fs11,392(sp)
 800035a:	0000                	unimp
 800035c:	2e68                	fld	fa0,216(a2)
	...

08000360 <__clz_tab>:
 8000360:	0100 0202 0303 0303 0404 0404 0404 0404     ................
 8000370:	0505 0505 0505 0505 0505 0505 0505 0505     ................
 8000380:	0606 0606 0606 0606 0606 0606 0606 0606     ................
 8000390:	0606 0606 0606 0606 0606 0606 0606 0606     ................
 80003a0:	0707 0707 0707 0707 0707 0707 0707 0707     ................
 80003b0:	0707 0707 0707 0707 0707 0707 0707 0707     ................
 80003c0:	0707 0707 0707 0707 0707 0707 0707 0707     ................
 80003d0:	0707 0707 0707 0707 0707 0707 0707 0707     ................
 80003e0:	0808 0808 0808 0808 0808 0808 0808 0808     ................
 80003f0:	0808 0808 0808 0808 0808 0808 0808 0808     ................
 8000400:	0808 0808 0808 0808 0808 0808 0808 0808     ................
 8000410:	0808 0808 0808 0808 0808 0808 0808 0808     ................
 8000420:	0808 0808 0808 0808 0808 0808 0808 0808     ................
 8000430:	0808 0808 0808 0808 0808 0808 0808 0808     ................
 8000440:	0808 0808 0808 0808 0808 0808 0808 0808     ................
 8000450:	0808 0808 0808 0808 0808 0808 0808 0808     ................
 8000460:	3c5a 0000 354a 0000 354a 0000 3c4e 0000     Z<..J5..J5..N<..
 8000470:	354a 0000 354a 0000 354a 0000 33da 0000     J5..J5..J5...3..
 8000480:	354a 0000 354a 0000 3bec 0000 3bdc 0000     J5..J5...;...;..
 8000490:	354a 0000 3596 0000 3c14 0000 354a 0000     J5...5...<..J5..
 80004a0:	3c08 0000 3522 0000 3522 0000 3522 0000     .<.."5.."5.."5..
 80004b0:	3522 0000 3522 0000 3522 0000 3522 0000     "5.."5.."5.."5..
 80004c0:	3522 0000 3522 0000 354a 0000 354a 0000     "5.."5..J5..J5..
 80004d0:	354a 0000 354a 0000 354a 0000 354a 0000     J5..J5..J5..J5..
 80004e0:	354a 0000 3686 0000 354a 0000 399e 0000     J5...6..J5...9..
 80004f0:	395a 0000 3686 0000 3686 0000 3686 0000     Z9...6...6...6..
 8000500:	354a 0000 354a 0000 354a 0000 354a 0000     J5..J5..J5..J5..
 8000510:	3950 0000 354a 0000 354a 0000 3932 0000     P9..J5..J5..29..
 8000520:	354a 0000 354a 0000 354a 0000 38d6 0000     J5..J5..J5...8..
 8000530:	354a 0000 38b6 0000 354a 0000 354a 0000     J5...8..J5..J5..
 8000540:	3560 0000 354a 0000 354a 0000 354a 0000     `5..J5..J5..J5..
 8000550:	354a 0000 354a 0000 354a 0000 354a 0000     J5..J5..J5..J5..
 8000560:	354a 0000 3686 0000 354a 0000 399e 0000     J5...6..J5...9..
 8000570:	3b2e 0000 3686 0000 3686 0000 3686 0000     .;...6...6...6..
 8000580:	3644 0000 3b2e 0000 340e 0000 354a 0000     D6...;...4..J5..
 8000590:	3632 0000 354a 0000 35d2 0000 35a0 0000     26..J5...5...5..
 80005a0:	3656 0000 340e 0000 354a 0000 38d6 0000     V6...4..J5...8..
 80005b0:	3408 0000 3c72 0000 354a 0000 354a 0000     .4..r<..J5..J5..
 80005c0:	34a2 0000 354a 0000 3408 0000               .4..J5...4..

080005cc <blanks.4489>:
 80005cc:	2020 2020 2020 2020 2020 2020 2020 2020                     

080005dc <zeroes.4490>:
 80005dc:	3030 3030 3030 3030 3030 3030 3030 3030     0000000000000000
 80005ec:	4e49 0046 6e69 0066 414e 004e 616e 006e     INF.inf.NAN.nan.
 80005fc:	3130 3332 3534 3736 3938 6261 6463 6665     0123456789abcdef
 800060c:	0000 0000 6e28 6c75 296c 0000 0030 0000     ....(null)..0...

0800061c <ezero>:
	...

08000630 <eone>:
	...
 8000640:	8000 3fff                                   ...?

08000644 <etens>:
 8000644:	6576 4a92 804a 153f c94c 979a 8a20 5202     ve.JJ.?.L... ..R
 8000654:	c460 7525 6a32 ce52 329a 28ce a74d 5de4     `.%u2jR..2.(M..]
 8000664:	c53d 3b5d 9e8b 5a92 526c 50ce f18b 3d28     =.];...ZlR.P..(=
 8000674:	650d 0c17 8175 7586 c976 4d48 9c66 58f8     .e..u..uv.HMf..X
 8000684:	bc50 5c54 cc65 91c6 a60e a0ae e319 46a3     P.T\e..........F
 8000694:	851e eab7 98fe 901b ddbb de8d 9df9 ebfb     ................
 80006a4:	aa7e 4351 0235 0137 36b1 336c c66f 8cdf     ~.QC5.7..6l3o...
 80006b4:	80e9 47c9 93ba 41a8 50f8 25fb c76b 6b71     ...G...A.P.%k.qk
 80006c4:	3cbf a6d5 ffcf 1f49 c278 40d3 0000 0000     .<....I.x..@....
 80006d4:	0000 0000 f020 b59d 2b70 ada8 9dc5 4069     .... ...p+....i@
	...
 80006f0:	0400 c9bf 8e1b 4034 0000 0000 0000 0000     ......4@........
 8000700:	0000 0000 0000 2000 bebc 4019 0000 0000     ....... ...@....
	...
 800071c:	9c40 400c 0000 0000 0000 0000 0000 0000     @..@............
 800072c:	0000 0000 c800 4005 0000 0000 0000 0000     .......@........
	...
 8000744:	a000 4002                                   ...@

08000748 <emtens>:
 8000748:	2030 cffc a1c3 8123 2de3 9fde d2ce 04c8     0 ....#..-......
 8000758:	a6dd 0ad8 8264 d2cb f2ea 12d4 4925 2de4     ....d.......%I.-
 8000768:	3436 534f ceae 256b f53f f698 6bd3 0158     64OS..k%?....kX.
 8000778:	87a6 c0bd da57 82a5 a2a6 32b5 e731 04d4     ....W......21...
 8000788:	e3f2 d332 7132 d21c db23 ee32 9049 395a     ..2.2q..#.2.I.Z9
 8000798:	a23e 5308 fefb 1155 fa91 1939 637a 4325     >..S..U...9.zc%C
 80007a8:	c031 3cac e26d dbde d05d b3f6 ac7c e4a0     1..<m...]...|...
 80007b8:	64bc 467c ddd0 3e55 2a20 6224 47b3 98d7     .d|F..U> *$b.G..
 80007c8:	3f23 e9a5 a539 ea27 a87f 3f2a 0b5b 4af2     #?..9.'...*?[..J
 80007d8:	a581 18ed 67de 94ba 4539 1ead cfb1 3f94     .....g..9E.....?
 80007e8:	bf71 a9b3 7989 be68 4c2e e15b c44d 94be     q....yh..L[.M...
 80007f8:	e695 3fc9 3d4d 7c3d 36ba 0d2b fdc2 cefc     ...?M==|.6+.....
 8000808:	8461 7711 abcc 3fe4 c155 a4a8 404e 6113     a..w...?U...N@.a
 8000818:	d3c3 652b e219 1758 d1b7 3ff1 d70a 70a3     ..+e..X....?...p
 8000828:	0a3d a3d7 3d70 d70a 70a3 0a3d a3d7 3ff8     =...p=...p=....?
 8000838:	cccd cccc cccc cccc cccc cccc cccc cccc     ................
 8000848:	cccc 3ffb                                   ...?

0800084c <bmask>:
 800084c:	ffff fffe fffc fff8 fff0 ffe0 ffc0 ff80     ................
 800085c:	ff00 fe00 fc00 f800 f000 e000 c000 8000     ................
 800086c:	0000 0000 4e20 4e61 0020 0000 2d20 6e49     .... NaN ... -In
 800087c:	6966 696e 7974 0020 4920 666e 6e69 7469     finity . Infinit
 800088c:	2079 0000 614e 004e 2545 0064 0043 0000     y ..NaN.E%d.C...
 800089c:	4f50 4953 0058 0000 002e 0000               POSIX.......

080008a8 <p05.3298>:
 80008a8:	0005 0000 0019 0000 007d 0000 0000 0000     ........}.......

080008b8 <__mprec_tens>:
 80008b8:	0000 0000 0000 3ff0 0000 0000 0000 4024     .......?......$@
 80008c8:	0000 0000 0000 4059 0000 0000 4000 408f     ......Y@.....@.@
 80008d8:	0000 0000 8800 40c3 0000 0000 6a00 40f8     .......@.....j.@
 80008e8:	0000 0000 8480 412e 0000 0000 12d0 4163     .......A......cA
 80008f8:	0000 0000 d784 4197 0000 0000 cd65 41cd     .......A....e..A
 8000908:	0000 2000 a05f 4202 0000 e800 4876 4237     ... _..B....vH7B
 8000918:	0000 a200 1a94 426d 0000 e540 309c 42a2     ......mB..@..0.B
 8000928:	0000 1e90 bcc4 42d6 0000 2634 6bf5 430c     .......B..4&.k.C
 8000938:	8000 37e0 c379 4341 a000 85d8 3457 4376     ...7y.AC....W4vC
 8000948:	c800 674e c16d 43ab 3d00 6091 58e4 43e1     ..Ngm..C.=.`.X.C
 8000958:	8c40 78b5 af1d 4415 ef50 d6e2 1ae4 444b     @..x...DP.....KD
 8000968:	d592 064d f0cf 4480 4af6 c7e1 2d02 44b5     ..M....D.J...-.D
 8000978:	9db4 79d9 7843 44ea                         ...yCx.D

08000980 <__mprec_tinytens>:
 8000980:	89bc 97d8 d2b2 3c9c a733 d5a8 f623 3949     .......<3...#.I9
 8000990:	a73d 44f4 0ffd 32a5 979d cf8c ba08 255b     =..D...2......[%
 80009a0:	6f43 64ac 0628 0ac8                         Co.d(...

080009a8 <__mprec_bigtens>:
 80009a8:	8000 37e0 c379 4341 6e17 b505 b8b5 4693     ...7y.AC.n.....F
 80009b8:	f9f5 e93f 4f03 4d38 1d32 f930 7748 5a82     ..?..O8M2.0.Hw.Z
 80009c8:	bf3c 7f73 4fdd 7515 8c7a 0000 89ca 0000     <.s..O.uz.......
 80009d8:	89ca 0000 8c70 0000 89ca 0000 89ca 0000     ....p...........
 80009e8:	89ca 0000 886a 0000 89ca 0000 89ca 0000     ....j...........
 80009f8:	8b68 0000 8b5a 0000 89ca 0000 8b50 0000     h...Z.......P...
 8000a08:	8b1a 0000 89ca 0000 8b10 0000 89a2 0000     ................
 8000a18:	89a2 0000 89a2 0000 89a2 0000 89a2 0000     ................
 8000a28:	89a2 0000 89a2 0000 89a2 0000 89a2 0000     ................
 8000a38:	89ca 0000 89ca 0000 89ca 0000 89ca 0000     ................
 8000a48:	89ca 0000 89ca 0000 89ca 0000 89ca 0000     ................
 8000a58:	89ca 0000 8bd8 0000 8b84 0000 89ca 0000     ................
 8000a68:	89ca 0000 89ca 0000 89ca 0000 89ca 0000     ................
 8000a78:	89ca 0000 89ca 0000 89ca 0000 89ca 0000     ................
 8000a88:	89ca 0000 8ad2 0000 89ca 0000 89ca 0000     ................
 8000a98:	89ca 0000 8a9c 0000 89ca 0000 8af0 0000     ................
 8000aa8:	89ca 0000 89ca 0000 891c 0000 89ca 0000     ................
 8000ab8:	89ca 0000 89ca 0000 89ca 0000 89ca 0000     ................
 8000ac8:	89ca 0000 89ca 0000 89ca 0000 89ca 0000     ................
 8000ad8:	89ca 0000 8bd8 0000 8da4 0000 89ca 0000     ................
 8000ae8:	89ca 0000 89ca 0000 8d92 0000 8da4 0000     ................
 8000af8:	889e 0000 89ca 0000 8d80 0000 89ca 0000     ................
 8000b08:	8d4c 0000 8d1c 0000 8cf8 0000 889e 0000     L...............
 8000b18:	89ca 0000 8a9c 0000 8898 0000 8c90 0000     ................
 8000b28:	89ca 0000 89ca 0000 8cc2 0000 89ca 0000     ................
 8000b38:	8898 0000                                   ....

08000b3c <blanks.4466>:
 8000b3c:	2020 2020 2020 2020 2020 2020 2020 2020                     

08000b4c <zeroes.4467>:
 8000b4c:	3030 3030 3030 3030 3030 3030 3030 3030     0000000000000000

08000b5c <_ctype_>:
 8000b5c:	2000 2020 2020 2020 2020 2828 2828 2028     .         ((((( 
 8000b6c:	2020 2020 2020 2020 2020 2020 2020 2020                     
 8000b7c:	8820 1010 1010 1010 1010 1010 1010 1010      ...............
 8000b8c:	0410 0404 0404 0404 0404 1004 1010 1010     ................
 8000b9c:	1010 4141 4141 4141 0101 0101 0101 0101     ..AAAAAA........
 8000bac:	0101 0101 0101 0101 0101 0101 1010 1010     ................
 8000bbc:	1010 4242 4242 4242 0202 0202 0202 0202     ..BBBBBB........
 8000bcc:	0202 0202 0202 0202 0202 0202 1010 1010     ................
 8000bdc:	0020 0000 0000 0000 0000 0000 0000 0000      ...............
	...
 8000c60:	abc2 0000 abc2 0000 abc0 0000 ab94 0000     ................
 8000c70:	ab94 0000 ad4a 0000 abc0 0000 ab94 0000     ....J...........
 8000c80:	ad4a 0000 ab94 0000 abc0 0000 ab92 0000     J...............
 8000c90:	ab92 0000 ab92 0000 ad4a 0000               ........J...

08000c9c <main>:
    eclic_priority_group_set(ECLIC_PRIGROUP_LEVEL3_PRIO1);
    eclic_irq_enable(DMA0_Channel0_IRQn, 1, 1);

}

int main(){
 8000c9c:	1101                	addi	sp,sp,-32
 8000c9e:	7379                	lui	t1,0xffffe
 8000ca0:	0c030313          	addi	t1,t1,192 # ffffe0c0 <_sp+0xdfff60c0>
 8000ca4:	ca26                	sw	s1,20(sp)

	
	
	uint8_t enter_data_mode[] = "$$$";

	uint16_t sample_data[4000] = {0xaa};
 8000ca6:	6489                	lui	s1,0x2
int main(){
 8000ca8:	ce06                	sw	ra,28(sp)
 8000caa:	cc22                	sw	s0,24(sp)
 8000cac:	c84a                	sw	s2,16(sp)
	uint16_t sample_data[4000] = {0xaa};
 8000cae:	f4048493          	addi	s1,s1,-192 # 1f40 <__stack_size+0xf40>
int main(){
 8000cb2:	911a                	add	sp,sp,t1
	uint8_t enter_data_mode[] = "$$$";
 8000cb4:	002427b7          	lui	a5,0x242
	uint16_t sample_data[4000] = {0xaa};
 8000cb8:	8626                	mv	a2,s1
 8000cba:	4581                	li	a1,0
	uint8_t enter_data_mode[] = "$$$";
 8000cbc:	42478793          	addi	a5,a5,1060 # 242424 <__stack_size+0x241424>
	uint16_t sample_data[4000] = {0xaa};
 8000cc0:	0808                	addi	a0,sp,16
	uint8_t enter_data_mode[] = "$$$";
 8000cc2:	c63e                	sw	a5,12(sp)
	uint16_t sample_data[4000] = {0xaa};
 8000cc4:	00003097          	auipc	ra,0x3
 8000cc8:	814080e7          	jalr	-2028(ra) # 80034d8 <memset>
 8000ccc:	0aa00793          	li	a5,170
 8000cd0:	00f11823          	sh	a5,16(sp)
	rcu_config();
 8000cd4:	00001097          	auipc	ra,0x1
 8000cd8:	5b4080e7          	jalr	1460(ra) # 8002288 <rcu_config>
	timer_config(20);
 8000cdc:	4551                	li	a0,20
 8000cde:	00001097          	auipc	ra,0x1
 8000ce2:	5e2080e7          	jalr	1506(ra) # 80022c0 <timer_config>
	adc_config();
 8000ce6:	00001097          	auipc	ra,0x1
 8000cea:	686080e7          	jalr	1670(ra) # 800236c <adc_config>

	//Set samples to 20, which since we are using double buffers it will generate an interrupt every ten samples.
	dma_config(sample_data, 20);
 8000cee:	6909                	lui	s2,0x2
 8000cf0:	f5090793          	addi	a5,s2,-176 # 1f50 <__stack_size+0xf50>
 8000cf4:	978a                	add	a5,a5,sp
 8000cf6:	45d1                	li	a1,20
 8000cf8:	40978533          	sub	a0,a5,s1
 8000cfc:	00001097          	auipc	ra,0x1
 8000d00:	73e080e7          	jalr	1854(ra) # 800243a <dma_config>
	

	lio_init_bt();
 8000d04:	00001097          	auipc	ra,0x1
 8000d08:	294080e7          	jalr	660(ra) # 8001f98 <lio_init_bt>
	config_clic_irqs();
 8000d0c:	00001097          	auipc	ra,0x1
 8000d10:	7e0080e7          	jalr	2016(ra) # 80024ec <config_clic_irqs>
	delay_1ms(1000);
 8000d14:	3e800513          	li	a0,1000
 8000d18:	00002097          	auipc	ra,0x2
 8000d1c:	86c080e7          	jalr	-1940(ra) # 8002584 <delay_1ms>
	uint8_t enter_data_mode[] = "$$$";
 8000d20:	7479                	lui	s0,0xffffe
	lio_send_bt(enter_data_mode, strlen(enter_data_mode));
 8000d22:	f5090793          	addi	a5,s2,-176
 8000d26:	978a                	add	a5,a5,sp
 8000d28:	0bc40413          	addi	s0,s0,188 # ffffe0bc <_sp+0xdfff60bc>
 8000d2c:	943e                	add	s0,s0,a5
 8000d2e:	8522                	mv	a0,s0
 8000d30:	00003097          	auipc	ra,0x3
 8000d34:	8ea080e7          	jalr	-1814(ra) # 800361a <strlen>
 8000d38:	85aa                	mv	a1,a0
 8000d3a:	8522                	mv	a0,s0
 8000d3c:	00001097          	auipc	ra,0x1
 8000d40:	3ce080e7          	jalr	974(ra) # 800210a <lio_send_bt>
	delay_1ms(50);
 8000d44:	03200513          	li	a0,50
 8000d48:	00002097          	auipc	ra,0x2
 8000d4c:	83c080e7          	jalr	-1988(ra) # 8002584 <delay_1ms>
	timer_enable(TIMER1);
 8000d50:	40000537          	lui	a0,0x40000
 8000d54:	00000097          	auipc	ra,0x0
 8000d58:	45a080e7          	jalr	1114(ra) # 80011ae <timer_enable>

    Wait For Interrupt is a hint instruction that suspends execution
    until one of a number of events occurs.
 */
__attribute__( ( always_inline ) ) static inline void __WFI(void) {
    __asm volatile ("wfi");
 8000d5c:	10500073          	wfi
 8000d60:	10500073          	wfi
 8000d64:	bfe5                	j	8000d5c <main+0xc0>

08000d66 <register_fini>:
 8000d66:	f7fff797          	auipc	a5,0xf7fff
 8000d6a:	29a78793          	addi	a5,a5,666 # 0 <__stack_size-0x1000>
 8000d6e:	cb89                	beqz	a5,8000d80 <register_fini+0x1a>
 8000d70:	00002517          	auipc	a0,0x2
 8000d74:	6c450513          	addi	a0,a0,1732 # 8003434 <__libc_fini_array>
 8000d78:	00002317          	auipc	t1,0x2
 8000d7c:	68030067          	jr	1664(t1) # 80033f8 <atexit>
 8000d80:	8082                	ret

08000d82 <eclic_global_interrupt_enable>:
    \retval     none
*/
void eclic_global_interrupt_enable(void)
{
    /* set machine interrupt enable bit */
    set_csr(mstatus, MSTATUS_MIE);
 8000d82:	300467f3          	csrrsi	a5,mstatus,8
}
 8000d86:	8082                	ret

08000d88 <eclic_priority_group_set>:
    \param[out] none
    \retval     none
*/
void eclic_priority_group_set(uint8_t prigroup)
{
    eclic_set_nlbits(prigroup);
 8000d88:	00001317          	auipc	t1,0x1
 8000d8c:	0ca30067          	jr	202(t1) # 8001e52 <eclic_set_nlbits>

08000d90 <eclic_irq_enable>:
    \param[in]  priority: the priority needed to set (maximum is 15, refer to the priority group)
    \param[out] none
    \retval     none
*/
void eclic_irq_enable(uint32_t source, uint8_t level, uint8_t priority)
{
 8000d90:	1141                	addi	sp,sp,-16
 8000d92:	c606                	sw	ra,12(sp)
 8000d94:	c422                	sw	s0,8(sp)
 8000d96:	c226                	sw	s1,4(sp)
 8000d98:	c04a                	sw	s2,0(sp)
 8000d9a:	842a                	mv	s0,a0
 8000d9c:	84b2                	mv	s1,a2
 8000d9e:	892e                	mv	s2,a1
    eclic_enable_interrupt(source);
 8000da0:	00001097          	auipc	ra,0x1
 8000da4:	0a0080e7          	jalr	160(ra) # 8001e40 <eclic_enable_interrupt>
    eclic_set_irq_lvl_abs(source, level);
 8000da8:	85ca                	mv	a1,s2
 8000daa:	8522                	mv	a0,s0
 8000dac:	00001097          	auipc	ra,0x1
 8000db0:	0be080e7          	jalr	190(ra) # 8001e6a <eclic_set_irq_lvl_abs>
    eclic_set_irq_priority(source, priority);
 8000db4:	8522                	mv	a0,s0
}
 8000db6:	4422                	lw	s0,8(sp)
 8000db8:	40b2                	lw	ra,12(sp)
 8000dba:	4902                	lw	s2,0(sp)
    eclic_set_irq_priority(source, priority);
 8000dbc:	85a6                	mv	a1,s1
}
 8000dbe:	4492                	lw	s1,4(sp)
 8000dc0:	0141                	addi	sp,sp,16
    eclic_set_irq_priority(source, priority);
 8000dc2:	00001317          	auipc	t1,0x1
 8000dc6:	0f030067          	jr	240(t1) # 8001eb2 <eclic_set_irq_priority>

08000dca <dma_deinit>:
*/
static ErrStatus dma_periph_and_channel_check(uint32_t dma_periph, dma_channel_enum channelx)
{
    ErrStatus val = SUCCESS;

    if(DMA1 == dma_periph){
 8000dca:	400207b7          	lui	a5,0x40020
 8000dce:	40078793          	addi	a5,a5,1024 # 40020400 <_sp+0x20018400>
 8000dd2:	02f50a63          	beq	a0,a5,8000e06 <dma_deinit+0x3c>
	DMA_CHCTL(dma_periph, channelx) &= ~DMA_CHXCTL_CHEN;
 8000dd6:	00259613          	slli	a2,a1,0x2
 8000dda:	00b607b3          	add	a5,a2,a1
 8000dde:	078a                	slli	a5,a5,0x2
 8000de0:	97aa                	add	a5,a5,a0
 8000de2:	4794                	lw	a3,8(a5)
	DMA_INTC(dma_periph) |= DMA_FLAG_ADD(DMA_CHINTF_RESET_VALUE, (uint32_t)channelx);
 8000de4:	473d                	li	a4,15
 8000de6:	00c71733          	sll	a4,a4,a2
	DMA_CHCTL(dma_periph, channelx) &= ~DMA_CHXCTL_CHEN;
 8000dea:	9af9                	andi	a3,a3,-2
 8000dec:	c794                	sw	a3,8(a5)
	DMA_CHCTL(dma_periph, channelx) = DMA_CHCTL_RESET_VALUE;
 8000dee:	0007a423          	sw	zero,8(a5)
	DMA_CHCNT(dma_periph, channelx) = DMA_CHCNT_RESET_VALUE;
 8000df2:	0007a623          	sw	zero,12(a5)
	DMA_CHPADDR(dma_periph, channelx) = DMA_CHPADDR_RESET_VALUE;
 8000df6:	0007a823          	sw	zero,16(a5)
	DMA_CHMADDR(dma_periph, channelx) = DMA_CHMADDR_RESET_VALUE;
 8000dfa:	0007aa23          	sw	zero,20(a5)
	DMA_INTC(dma_periph) |= DMA_FLAG_ADD(DMA_CHINTF_RESET_VALUE, (uint32_t)channelx);
 8000dfe:	415c                	lw	a5,4(a0)
 8000e00:	8fd9                	or	a5,a5,a4
 8000e02:	c15c                	sw	a5,4(a0)
}
 8000e04:	8082                	ret
        /* for DMA1, the channel is from DMA_CH0 to DMA_CH4 */
        if(channelx > DMA_CH4){
 8000e06:	4791                	li	a5,4
 8000e08:	fcb7f7e3          	bgeu	a5,a1,8000dd6 <dma_deinit+0xc>
		DMA_WRONG_HANDLE
 8000e0c:	a001                	j	8000e0c <dma_deinit+0x42>

08000e0e <dma_init>:
    if(DMA1 == dma_periph){
 8000e0e:	400207b7          	lui	a5,0x40020
 8000e12:	40078793          	addi	a5,a5,1024 # 40020400 <_sp+0x20018400>
 8000e16:	08f50463          	beq	a0,a5,8000e9e <dma_init+0x90>
    DMA_CHPADDR(dma_periph, channelx) = init_struct->periph_addr;
 8000e1a:	00259793          	slli	a5,a1,0x2
 8000e1e:	4218                	lw	a4,0(a2)
 8000e20:	97ae                	add	a5,a5,a1
 8000e22:	078a                	slli	a5,a5,0x2
 8000e24:	97aa                	add	a5,a5,a0
 8000e26:	cb98                	sw	a4,16(a5)
    DMA_CHMADDR(dma_periph, channelx) = init_struct->memory_addr;
 8000e28:	4618                	lw	a4,8(a2)
    if(DMA_PERIPH_INCREASE_ENABLE == init_struct->periph_inc){
 8000e2a:	4505                	li	a0,1
    DMA_CHMADDR(dma_periph, channelx) = init_struct->memory_addr;
 8000e2c:	cbd8                	sw	a4,20(a5)
    DMA_CHCNT(dma_periph, channelx) = (init_struct->number & DMA_CHANNEL_CNT_MASK);
 8000e2e:	01065703          	lhu	a4,16(a2)
 8000e32:	c7d8                	sw	a4,12(a5)
    ctl |= (init_struct->periph_width | init_struct->memory_width | init_struct->priority);
 8000e34:	464c                	lw	a1,12(a2)
 8000e36:	4258                	lw	a4,4(a2)
    ctl = DMA_CHCTL(dma_periph, channelx);
 8000e38:	4794                	lw	a3,8(a5)
    ctl |= (init_struct->periph_width | init_struct->memory_width | init_struct->priority);
 8000e3a:	01462803          	lw	a6,20(a2)
 8000e3e:	8f4d                	or	a4,a4,a1
    ctl &= ~(DMA_CHXCTL_PWIDTH | DMA_CHXCTL_MWIDTH | DMA_CHXCTL_PRIO);
 8000e40:	75f1                	lui	a1,0xffffc
 8000e42:	0ff58593          	addi	a1,a1,255 # ffffc0ff <_sp+0xdfff40ff>
 8000e46:	8eed                	and	a3,a3,a1
    ctl |= (init_struct->periph_width | init_struct->memory_width | init_struct->priority);
 8000e48:	01076733          	or	a4,a4,a6
 8000e4c:	8f55                	or	a4,a4,a3
    DMA_CHCTL(dma_periph, channelx) = ctl;
 8000e4e:	c798                	sw	a4,8(a5)
    if(DMA_PERIPH_INCREASE_ENABLE == init_struct->periph_inc){
 8000e50:	01864703          	lbu	a4,24(a2)
 8000e54:	04a70063          	beq	a4,a0,8000e94 <dma_init+0x86>
        DMA_CHCTL(dma_periph, channelx) &= ~DMA_CHXCTL_PNAGA;
 8000e58:	4798                	lw	a4,8(a5)
 8000e5a:	fbf77713          	andi	a4,a4,-65
 8000e5e:	c798                	sw	a4,8(a5)
    if(DMA_MEMORY_INCREASE_ENABLE == init_struct->memory_inc){
 8000e60:	01964683          	lbu	a3,25(a2)
 8000e64:	4705                	li	a4,1
 8000e66:	02e68263          	beq	a3,a4,8000e8a <dma_init+0x7c>
        DMA_CHCTL(dma_periph, channelx) &= ~DMA_CHXCTL_MNAGA;
 8000e6a:	4798                	lw	a4,8(a5)
 8000e6c:	f7f77713          	andi	a4,a4,-129
 8000e70:	c798                	sw	a4,8(a5)
    if(DMA_PERIPHERAL_TO_MEMORY == init_struct->direction){
 8000e72:	01a64703          	lbu	a4,26(a2)
 8000e76:	e709                	bnez	a4,8000e80 <dma_init+0x72>
        DMA_CHCTL(dma_periph, channelx) &= ~DMA_CHXCTL_DIR;
 8000e78:	4798                	lw	a4,8(a5)
 8000e7a:	9b3d                	andi	a4,a4,-17
 8000e7c:	c798                	sw	a4,8(a5)
 8000e7e:	8082                	ret
        DMA_CHCTL(dma_periph, channelx) |= DMA_CHXCTL_DIR;
 8000e80:	4798                	lw	a4,8(a5)
 8000e82:	01076713          	ori	a4,a4,16
 8000e86:	c798                	sw	a4,8(a5)
}
 8000e88:	8082                	ret
        DMA_CHCTL(dma_periph, channelx) |= DMA_CHXCTL_MNAGA;
 8000e8a:	4798                	lw	a4,8(a5)
 8000e8c:	08076713          	ori	a4,a4,128
 8000e90:	c798                	sw	a4,8(a5)
 8000e92:	b7c5                	j	8000e72 <dma_init+0x64>
        DMA_CHCTL(dma_periph, channelx) |= DMA_CHXCTL_PNAGA;
 8000e94:	4798                	lw	a4,8(a5)
 8000e96:	04076713          	ori	a4,a4,64
 8000e9a:	c798                	sw	a4,8(a5)
 8000e9c:	b7d1                	j	8000e60 <dma_init+0x52>
        if(channelx > DMA_CH4){
 8000e9e:	4791                	li	a5,4
 8000ea0:	f6b7fde3          	bgeu	a5,a1,8000e1a <dma_init+0xc>
        DMA_WRONG_HANDLE
 8000ea4:	a001                	j	8000ea4 <dma_init+0x96>

08000ea6 <dma_circulation_enable>:
    if(DMA1 == dma_periph){
 8000ea6:	400207b7          	lui	a5,0x40020
 8000eaa:	40078793          	addi	a5,a5,1024 # 40020400 <_sp+0x20018400>
 8000eae:	00f50c63          	beq	a0,a5,8000ec6 <dma_circulation_enable+0x20>
    DMA_CHCTL(dma_periph, channelx) |= DMA_CHXCTL_CMEN;
 8000eb2:	00259793          	slli	a5,a1,0x2
 8000eb6:	97ae                	add	a5,a5,a1
 8000eb8:	078a                	slli	a5,a5,0x2
 8000eba:	97aa                	add	a5,a5,a0
 8000ebc:	4798                	lw	a4,8(a5)
 8000ebe:	02076713          	ori	a4,a4,32
 8000ec2:	c798                	sw	a4,8(a5)
}
 8000ec4:	8082                	ret
        if(channelx > DMA_CH4){
 8000ec6:	4791                	li	a5,4
 8000ec8:	feb7f5e3          	bgeu	a5,a1,8000eb2 <dma_circulation_enable+0xc>
        DMA_WRONG_HANDLE
 8000ecc:	a001                	j	8000ecc <dma_circulation_enable+0x26>

08000ece <dma_circulation_disable>:
    if(DMA1 == dma_periph){
 8000ece:	400207b7          	lui	a5,0x40020
 8000ed2:	40078793          	addi	a5,a5,1024 # 40020400 <_sp+0x20018400>
 8000ed6:	00f50c63          	beq	a0,a5,8000eee <dma_circulation_disable+0x20>
    DMA_CHCTL(dma_periph, channelx) &= ~DMA_CHXCTL_CMEN;
 8000eda:	00259793          	slli	a5,a1,0x2
 8000ede:	97ae                	add	a5,a5,a1
 8000ee0:	078a                	slli	a5,a5,0x2
 8000ee2:	97aa                	add	a5,a5,a0
 8000ee4:	4798                	lw	a4,8(a5)
 8000ee6:	fdf77713          	andi	a4,a4,-33
 8000eea:	c798                	sw	a4,8(a5)
}
 8000eec:	8082                	ret
        if(channelx > DMA_CH4){
 8000eee:	4791                	li	a5,4
 8000ef0:	feb7f5e3          	bgeu	a5,a1,8000eda <dma_circulation_disable+0xc>
        DMA_WRONG_HANDLE
 8000ef4:	a001                	j	8000ef4 <dma_circulation_disable+0x26>

08000ef6 <dma_channel_enable>:
    if(DMA1 == dma_periph){
 8000ef6:	400207b7          	lui	a5,0x40020
 8000efa:	40078793          	addi	a5,a5,1024 # 40020400 <_sp+0x20018400>
 8000efe:	00f50c63          	beq	a0,a5,8000f16 <dma_channel_enable+0x20>
    DMA_CHCTL(dma_periph, channelx) |= DMA_CHXCTL_CHEN;
 8000f02:	00259793          	slli	a5,a1,0x2
 8000f06:	97ae                	add	a5,a5,a1
 8000f08:	078a                	slli	a5,a5,0x2
 8000f0a:	97aa                	add	a5,a5,a0
 8000f0c:	4798                	lw	a4,8(a5)
 8000f0e:	00176713          	ori	a4,a4,1
 8000f12:	c798                	sw	a4,8(a5)
}
 8000f14:	8082                	ret
        if(channelx > DMA_CH4){
 8000f16:	4791                	li	a5,4
 8000f18:	feb7f5e3          	bgeu	a5,a1,8000f02 <dma_channel_enable+0xc>
        DMA_WRONG_HANDLE
 8000f1c:	a001                	j	8000f1c <dma_channel_enable+0x26>

08000f1e <dma_flag_clear>:
    DMA_INTC(dma_periph) |= DMA_FLAG_ADD(flag, (uint32_t)channelx);
 8000f1e:	415c                	lw	a5,4(a0)
 8000f20:	058a                	slli	a1,a1,0x2
 8000f22:	00b61633          	sll	a2,a2,a1
 8000f26:	8e5d                	or	a2,a2,a5
 8000f28:	c150                	sw	a2,4(a0)
}
 8000f2a:	8082                	ret

08000f2c <dma_interrupt_flag_get>:
	switch(flag){
 8000f2c:	4791                	li	a5,4
 8000f2e:	04f60863          	beq	a2,a5,8000f7e <dma_interrupt_flag_get+0x52>
 8000f32:	47a1                	li	a5,8
 8000f34:	02f60763          	beq	a2,a5,8000f62 <dma_interrupt_flag_get+0x36>
 8000f38:	4789                	li	a5,2
 8000f3a:	00f60363          	beq	a2,a5,8000f40 <dma_interrupt_flag_get+0x14>
			DMA_WRONG_HANDLE
 8000f3e:	a001                	j	8000f3e <dma_interrupt_flag_get+0x12>
			interrupt_flag = DMA_INTF(dma_periph) & DMA_FLAG_ADD(flag, (uint32_t)channelx);
 8000f40:	00259713          	slli	a4,a1,0x2
			interrupt_enable = DMA_CHCTL(dma_periph, (uint32_t)channelx) & DMA_CHXCTL_FTFIE;
 8000f44:	00b707b3          	add	a5,a4,a1
 8000f48:	078a                	slli	a5,a5,0x2
 8000f4a:	07a1                	addi	a5,a5,8
 8000f4c:	97aa                	add	a5,a5,a0
			interrupt_flag = DMA_INTF(dma_periph) & DMA_FLAG_ADD(flag, (uint32_t)channelx);
 8000f4e:	4108                	lw	a0,0(a0)
			interrupt_enable = DMA_CHCTL(dma_periph, (uint32_t)channelx) & DMA_CHXCTL_FTFIE;
 8000f50:	439c                	lw	a5,0(a5)
			interrupt_flag = DMA_INTF(dma_periph) & DMA_FLAG_ADD(flag, (uint32_t)channelx);
 8000f52:	00e61733          	sll	a4,a2,a4
 8000f56:	8d79                	and	a0,a0,a4
			interrupt_enable = DMA_CHCTL(dma_periph, (uint32_t)channelx) & DMA_CHXCTL_FTFIE;
 8000f58:	8b89                	andi	a5,a5,2
	if(interrupt_flag && interrupt_enable){
 8000f5a:	c119                	beqz	a0,8000f60 <dma_interrupt_flag_get+0x34>
 8000f5c:	00f03533          	snez	a0,a5
}
 8000f60:	8082                	ret
			interrupt_flag = DMA_INTF(dma_periph) & DMA_FLAG_ADD(flag, (uint32_t)channelx);
 8000f62:	00259713          	slli	a4,a1,0x2
			interrupt_enable = DMA_CHCTL(dma_periph, (uint32_t)channelx) & DMA_CHXCTL_ERRIE;
 8000f66:	00b707b3          	add	a5,a4,a1
 8000f6a:	078a                	slli	a5,a5,0x2
 8000f6c:	07a1                	addi	a5,a5,8
 8000f6e:	97aa                	add	a5,a5,a0
			interrupt_flag = DMA_INTF(dma_periph) & DMA_FLAG_ADD(flag, (uint32_t)channelx);
 8000f70:	4108                	lw	a0,0(a0)
			interrupt_enable = DMA_CHCTL(dma_periph, (uint32_t)channelx) & DMA_CHXCTL_ERRIE;
 8000f72:	439c                	lw	a5,0(a5)
			interrupt_flag = DMA_INTF(dma_periph) & DMA_FLAG_ADD(flag, (uint32_t)channelx);
 8000f74:	00e61633          	sll	a2,a2,a4
 8000f78:	8d71                	and	a0,a0,a2
			interrupt_enable = DMA_CHCTL(dma_periph, (uint32_t)channelx) & DMA_CHXCTL_ERRIE;
 8000f7a:	8ba1                	andi	a5,a5,8
			break;
 8000f7c:	bff9                	j	8000f5a <dma_interrupt_flag_get+0x2e>
			interrupt_flag = DMA_INTF(dma_periph) & DMA_FLAG_ADD(flag, (uint32_t)channelx);
 8000f7e:	00259713          	slli	a4,a1,0x2
			interrupt_enable = DMA_CHCTL(dma_periph, (uint32_t)channelx) & DMA_CHXCTL_HTFIE;
 8000f82:	00b707b3          	add	a5,a4,a1
 8000f86:	078a                	slli	a5,a5,0x2
 8000f88:	07a1                	addi	a5,a5,8
 8000f8a:	97aa                	add	a5,a5,a0
			interrupt_flag = DMA_INTF(dma_periph) & DMA_FLAG_ADD(flag, (uint32_t)channelx);
 8000f8c:	4108                	lw	a0,0(a0)
			interrupt_enable = DMA_CHCTL(dma_periph, (uint32_t)channelx) & DMA_CHXCTL_HTFIE;
 8000f8e:	439c                	lw	a5,0(a5)
			interrupt_flag = DMA_INTF(dma_periph) & DMA_FLAG_ADD(flag, (uint32_t)channelx);
 8000f90:	00e61733          	sll	a4,a2,a4
 8000f94:	8d79                	and	a0,a0,a4
			interrupt_enable = DMA_CHCTL(dma_periph, (uint32_t)channelx) & DMA_CHXCTL_HTFIE;
 8000f96:	8b91                	andi	a5,a5,4
			break;
 8000f98:	b7c9                	j	8000f5a <dma_interrupt_flag_get+0x2e>

08000f9a <dma_interrupt_flag_clear>:
 8000f9a:	00000317          	auipc	t1,0x0
 8000f9e:	f8430067          	jr	-124(t1) # 8000f1e <dma_flag_clear>

08000fa2 <dma_interrupt_enable>:
    if(DMA1 == dma_periph){
 8000fa2:	400207b7          	lui	a5,0x40020
 8000fa6:	40078793          	addi	a5,a5,1024 # 40020400 <_sp+0x20018400>
 8000faa:	00f50b63          	beq	a0,a5,8000fc0 <dma_interrupt_enable+0x1e>
    DMA_CHCTL(dma_periph, channelx) |= source;
 8000fae:	00259793          	slli	a5,a1,0x2
 8000fb2:	97ae                	add	a5,a5,a1
 8000fb4:	078a                	slli	a5,a5,0x2
 8000fb6:	97aa                	add	a5,a5,a0
 8000fb8:	4798                	lw	a4,8(a5)
 8000fba:	8f51                	or	a4,a4,a2
 8000fbc:	c798                	sw	a4,8(a5)
}
 8000fbe:	8082                	ret
        if(channelx > DMA_CH4){
 8000fc0:	4791                	li	a5,4
 8000fc2:	feb7f6e3          	bgeu	a5,a1,8000fae <dma_interrupt_enable+0xc>
        DMA_WRONG_HANDLE
 8000fc6:	a001                	j	8000fc6 <dma_interrupt_enable+0x24>

08000fc8 <timer_deinit>:
    \param[in]  timer_periph: TIMERx(x=0..6)
    \param[out] none
    \retval     none
*/
void timer_deinit(uint32_t timer_periph)
{
 8000fc8:	1141                	addi	sp,sp,-16
    switch(timer_periph){
 8000fca:	400017b7          	lui	a5,0x40001
{
 8000fce:	c606                	sw	ra,12(sp)
    switch(timer_periph){
 8000fd0:	c0078713          	addi	a4,a5,-1024 # 40000c00 <_sp+0x1fff8c00>
 8000fd4:	04e50d63          	beq	a0,a4,800102e <timer_deinit+0x66>
 8000fd8:	02a77163          	bgeu	a4,a0,8000ffa <timer_deinit+0x32>
 8000fdc:	40078713          	addi	a4,a5,1024
 8000fe0:	06e50563          	beq	a0,a4,800104a <timer_deinit+0x82>
 8000fe4:	40013737          	lui	a4,0x40013
 8000fe8:	c0070713          	addi	a4,a4,-1024 # 40012c00 <_sp+0x2000ac00>
 8000fec:	06e50d63          	beq	a0,a4,8001066 <timer_deinit+0x9e>
 8000ff0:	08f50963          	beq	a0,a5,8001082 <timer_deinit+0xba>
        break;

    default:
        break;
    }
}
 8000ff4:	40b2                	lw	ra,12(sp)
 8000ff6:	0141                	addi	sp,sp,16
 8000ff8:	8082                	ret
    switch(timer_periph){
 8000ffa:	40000737          	lui	a4,0x40000
 8000ffe:	40070693          	addi	a3,a4,1024 # 40000400 <_sp+0x1fff8400>
 8001002:	08d50e63          	beq	a0,a3,800109e <timer_deinit+0xd6>
 8001006:	80078793          	addi	a5,a5,-2048
 800100a:	0af50863          	beq	a0,a5,80010ba <timer_deinit+0xf2>
 800100e:	fee513e3          	bne	a0,a4,8000ff4 <timer_deinit+0x2c>
        rcu_periph_reset_enable(RCU_TIMER1RST);
 8001012:	40000513          	li	a0,1024
 8001016:	00001097          	auipc	ra,0x1
 800101a:	97e080e7          	jalr	-1666(ra) # 8001994 <rcu_periph_reset_enable>
}
 800101e:	40b2                	lw	ra,12(sp)
        rcu_periph_reset_disable(RCU_TIMER1RST);
 8001020:	40000513          	li	a0,1024
}
 8001024:	0141                	addi	sp,sp,16
        rcu_periph_reset_disable(RCU_TIMER1RST);
 8001026:	00001317          	auipc	t1,0x1
 800102a:	98630067          	jr	-1658(t1) # 80019ac <rcu_periph_reset_disable>
        rcu_periph_reset_enable(RCU_TIMER4RST);
 800102e:	40300513          	li	a0,1027
 8001032:	00001097          	auipc	ra,0x1
 8001036:	962080e7          	jalr	-1694(ra) # 8001994 <rcu_periph_reset_enable>
}
 800103a:	40b2                	lw	ra,12(sp)
        rcu_periph_reset_disable(RCU_TIMER4RST);
 800103c:	40300513          	li	a0,1027
}
 8001040:	0141                	addi	sp,sp,16
        rcu_periph_reset_disable(RCU_TIMER4RST);
 8001042:	00001317          	auipc	t1,0x1
 8001046:	96a30067          	jr	-1686(t1) # 80019ac <rcu_periph_reset_disable>
        rcu_periph_reset_enable(RCU_TIMER6RST);
 800104a:	40500513          	li	a0,1029
 800104e:	00001097          	auipc	ra,0x1
 8001052:	946080e7          	jalr	-1722(ra) # 8001994 <rcu_periph_reset_enable>
}
 8001056:	40b2                	lw	ra,12(sp)
        rcu_periph_reset_disable(RCU_TIMER6RST);
 8001058:	40500513          	li	a0,1029
}
 800105c:	0141                	addi	sp,sp,16
        rcu_periph_reset_disable(RCU_TIMER6RST);
 800105e:	00001317          	auipc	t1,0x1
 8001062:	94e30067          	jr	-1714(t1) # 80019ac <rcu_periph_reset_disable>
        rcu_periph_reset_enable(RCU_TIMER0RST);
 8001066:	30b00513          	li	a0,779
 800106a:	00001097          	auipc	ra,0x1
 800106e:	92a080e7          	jalr	-1750(ra) # 8001994 <rcu_periph_reset_enable>
}
 8001072:	40b2                	lw	ra,12(sp)
        rcu_periph_reset_disable(RCU_TIMER0RST);
 8001074:	30b00513          	li	a0,779
}
 8001078:	0141                	addi	sp,sp,16
        rcu_periph_reset_disable(RCU_TIMER0RST);
 800107a:	00001317          	auipc	t1,0x1
 800107e:	93230067          	jr	-1742(t1) # 80019ac <rcu_periph_reset_disable>
        rcu_periph_reset_enable(RCU_TIMER5RST);
 8001082:	40400513          	li	a0,1028
 8001086:	00001097          	auipc	ra,0x1
 800108a:	90e080e7          	jalr	-1778(ra) # 8001994 <rcu_periph_reset_enable>
}
 800108e:	40b2                	lw	ra,12(sp)
        rcu_periph_reset_disable(RCU_TIMER5RST);
 8001090:	40400513          	li	a0,1028
}
 8001094:	0141                	addi	sp,sp,16
        rcu_periph_reset_disable(RCU_TIMER5RST);
 8001096:	00001317          	auipc	t1,0x1
 800109a:	91630067          	jr	-1770(t1) # 80019ac <rcu_periph_reset_disable>
        rcu_periph_reset_enable(RCU_TIMER2RST);
 800109e:	40100513          	li	a0,1025
 80010a2:	00001097          	auipc	ra,0x1
 80010a6:	8f2080e7          	jalr	-1806(ra) # 8001994 <rcu_periph_reset_enable>
}
 80010aa:	40b2                	lw	ra,12(sp)
        rcu_periph_reset_disable(RCU_TIMER2RST);
 80010ac:	40100513          	li	a0,1025
}
 80010b0:	0141                	addi	sp,sp,16
        rcu_periph_reset_disable(RCU_TIMER2RST);
 80010b2:	00001317          	auipc	t1,0x1
 80010b6:	8fa30067          	jr	-1798(t1) # 80019ac <rcu_periph_reset_disable>
        rcu_periph_reset_enable(RCU_TIMER3RST);
 80010ba:	40200513          	li	a0,1026
 80010be:	00001097          	auipc	ra,0x1
 80010c2:	8d6080e7          	jalr	-1834(ra) # 8001994 <rcu_periph_reset_enable>
}
 80010c6:	40b2                	lw	ra,12(sp)
        rcu_periph_reset_disable(RCU_TIMER3RST);
 80010c8:	40200513          	li	a0,1026
}
 80010cc:	0141                	addi	sp,sp,16
        rcu_periph_reset_disable(RCU_TIMER3RST);
 80010ce:	00001317          	auipc	t1,0x1
 80010d2:	8de30067          	jr	-1826(t1) # 80019ac <rcu_periph_reset_disable>

080010d6 <timer_struct_para_init>:
{
    /* initialize the init parameter struct member with the default value */
    initpara->prescaler         = 0U;
    initpara->alignedmode       = TIMER_COUNTER_EDGE;
    initpara->counterdirection  = TIMER_COUNTER_UP;
    initpara->period            = 65535U;
 80010d6:	67c1                	lui	a5,0x10
 80010d8:	17fd                	addi	a5,a5,-1
    initpara->prescaler         = 0U;
 80010da:	00052023          	sw	zero,0(a0)
    initpara->counterdirection  = TIMER_COUNTER_UP;
 80010de:	00051223          	sh	zero,4(a0)
    initpara->period            = 65535U;
 80010e2:	c51c                	sw	a5,8(a0)
    initpara->clockdivision     = TIMER_CKDIV_DIV1;
 80010e4:	00051623          	sh	zero,12(a0)
    initpara->repetitioncounter = 0U;
 80010e8:	00050723          	sb	zero,14(a0)
}
 80010ec:	8082                	ret

080010ee <timer_init>:
    \retval     none
*/
void timer_init(uint32_t timer_periph, timer_parameter_struct* initpara)
{
    /* configure the counter prescaler value */
    TIMER_PSC(timer_periph) = (uint16_t)initpara->prescaler;
 80010ee:	0005d783          	lhu	a5,0(a1)
 80010f2:	0045d703          	lhu	a4,4(a1)
 80010f6:	bff57613          	andi	a2,a0,-1025
 80010fa:	d51c                	sw	a5,40(a0)

    /* configure the counter direction and aligned mode */
    if((TIMER0 == timer_periph) || (TIMER1 == timer_periph) || (TIMER2 == timer_periph)
 80010fc:	400137b7          	lui	a5,0x40013
 8001100:	c0078793          	addi	a5,a5,-1024 # 40012c00 <_sp+0x2000ac00>
 8001104:	8b41                	andi	a4,a4,16
 8001106:	04f50663          	beq	a0,a5,8001152 <timer_init+0x64>
 800110a:	77fd                	lui	a5,0xfffff
 800110c:	3ff78793          	addi	a5,a5,1023 # fffff3ff <_sp+0xdfff73ff>
 8001110:	8fe9                	and	a5,a5,a0
 8001112:	400006b7          	lui	a3,0x40000
 8001116:	02d78e63          	beq	a5,a3,8001152 <timer_init+0x64>
        || (TIMER3 == timer_periph) || (TIMER4 == timer_periph) ){
        TIMER_CTL0(timer_periph) &= (~(uint32_t)(TIMER_CTL0_DIR | TIMER_CTL0_CAM));
        TIMER_CTL0(timer_periph) |= (uint32_t)(initpara->alignedmode & ALIGNEDMODE_MASK);
        TIMER_CTL0(timer_periph) |= (uint32_t)(initpara->counterdirection & COUNTERDIRECTION_MASK);            
    }else{
        TIMER_CTL0(timer_periph) &= (uint32_t)(~ TIMER_CTL0_DIR);
 800111a:	411c                	lw	a5,0(a0)
    }
    
    /* configure the autoreload value */
    TIMER_CAR(timer_periph) = (uint32_t)initpara->period;

    if((TIMER5 != timer_periph) && (TIMER6 != timer_periph)){
 800111c:	400016b7          	lui	a3,0x40001
        TIMER_CTL0(timer_periph) &= (uint32_t)(~ TIMER_CTL0_DIR);
 8001120:	9bbd                	andi	a5,a5,-17
 8001122:	c11c                	sw	a5,0(a0)
        TIMER_CTL0(timer_periph) |= (uint32_t)(initpara->counterdirection & COUNTERDIRECTION_MASK); 
 8001124:	411c                	lw	a5,0(a0)
 8001126:	8f5d                	or	a4,a4,a5
 8001128:	c118                	sw	a4,0(a0)
    TIMER_CAR(timer_periph) = (uint32_t)initpara->period;
 800112a:	459c                	lw	a5,8(a1)
 800112c:	d55c                	sw	a5,44(a0)
    if((TIMER5 != timer_periph) && (TIMER6 != timer_periph)){
 800112e:	00d60d63          	beq	a2,a3,8001148 <timer_init+0x5a>
        /* reset the CKDIV bit */
        TIMER_CTL0(timer_periph) &= (~(uint32_t)TIMER_CTL0_CKDIV);
 8001132:	4118                	lw	a4,0(a0)
        TIMER_CTL0(timer_periph) |= (uint32_t)(initpara->clockdivision & CLOCKDIVISION_MASK);
 8001134:	00c5d783          	lhu	a5,12(a1)
        TIMER_CTL0(timer_periph) &= (~(uint32_t)TIMER_CTL0_CKDIV);
 8001138:	cff77713          	andi	a4,a4,-769
 800113c:	c118                	sw	a4,0(a0)
        TIMER_CTL0(timer_periph) |= (uint32_t)(initpara->clockdivision & CLOCKDIVISION_MASK);
 800113e:	4118                	lw	a4,0(a0)
 8001140:	3007f793          	andi	a5,a5,768
 8001144:	8fd9                	or	a5,a5,a4
 8001146:	c11c                	sw	a5,0(a0)
        /* configure the repetition counter value */
        TIMER_CREP(timer_periph) = (uint32_t)initpara->repetitioncounter;
    }

    /* generate an update event */
    TIMER_SWEVG(timer_periph) |= (uint32_t)TIMER_SWEVG_UPG;
 8001148:	495c                	lw	a5,20(a0)
 800114a:	0017e793          	ori	a5,a5,1
 800114e:	c95c                	sw	a5,20(a0)
}
 8001150:	8082                	ret
        TIMER_CTL0(timer_periph) &= (~(uint32_t)(TIMER_CTL0_DIR | TIMER_CTL0_CAM));
 8001152:	4114                	lw	a3,0(a0)
        TIMER_CTL0(timer_periph) |= (uint32_t)(initpara->alignedmode & ALIGNEDMODE_MASK);
 8001154:	0025d783          	lhu	a5,2(a1)
    if((TIMER5 != timer_periph) && (TIMER6 != timer_periph)){
 8001158:	40001837          	lui	a6,0x40001
        TIMER_CTL0(timer_periph) &= (~(uint32_t)(TIMER_CTL0_DIR | TIMER_CTL0_CAM));
 800115c:	f8f6f693          	andi	a3,a3,-113
 8001160:	c114                	sw	a3,0(a0)
        TIMER_CTL0(timer_periph) |= (uint32_t)(initpara->alignedmode & ALIGNEDMODE_MASK);
 8001162:	4114                	lw	a3,0(a0)
 8001164:	0607f793          	andi	a5,a5,96
 8001168:	8fd5                	or	a5,a5,a3
 800116a:	c11c                	sw	a5,0(a0)
        TIMER_CTL0(timer_periph) |= (uint32_t)(initpara->counterdirection & COUNTERDIRECTION_MASK);            
 800116c:	411c                	lw	a5,0(a0)
 800116e:	8f5d                	or	a4,a4,a5
 8001170:	c118                	sw	a4,0(a0)
    TIMER_CAR(timer_periph) = (uint32_t)initpara->period;
 8001172:	459c                	lw	a5,8(a1)
 8001174:	d55c                	sw	a5,44(a0)
    if((TIMER5 != timer_periph) && (TIMER6 != timer_periph)){
 8001176:	fd0609e3          	beq	a2,a6,8001148 <timer_init+0x5a>
        TIMER_CTL0(timer_periph) &= (~(uint32_t)TIMER_CTL0_CKDIV);
 800117a:	4118                	lw	a4,0(a0)
        TIMER_CTL0(timer_periph) |= (uint32_t)(initpara->clockdivision & CLOCKDIVISION_MASK);
 800117c:	00c5d783          	lhu	a5,12(a1)
    if (TIMER0 == timer_periph) {
 8001180:	400136b7          	lui	a3,0x40013
        TIMER_CTL0(timer_periph) &= (~(uint32_t)TIMER_CTL0_CKDIV);
 8001184:	cff77713          	andi	a4,a4,-769
 8001188:	c118                	sw	a4,0(a0)
        TIMER_CTL0(timer_periph) |= (uint32_t)(initpara->clockdivision & CLOCKDIVISION_MASK);
 800118a:	4110                	lw	a2,0(a0)
 800118c:	3007f793          	andi	a5,a5,768
    if (TIMER0 == timer_periph) {
 8001190:	c0068713          	addi	a4,a3,-1024 # 40012c00 <_sp+0x2000ac00>
        TIMER_CTL0(timer_periph) |= (uint32_t)(initpara->clockdivision & CLOCKDIVISION_MASK);
 8001194:	8fd1                	or	a5,a5,a2
 8001196:	c11c                	sw	a5,0(a0)
    if (TIMER0 == timer_periph) {
 8001198:	fae518e3          	bne	a0,a4,8001148 <timer_init+0x5a>
        TIMER_CREP(timer_periph) = (uint32_t)initpara->repetitioncounter;
 800119c:	00e5c783          	lbu	a5,14(a1)
 80011a0:	c2f6a823          	sw	a5,-976(a3)
    TIMER_SWEVG(timer_periph) |= (uint32_t)TIMER_SWEVG_UPG;
 80011a4:	495c                	lw	a5,20(a0)
 80011a6:	0017e793          	ori	a5,a5,1
 80011aa:	c95c                	sw	a5,20(a0)
}
 80011ac:	8082                	ret

080011ae <timer_enable>:
    \param[out] none
    \retval     none
*/
void timer_enable(uint32_t timer_periph)
{
    TIMER_CTL0(timer_periph) |= (uint32_t)TIMER_CTL0_CEN;
 80011ae:	411c                	lw	a5,0(a0)
 80011b0:	0017e793          	ori	a5,a5,1
 80011b4:	c11c                	sw	a5,0(a0)
}
 80011b6:	8082                	ret

080011b8 <timer_auto_reload_shadow_enable>:
    \param[out] none
    \retval     none
*/
void timer_auto_reload_shadow_enable(uint32_t timer_periph)
{
    TIMER_CTL0(timer_periph) |= (uint32_t)TIMER_CTL0_ARSE;
 80011b8:	411c                	lw	a5,0(a0)
 80011ba:	0807e793          	ori	a5,a5,128
 80011be:	c11c                	sw	a5,0(a0)
}
 80011c0:	8082                	ret

080011c2 <timer_channel_output_struct_para_init>:
    \retval     none
*/
void timer_channel_output_struct_para_init(timer_oc_parameter_struct* ocpara)
{
    /* initialize the channel output parameter struct member with the default value */
    ocpara->outputstate  = TIMER_CCX_DISABLE;
 80011c2:	00051023          	sh	zero,0(a0)
    ocpara->outputnstate = TIMER_CCXN_DISABLE;
 80011c6:	00051123          	sh	zero,2(a0)
    ocpara->ocpolarity   = TIMER_OC_POLARITY_HIGH;
 80011ca:	00051223          	sh	zero,4(a0)
    ocpara->ocnpolarity  = TIMER_OCN_POLARITY_HIGH;
 80011ce:	00051323          	sh	zero,6(a0)
    ocpara->ocidlestate  = TIMER_OC_IDLE_STATE_LOW;
 80011d2:	00051423          	sh	zero,8(a0)
    ocpara->ocnidlestate = TIMER_OCN_IDLE_STATE_LOW;
 80011d6:	00051523          	sh	zero,10(a0)
}
 80011da:	8082                	ret

080011dc <timer_channel_output_config>:
    \param[out] none
    \retval     none
*/
void timer_channel_output_config(uint32_t timer_periph, uint16_t channel, timer_oc_parameter_struct* ocpara)
{
    switch(channel){
 80011dc:	4785                	li	a5,1
 80011de:	0cf58563          	beq	a1,a5,80012a8 <timer_channel_output_config+0xcc>
 80011e2:	c5d9                	beqz	a1,8001270 <timer_channel_output_config+0x94>
 80011e4:	4789                	li	a5,2
 80011e6:	04f58763          	beq	a1,a5,8001234 <timer_channel_output_config+0x58>
 80011ea:	478d                	li	a5,3
 80011ec:	04f59363          	bne	a1,a5,8001232 <timer_channel_output_config+0x56>
        TIMER_CHCTL1(timer_periph) &= ~(uint32_t)TIMER_CHCTL1_CH2MS;
        break;
    /* configure TIMER_CH_3 */
    case TIMER_CH_3:
        /* reset the CH3EN bit */
        TIMER_CHCTL2(timer_periph) &=(~(uint32_t)TIMER_CHCTL2_CH3EN);
 80011f0:	511c                	lw	a5,32(a0)
 80011f2:	777d                	lui	a4,0xfffff
 80011f4:	177d                	addi	a4,a4,-1
 80011f6:	8ff9                	and	a5,a5,a4
 80011f8:	d11c                	sw	a5,32(a0)
        /* set the CH3EN bit */
        TIMER_CHCTL2(timer_periph) |= (uint32_t)((uint32_t)(ocpara->outputstate) << 12U);
 80011fa:	00065783          	lhu	a5,0(a2)
 80011fe:	5118                	lw	a4,32(a0)
        /* reset the CH3P bit */
        TIMER_CHCTL2(timer_periph) &= (~(uint32_t)TIMER_CHCTL2_CH3P);
 8001200:	76f9                	lui	a3,0xffffe
        TIMER_CHCTL2(timer_periph) |= (uint32_t)((uint32_t)(ocpara->outputstate) << 12U);
 8001202:	07b2                	slli	a5,a5,0xc
 8001204:	8fd9                	or	a5,a5,a4
 8001206:	d11c                	sw	a5,32(a0)
        TIMER_CHCTL2(timer_periph) &= (~(uint32_t)TIMER_CHCTL2_CH3P);
 8001208:	5118                	lw	a4,32(a0)
 800120a:	16fd                	addi	a3,a3,-1
        /* set the CH3P bit */
        TIMER_CHCTL2(timer_periph) |= (uint32_t)((uint32_t)(ocpara->ocpolarity) << 12U);
 800120c:	00465783          	lhu	a5,4(a2)
        TIMER_CHCTL2(timer_periph) &= (~(uint32_t)TIMER_CHCTL2_CH3P);
 8001210:	8f75                	and	a4,a4,a3
 8001212:	d118                	sw	a4,32(a0)
        TIMER_CHCTL2(timer_periph) |= (uint32_t)((uint32_t)(ocpara->ocpolarity) << 12U);
 8001214:	5114                	lw	a3,32(a0)
 8001216:	07b2                	slli	a5,a5,0xc

        if (TIMER0 == timer_periph) {
 8001218:	40013737          	lui	a4,0x40013
        TIMER_CHCTL2(timer_periph) |= (uint32_t)((uint32_t)(ocpara->ocpolarity) << 12U);
 800121c:	8fd5                	or	a5,a5,a3
 800121e:	d11c                	sw	a5,32(a0)
        if (TIMER0 == timer_periph) {
 8001220:	c0070793          	addi	a5,a4,-1024 # 40012c00 <_sp+0x2000ac00>
 8001224:	1ef50a63          	beq	a0,a5,8001418 <timer_channel_output_config+0x23c>
            /* reset the ISO3 bit */
            TIMER_CTL1(timer_periph) &= (~(uint32_t)TIMER_CTL1_ISO3);
            /* set the ISO3 bit */
            TIMER_CTL1(timer_periph) |= (uint32_t)((uint32_t)(ocpara->ocidlestate) << 6U);
        }
        TIMER_CHCTL1(timer_periph) &= ~(uint32_t)TIMER_CHCTL1_CH3MS;
 8001228:	4d5c                	lw	a5,28(a0)
 800122a:	cff7f793          	andi	a5,a5,-769
 800122e:	cd5c                	sw	a5,28(a0)
        break;
    default:
        break;
    }
}
 8001230:	8082                	ret
 8001232:	8082                	ret
        TIMER_CHCTL2(timer_periph) &= (~(uint32_t)TIMER_CHCTL2_CH2EN);
 8001234:	5114                	lw	a3,32(a0)
        TIMER_CHCTL2(timer_periph) |= (uint32_t)((uint32_t)(ocpara->outputstate) << 8U);
 8001236:	00065703          	lhu	a4,0(a2)
        TIMER_CHCTL2(timer_periph) |= (uint32_t)((uint32_t)(ocpara->ocpolarity) << 8U);
 800123a:	00465783          	lhu	a5,4(a2)
        TIMER_CHCTL2(timer_periph) &= (~(uint32_t)TIMER_CHCTL2_CH2EN);
 800123e:	eff6f693          	andi	a3,a3,-257
 8001242:	d114                	sw	a3,32(a0)
        TIMER_CHCTL2(timer_periph) |= (uint32_t)((uint32_t)(ocpara->outputstate) << 8U);
 8001244:	5114                	lw	a3,32(a0)
 8001246:	0722                	slli	a4,a4,0x8
        TIMER_CHCTL2(timer_periph) |= (uint32_t)((uint32_t)(ocpara->ocpolarity) << 8U);
 8001248:	07a2                	slli	a5,a5,0x8
        TIMER_CHCTL2(timer_periph) |= (uint32_t)((uint32_t)(ocpara->outputstate) << 8U);
 800124a:	8f55                	or	a4,a4,a3
 800124c:	d118                	sw	a4,32(a0)
        TIMER_CHCTL2(timer_periph) &= (~(uint32_t)TIMER_CHCTL2_CH2P);
 800124e:	5114                	lw	a3,32(a0)
        if (TIMER0 == timer_periph) {
 8001250:	40013737          	lui	a4,0x40013
 8001254:	c0070593          	addi	a1,a4,-1024 # 40012c00 <_sp+0x2000ac00>
        TIMER_CHCTL2(timer_periph) &= (~(uint32_t)TIMER_CHCTL2_CH2P);
 8001258:	dff6f693          	andi	a3,a3,-513
 800125c:	d114                	sw	a3,32(a0)
        TIMER_CHCTL2(timer_periph) |= (uint32_t)((uint32_t)(ocpara->ocpolarity) << 8U);
 800125e:	5114                	lw	a3,32(a0)
 8001260:	8fd5                	or	a5,a5,a3
 8001262:	d11c                	sw	a5,32(a0)
        if (TIMER0 == timer_periph) {
 8001264:	14b50163          	beq	a0,a1,80013a6 <timer_channel_output_config+0x1ca>
        TIMER_CHCTL1(timer_periph) &= ~(uint32_t)TIMER_CHCTL1_CH2MS;
 8001268:	4d5c                	lw	a5,28(a0)
 800126a:	9bf1                	andi	a5,a5,-4
 800126c:	cd5c                	sw	a5,28(a0)
        break;
 800126e:	8082                	ret
        TIMER_CHCTL2(timer_periph) &= (~(uint32_t)TIMER_CHCTL2_CH0EN);
 8001270:	511c                	lw	a5,32(a0)
        TIMER_CHCTL2(timer_periph) |= (uint32_t)ocpara->outputstate;
 8001272:	00065683          	lhu	a3,0(a2)
        TIMER_CHCTL2(timer_periph) |= (uint32_t)ocpara->ocpolarity;
 8001276:	00465703          	lhu	a4,4(a2)
        TIMER_CHCTL2(timer_periph) &= (~(uint32_t)TIMER_CHCTL2_CH0EN);
 800127a:	9bf9                	andi	a5,a5,-2
 800127c:	d11c                	sw	a5,32(a0)
        TIMER_CHCTL2(timer_periph) |= (uint32_t)ocpara->outputstate;
 800127e:	02052803          	lw	a6,32(a0)
        if (TIMER0 == timer_periph) {
 8001282:	400137b7          	lui	a5,0x40013
 8001286:	c0078593          	addi	a1,a5,-1024 # 40012c00 <_sp+0x2000ac00>
        TIMER_CHCTL2(timer_periph) |= (uint32_t)ocpara->outputstate;
 800128a:	0106e6b3          	or	a3,a3,a6
 800128e:	d114                	sw	a3,32(a0)
        TIMER_CHCTL2(timer_periph) &= (~(uint32_t)TIMER_CHCTL2_CH0P);
 8001290:	5114                	lw	a3,32(a0)
 8001292:	9af5                	andi	a3,a3,-3
 8001294:	d114                	sw	a3,32(a0)
        TIMER_CHCTL2(timer_periph) |= (uint32_t)ocpara->ocpolarity;
 8001296:	5114                	lw	a3,32(a0)
 8001298:	8f55                	or	a4,a4,a3
 800129a:	d118                	sw	a4,32(a0)
        if (TIMER0 == timer_periph) {
 800129c:	0ab50763          	beq	a0,a1,800134a <timer_channel_output_config+0x16e>
        TIMER_CHCTL0(timer_periph) &= ~(uint32_t)TIMER_CHCTL0_CH0MS;
 80012a0:	4d1c                	lw	a5,24(a0)
 80012a2:	9bf1                	andi	a5,a5,-4
 80012a4:	cd1c                	sw	a5,24(a0)
        break;
 80012a6:	8082                	ret
        TIMER_CHCTL2(timer_periph) &= (~(uint32_t)TIMER_CHCTL2_CH1EN);
 80012a8:	5114                	lw	a3,32(a0)
        TIMER_CHCTL2(timer_periph) |= (uint32_t)((uint32_t)(ocpara->outputstate) << 4U);
 80012aa:	00065703          	lhu	a4,0(a2)
        TIMER_CHCTL2(timer_periph) |= (uint32_t)((uint32_t)(ocpara->ocpolarity) << 4U);
 80012ae:	00465783          	lhu	a5,4(a2)
        TIMER_CHCTL2(timer_periph) &= (~(uint32_t)TIMER_CHCTL2_CH1EN);
 80012b2:	9abd                	andi	a3,a3,-17
 80012b4:	d114                	sw	a3,32(a0)
        TIMER_CHCTL2(timer_periph) |= (uint32_t)((uint32_t)(ocpara->outputstate) << 4U);
 80012b6:	5114                	lw	a3,32(a0)
 80012b8:	0712                	slli	a4,a4,0x4
        TIMER_CHCTL2(timer_periph) |= (uint32_t)((uint32_t)(ocpara->ocpolarity) << 4U);
 80012ba:	0792                	slli	a5,a5,0x4
        TIMER_CHCTL2(timer_periph) |= (uint32_t)((uint32_t)(ocpara->outputstate) << 4U);
 80012bc:	8f55                	or	a4,a4,a3
 80012be:	d118                	sw	a4,32(a0)
        TIMER_CHCTL2(timer_periph) &= (~(uint32_t)TIMER_CHCTL2_CH1P);
 80012c0:	5114                	lw	a3,32(a0)
        if (TIMER0 == timer_periph) {
 80012c2:	40013737          	lui	a4,0x40013
 80012c6:	c0070593          	addi	a1,a4,-1024 # 40012c00 <_sp+0x2000ac00>
        TIMER_CHCTL2(timer_periph) &= (~(uint32_t)TIMER_CHCTL2_CH1P);
 80012ca:	fdf6f693          	andi	a3,a3,-33
 80012ce:	d114                	sw	a3,32(a0)
        TIMER_CHCTL2(timer_periph) |= (uint32_t)((uint32_t)(ocpara->ocpolarity) << 4U);
 80012d0:	5114                	lw	a3,32(a0)
 80012d2:	8fd5                	or	a5,a5,a3
 80012d4:	d11c                	sw	a5,32(a0)
        if (TIMER0 == timer_periph) {
 80012d6:	00b50763          	beq	a0,a1,80012e4 <timer_channel_output_config+0x108>
        TIMER_CHCTL0(timer_periph) &= ~(uint32_t)TIMER_CHCTL0_CH1MS;
 80012da:	4d1c                	lw	a5,24(a0)
 80012dc:	cff7f793          	andi	a5,a5,-769
 80012e0:	cd1c                	sw	a5,24(a0)
        break;
 80012e2:	8082                	ret
            TIMER_CHCTL2(timer_periph) &= (~(uint32_t)TIMER_CHCTL2_CH1NEN);
 80012e4:	510c                	lw	a1,32(a0)
            TIMER_CHCTL2(timer_periph) |= (uint32_t)((uint32_t)(ocpara->outputnstate) << 4U);
 80012e6:	00265683          	lhu	a3,2(a2)
            TIMER_CHCTL2(timer_periph) |= (uint32_t)((uint32_t)(ocpara->ocnpolarity) << 4U);
 80012ea:	00665783          	lhu	a5,6(a2)
            TIMER_CHCTL2(timer_periph) &= (~(uint32_t)TIMER_CHCTL2_CH1NEN);
 80012ee:	fbf5f593          	andi	a1,a1,-65
 80012f2:	d10c                	sw	a1,32(a0)
            TIMER_CHCTL2(timer_periph) |= (uint32_t)((uint32_t)(ocpara->outputnstate) << 4U);
 80012f4:	510c                	lw	a1,32(a0)
 80012f6:	0692                	slli	a3,a3,0x4
            TIMER_CHCTL2(timer_periph) |= (uint32_t)((uint32_t)(ocpara->ocnpolarity) << 4U);
 80012f8:	0792                	slli	a5,a5,0x4
            TIMER_CHCTL2(timer_periph) |= (uint32_t)((uint32_t)(ocpara->outputnstate) << 4U);
 80012fa:	8ecd                	or	a3,a3,a1
 80012fc:	d114                	sw	a3,32(a0)
            TIMER_CHCTL2(timer_periph) &= (~(uint32_t)TIMER_CHCTL2_CH1NP);
 80012fe:	510c                	lw	a1,32(a0)
            TIMER_CTL1(timer_periph) |= (uint32_t)((uint32_t)(ocpara->ocidlestate) << 2U);
 8001300:	00865683          	lhu	a3,8(a2)
            TIMER_CHCTL2(timer_periph) &= (~(uint32_t)TIMER_CHCTL2_CH1NP);
 8001304:	f7f5f593          	andi	a1,a1,-129
 8001308:	d10c                	sw	a1,32(a0)
            TIMER_CHCTL2(timer_periph) |= (uint32_t)((uint32_t)(ocpara->ocnpolarity) << 4U);
 800130a:	510c                	lw	a1,32(a0)
            TIMER_CTL1(timer_periph) |= (uint32_t)((uint32_t)(ocpara->ocidlestate) << 2U);
 800130c:	068a                	slli	a3,a3,0x2
            TIMER_CHCTL2(timer_periph) |= (uint32_t)((uint32_t)(ocpara->ocnpolarity) << 4U);
 800130e:	8fcd                	or	a5,a5,a1
 8001310:	d11c                	sw	a5,32(a0)
            TIMER_CTL1(timer_periph) &= (~(uint32_t)TIMER_CTL1_ISO1);
 8001312:	c0472583          	lw	a1,-1020(a4)
            TIMER_CTL1(timer_periph) |= (uint32_t)((uint32_t)(ocpara->ocnidlestate) << 2U);
 8001316:	00a65783          	lhu	a5,10(a2)
            TIMER_CTL1(timer_periph) &= (~(uint32_t)TIMER_CTL1_ISO1);
 800131a:	bff5f593          	andi	a1,a1,-1025
 800131e:	c0b72223          	sw	a1,-1020(a4)
            TIMER_CTL1(timer_periph) |= (uint32_t)((uint32_t)(ocpara->ocidlestate) << 2U);
 8001322:	c0472603          	lw	a2,-1020(a4)
            TIMER_CTL1(timer_periph) |= (uint32_t)((uint32_t)(ocpara->ocnidlestate) << 2U);
 8001326:	078a                	slli	a5,a5,0x2
            TIMER_CTL1(timer_periph) |= (uint32_t)((uint32_t)(ocpara->ocidlestate) << 2U);
 8001328:	8ed1                	or	a3,a3,a2
 800132a:	c0d72223          	sw	a3,-1020(a4)
            TIMER_CTL1(timer_periph) &= (~(uint32_t)TIMER_CTL1_ISO1N);
 800132e:	c0472683          	lw	a3,-1020(a4)
 8001332:	767d                	lui	a2,0xfffff
 8001334:	7ff60613          	addi	a2,a2,2047 # fffff7ff <_sp+0xdfff77ff>
 8001338:	8ef1                	and	a3,a3,a2
 800133a:	c0d72223          	sw	a3,-1020(a4)
            TIMER_CTL1(timer_periph) |= (uint32_t)((uint32_t)(ocpara->ocnidlestate) << 2U);
 800133e:	c0472683          	lw	a3,-1020(a4)
 8001342:	8fd5                	or	a5,a5,a3
 8001344:	c0f72223          	sw	a5,-1020(a4)
 8001348:	bf49                	j	80012da <timer_channel_output_config+0xfe>
            TIMER_CHCTL2(timer_periph) &= (~(uint32_t)TIMER_CHCTL2_CH0NEN);
 800134a:	5118                	lw	a4,32(a0)
            TIMER_CHCTL2(timer_periph) |= (uint32_t)ocpara->outputnstate;
 800134c:	00265803          	lhu	a6,2(a2)
            TIMER_CHCTL2(timer_periph) |= (uint32_t)ocpara->ocnpolarity;
 8001350:	00665583          	lhu	a1,6(a2)
            TIMER_CHCTL2(timer_periph) &= (~(uint32_t)TIMER_CHCTL2_CH0NEN);
 8001354:	9b6d                	andi	a4,a4,-5
 8001356:	d118                	sw	a4,32(a0)
            TIMER_CHCTL2(timer_periph) |= (uint32_t)ocpara->outputnstate;
 8001358:	02052883          	lw	a7,32(a0)
            TIMER_CTL1(timer_periph) |= (uint32_t)ocpara->ocidlestate;
 800135c:	00865683          	lhu	a3,8(a2)
            TIMER_CTL1(timer_periph) |= (uint32_t)ocpara->ocnidlestate;
 8001360:	00a65703          	lhu	a4,10(a2)
            TIMER_CHCTL2(timer_periph) |= (uint32_t)ocpara->outputnstate;
 8001364:	01186833          	or	a6,a6,a7
 8001368:	03052023          	sw	a6,32(a0)
            TIMER_CHCTL2(timer_periph) &= (~(uint32_t)TIMER_CHCTL2_CH0NP);
 800136c:	5110                	lw	a2,32(a0)
 800136e:	9a5d                	andi	a2,a2,-9
 8001370:	d110                	sw	a2,32(a0)
            TIMER_CHCTL2(timer_periph) |= (uint32_t)ocpara->ocnpolarity;
 8001372:	5110                	lw	a2,32(a0)
 8001374:	8dd1                	or	a1,a1,a2
 8001376:	d10c                	sw	a1,32(a0)
            TIMER_CTL1(timer_periph) &= (~(uint32_t)TIMER_CTL1_ISO0);
 8001378:	c047a603          	lw	a2,-1020(a5)
 800137c:	eff67613          	andi	a2,a2,-257
 8001380:	c0c7a223          	sw	a2,-1020(a5)
            TIMER_CTL1(timer_periph) |= (uint32_t)ocpara->ocidlestate;
 8001384:	c047a603          	lw	a2,-1020(a5)
 8001388:	8ed1                	or	a3,a3,a2
 800138a:	c0d7a223          	sw	a3,-1020(a5)
            TIMER_CTL1(timer_periph) &= (~(uint32_t)TIMER_CTL1_ISO0N);
 800138e:	c047a683          	lw	a3,-1020(a5)
 8001392:	dff6f693          	andi	a3,a3,-513
 8001396:	c0d7a223          	sw	a3,-1020(a5)
            TIMER_CTL1(timer_periph) |= (uint32_t)ocpara->ocnidlestate;
 800139a:	c047a683          	lw	a3,-1020(a5)
 800139e:	8f55                	or	a4,a4,a3
 80013a0:	c0e7a223          	sw	a4,-1020(a5)
 80013a4:	bdf5                	j	80012a0 <timer_channel_output_config+0xc4>
            TIMER_CHCTL2(timer_periph) &= (~(uint32_t)TIMER_CHCTL2_CH2NEN);
 80013a6:	510c                	lw	a1,32(a0)
            TIMER_CHCTL2(timer_periph) |= (uint32_t)((uint32_t)(ocpara->outputnstate) << 8U);
 80013a8:	00265783          	lhu	a5,2(a2)
            TIMER_CHCTL2(timer_periph) &= (~(uint32_t)TIMER_CHCTL2_CH2NP);
 80013ac:	76fd                	lui	a3,0xfffff
            TIMER_CHCTL2(timer_periph) &= (~(uint32_t)TIMER_CHCTL2_CH2NEN);
 80013ae:	bff5f593          	andi	a1,a1,-1025
 80013b2:	d10c                	sw	a1,32(a0)
            TIMER_CHCTL2(timer_periph) |= (uint32_t)((uint32_t)(ocpara->outputnstate) << 8U);
 80013b4:	510c                	lw	a1,32(a0)
 80013b6:	07a2                	slli	a5,a5,0x8
            TIMER_CHCTL2(timer_periph) &= (~(uint32_t)TIMER_CHCTL2_CH2NP);
 80013b8:	7ff68893          	addi	a7,a3,2047 # fffff7ff <_sp+0xdfff77ff>
            TIMER_CHCTL2(timer_periph) |= (uint32_t)((uint32_t)(ocpara->outputnstate) << 8U);
 80013bc:	8fcd                	or	a5,a5,a1
 80013be:	d11c                	sw	a5,32(a0)
            TIMER_CHCTL2(timer_periph) &= (~(uint32_t)TIMER_CHCTL2_CH2NP);
 80013c0:	02052803          	lw	a6,32(a0)
            TIMER_CTL1(timer_periph) &= (~(uint32_t)TIMER_CTL1_ISO2);
 80013c4:	fff68593          	addi	a1,a3,-1
            TIMER_CHCTL2(timer_periph) |= (uint32_t)((uint32_t)(ocpara->ocnpolarity) << 8U);
 80013c8:	00665783          	lhu	a5,6(a2)
            TIMER_CHCTL2(timer_periph) &= (~(uint32_t)TIMER_CHCTL2_CH2NP);
 80013cc:	011876b3          	and	a3,a6,a7
 80013d0:	d114                	sw	a3,32(a0)
            TIMER_CHCTL2(timer_periph) |= (uint32_t)((uint32_t)(ocpara->ocnpolarity) << 8U);
 80013d2:	02052803          	lw	a6,32(a0)
 80013d6:	07a2                	slli	a5,a5,0x8
            TIMER_CTL1(timer_periph) |= (uint32_t)((uint32_t)(ocpara->ocidlestate) << 4U);
 80013d8:	00865683          	lhu	a3,8(a2)
            TIMER_CHCTL2(timer_periph) |= (uint32_t)((uint32_t)(ocpara->ocnpolarity) << 8U);
 80013dc:	0107e7b3          	or	a5,a5,a6
 80013e0:	d11c                	sw	a5,32(a0)
            TIMER_CTL1(timer_periph) &= (~(uint32_t)TIMER_CTL1_ISO2);
 80013e2:	c0472783          	lw	a5,-1020(a4)
            TIMER_CTL1(timer_periph) |= (uint32_t)((uint32_t)(ocpara->ocidlestate) << 4U);
 80013e6:	0692                	slli	a3,a3,0x4
            TIMER_CTL1(timer_periph) &= (~(uint32_t)TIMER_CTL1_ISO2);
 80013e8:	8dfd                	and	a1,a1,a5
 80013ea:	c0b72223          	sw	a1,-1020(a4)
            TIMER_CTL1(timer_periph) |= (uint32_t)((uint32_t)(ocpara->ocidlestate) << 4U);
 80013ee:	c0472583          	lw	a1,-1020(a4)
            TIMER_CTL1(timer_periph) |= (uint32_t)((uint32_t)(ocpara->ocnidlestate) << 4U);
 80013f2:	00a65783          	lhu	a5,10(a2)
            TIMER_CTL1(timer_periph) &= (~(uint32_t)TIMER_CTL1_ISO2N);
 80013f6:	7679                	lui	a2,0xffffe
            TIMER_CTL1(timer_periph) |= (uint32_t)((uint32_t)(ocpara->ocidlestate) << 4U);
 80013f8:	8ecd                	or	a3,a3,a1
 80013fa:	c0d72223          	sw	a3,-1020(a4)
            TIMER_CTL1(timer_periph) &= (~(uint32_t)TIMER_CTL1_ISO2N);
 80013fe:	c0472683          	lw	a3,-1020(a4)
 8001402:	167d                	addi	a2,a2,-1
            TIMER_CTL1(timer_periph) |= (uint32_t)((uint32_t)(ocpara->ocnidlestate) << 4U);
 8001404:	0792                	slli	a5,a5,0x4
            TIMER_CTL1(timer_periph) &= (~(uint32_t)TIMER_CTL1_ISO2N);
 8001406:	8ef1                	and	a3,a3,a2
 8001408:	c0d72223          	sw	a3,-1020(a4)
            TIMER_CTL1(timer_periph) |= (uint32_t)((uint32_t)(ocpara->ocnidlestate) << 4U);
 800140c:	c0472683          	lw	a3,-1020(a4)
 8001410:	8fd5                	or	a5,a5,a3
 8001412:	c0f72223          	sw	a5,-1020(a4)
 8001416:	bd89                	j	8001268 <timer_channel_output_config+0x8c>
            TIMER_CTL1(timer_periph) &= (~(uint32_t)TIMER_CTL1_ISO3);
 8001418:	c0472783          	lw	a5,-1020(a4)
 800141c:	76f1                	lui	a3,0xffffc
 800141e:	16fd                	addi	a3,a3,-1
 8001420:	8ff5                	and	a5,a5,a3
 8001422:	c0f72223          	sw	a5,-1020(a4)
            TIMER_CTL1(timer_periph) |= (uint32_t)((uint32_t)(ocpara->ocidlestate) << 6U);
 8001426:	00865783          	lhu	a5,8(a2) # ffffe008 <_sp+0xdfff6008>
 800142a:	c0472683          	lw	a3,-1020(a4)
 800142e:	079a                	slli	a5,a5,0x6
 8001430:	8fd5                	or	a5,a5,a3
 8001432:	c0f72223          	sw	a5,-1020(a4)
 8001436:	bbcd                	j	8001228 <timer_channel_output_config+0x4c>

08001438 <timer_channel_output_mode_config>:
    \param[out] none
    \retval     none
*/
void timer_channel_output_mode_config(uint32_t timer_periph, uint16_t channel, uint16_t ocmode)
{
    switch(channel){
 8001438:	4785                	li	a5,1
 800143a:	02f58463          	beq	a1,a5,8001462 <timer_channel_output_mode_config+0x2a>
 800143e:	c5a1                	beqz	a1,8001486 <timer_channel_output_mode_config+0x4e>
 8001440:	4789                	li	a5,2
 8001442:	02f58a63          	beq	a1,a5,8001476 <timer_channel_output_mode_config+0x3e>
 8001446:	478d                	li	a5,3
 8001448:	00f59c63          	bne	a1,a5,8001460 <timer_channel_output_mode_config+0x28>
        TIMER_CHCTL1(timer_periph) &= (~(uint32_t)TIMER_CHCTL1_CH2COMCTL);
        TIMER_CHCTL1(timer_periph) |= (uint32_t)ocmode;
        break;
    /* configure TIMER_CH_3 */
    case TIMER_CH_3:
        TIMER_CHCTL1(timer_periph) &= (~(uint32_t)TIMER_CHCTL1_CH3COMCTL);
 800144c:	4d5c                	lw	a5,28(a0)
 800144e:	7765                	lui	a4,0xffff9
 8001450:	177d                	addi	a4,a4,-1
 8001452:	8ff9                	and	a5,a5,a4
 8001454:	cd5c                	sw	a5,28(a0)
        TIMER_CHCTL1(timer_periph) |= (uint32_t)((uint32_t)(ocmode) << 8U);
 8001456:	4d5c                	lw	a5,28(a0)
 8001458:	0622                	slli	a2,a2,0x8
 800145a:	8e5d                	or	a2,a2,a5
 800145c:	cd50                	sw	a2,28(a0)
        break;
    default:
        break;
    }
}
 800145e:	8082                	ret
 8001460:	8082                	ret
        TIMER_CHCTL0(timer_periph) &= (~(uint32_t)TIMER_CHCTL0_CH1COMCTL);
 8001462:	4d1c                	lw	a5,24(a0)
 8001464:	7765                	lui	a4,0xffff9
 8001466:	177d                	addi	a4,a4,-1
 8001468:	8ff9                	and	a5,a5,a4
 800146a:	cd1c                	sw	a5,24(a0)
        TIMER_CHCTL0(timer_periph) |= (uint32_t)((uint32_t)(ocmode) << 8U);
 800146c:	4d1c                	lw	a5,24(a0)
 800146e:	0622                	slli	a2,a2,0x8
 8001470:	8e5d                	or	a2,a2,a5
 8001472:	cd10                	sw	a2,24(a0)
        break;
 8001474:	8082                	ret
        TIMER_CHCTL1(timer_periph) &= (~(uint32_t)TIMER_CHCTL1_CH2COMCTL);
 8001476:	4d5c                	lw	a5,28(a0)
 8001478:	f8f7f793          	andi	a5,a5,-113
 800147c:	cd5c                	sw	a5,28(a0)
        TIMER_CHCTL1(timer_periph) |= (uint32_t)ocmode;
 800147e:	4d5c                	lw	a5,28(a0)
 8001480:	8e5d                	or	a2,a2,a5
 8001482:	cd50                	sw	a2,28(a0)
        break;
 8001484:	8082                	ret
        TIMER_CHCTL0(timer_periph) &= (~(uint32_t)TIMER_CHCTL0_CH0COMCTL);
 8001486:	4d1c                	lw	a5,24(a0)
 8001488:	f8f7f793          	andi	a5,a5,-113
 800148c:	cd1c                	sw	a5,24(a0)
        TIMER_CHCTL0(timer_periph) |= (uint32_t)ocmode;
 800148e:	4d1c                	lw	a5,24(a0)
 8001490:	8e5d                	or	a2,a2,a5
 8001492:	cd10                	sw	a2,24(a0)
        break;
 8001494:	8082                	ret

08001496 <timer_channel_output_pulse_value_config>:
    \param[out] none
    \retval     none
*/
void timer_channel_output_pulse_value_config(uint32_t timer_periph, uint16_t channel, uint32_t pulse)
{
    switch(channel){
 8001496:	4785                	li	a5,1
 8001498:	00f58c63          	beq	a1,a5,80014b0 <timer_channel_output_pulse_value_config+0x1a>
 800149c:	cd91                	beqz	a1,80014b8 <timer_channel_output_pulse_value_config+0x22>
 800149e:	4789                	li	a5,2
 80014a0:	00f58a63          	beq	a1,a5,80014b4 <timer_channel_output_pulse_value_config+0x1e>
 80014a4:	478d                	li	a5,3
 80014a6:	00f59463          	bne	a1,a5,80014ae <timer_channel_output_pulse_value_config+0x18>
    case TIMER_CH_2:
        TIMER_CH2CV(timer_periph) = (uint32_t)pulse;
        break;
    /* configure TIMER_CH_3 */
    case TIMER_CH_3:
         TIMER_CH3CV(timer_periph) = (uint32_t)pulse;
 80014aa:	c130                	sw	a2,64(a0)
        break;
    default:
        break;
    }
}
 80014ac:	8082                	ret
 80014ae:	8082                	ret
        TIMER_CH1CV(timer_periph) = (uint32_t)pulse;
 80014b0:	dd10                	sw	a2,56(a0)
        break;
 80014b2:	8082                	ret
        TIMER_CH2CV(timer_periph) = (uint32_t)pulse;
 80014b4:	dd50                	sw	a2,60(a0)
        break;
 80014b6:	8082                	ret
        TIMER_CH0CV(timer_periph) = (uint32_t)pulse;
 80014b8:	d950                	sw	a2,52(a0)
        break;
 80014ba:	8082                	ret

080014bc <timer_channel_output_shadow_config>:
    \param[out] none
    \retval     none
*/
void timer_channel_output_shadow_config(uint32_t timer_periph, uint16_t channel, uint16_t ocshadow)
{
    switch(channel){
 80014bc:	4785                	li	a5,1
 80014be:	02f58563          	beq	a1,a5,80014e8 <timer_channel_output_shadow_config+0x2c>
 80014c2:	c5a9                	beqz	a1,800150c <timer_channel_output_shadow_config+0x50>
 80014c4:	4789                	li	a5,2
 80014c6:	02f58c63          	beq	a1,a5,80014fe <timer_channel_output_shadow_config+0x42>
 80014ca:	478d                	li	a5,3
 80014cc:	00f59d63          	bne	a1,a5,80014e6 <timer_channel_output_shadow_config+0x2a>
        TIMER_CHCTL1(timer_periph) &= (~(uint32_t)TIMER_CHCTL1_CH2COMSEN);
        TIMER_CHCTL1(timer_periph) |= (uint32_t)ocshadow;
        break;
    /* configure TIMER_CH_3 */
    case TIMER_CH_3:
        TIMER_CHCTL1(timer_periph) &= (~(uint32_t)TIMER_CHCTL1_CH3COMSEN);
 80014d0:	4d5c                	lw	a5,28(a0)
 80014d2:	777d                	lui	a4,0xfffff
 80014d4:	7ff70713          	addi	a4,a4,2047 # fffff7ff <_sp+0xdfff77ff>
 80014d8:	8ff9                	and	a5,a5,a4
 80014da:	cd5c                	sw	a5,28(a0)
        TIMER_CHCTL1(timer_periph) |= (uint32_t)((uint32_t)(ocshadow) << 8U);
 80014dc:	4d5c                	lw	a5,28(a0)
 80014de:	0622                	slli	a2,a2,0x8
 80014e0:	8e5d                	or	a2,a2,a5
 80014e2:	cd50                	sw	a2,28(a0)
        break;
    default:
        break;
    }
}
 80014e4:	8082                	ret
 80014e6:	8082                	ret
        TIMER_CHCTL0(timer_periph) &= (~(uint32_t)TIMER_CHCTL0_CH1COMSEN);
 80014e8:	4d1c                	lw	a5,24(a0)
 80014ea:	777d                	lui	a4,0xfffff
 80014ec:	7ff70713          	addi	a4,a4,2047 # fffff7ff <_sp+0xdfff77ff>
 80014f0:	8ff9                	and	a5,a5,a4
 80014f2:	cd1c                	sw	a5,24(a0)
        TIMER_CHCTL0(timer_periph) |= (uint32_t)((uint32_t)(ocshadow) << 8U);
 80014f4:	4d1c                	lw	a5,24(a0)
 80014f6:	0622                	slli	a2,a2,0x8
 80014f8:	8e5d                	or	a2,a2,a5
 80014fa:	cd10                	sw	a2,24(a0)
        break;
 80014fc:	8082                	ret
        TIMER_CHCTL1(timer_periph) &= (~(uint32_t)TIMER_CHCTL1_CH2COMSEN);
 80014fe:	4d5c                	lw	a5,28(a0)
 8001500:	9bdd                	andi	a5,a5,-9
 8001502:	cd5c                	sw	a5,28(a0)
        TIMER_CHCTL1(timer_periph) |= (uint32_t)ocshadow;
 8001504:	4d5c                	lw	a5,28(a0)
 8001506:	8e5d                	or	a2,a2,a5
 8001508:	cd50                	sw	a2,28(a0)
        break;
 800150a:	8082                	ret
        TIMER_CHCTL0(timer_periph) &= (~(uint32_t)TIMER_CHCTL0_CH0COMSEN);
 800150c:	4d1c                	lw	a5,24(a0)
 800150e:	9bdd                	andi	a5,a5,-9
 8001510:	cd1c                	sw	a5,24(a0)
        TIMER_CHCTL0(timer_periph) |= (uint32_t)ocshadow;
 8001512:	4d1c                	lw	a5,24(a0)
 8001514:	8e5d                	or	a2,a2,a5
 8001516:	cd10                	sw	a2,24(a0)
        break;
 8001518:	8082                	ret

0800151a <usart_deinit>:
    \param[in]  usart_periph: USARTx(x=0,1,2)/UARTx(x=3,4)
    \param[out] none
    \retval     none
*/
void usart_deinit(uint32_t usart_periph)
{
 800151a:	1141                	addi	sp,sp,-16
    switch(usart_periph){
 800151c:	400057b7          	lui	a5,0x40005
{
 8001520:	c606                	sw	ra,12(sp)
    switch(usart_periph){
 8001522:	c0078713          	addi	a4,a5,-1024 # 40004c00 <_sp+0x1fffcc00>
 8001526:	06e50263          	beq	a0,a4,800158a <usart_deinit+0x70>
 800152a:	02a77863          	bgeu	a4,a0,800155a <usart_deinit+0x40>
 800152e:	06f50c63          	beq	a0,a5,80015a6 <usart_deinit+0x8c>
 8001532:	400147b7          	lui	a5,0x40014
 8001536:	80078793          	addi	a5,a5,-2048 # 40013800 <_sp+0x2000b800>
 800153a:	08f51463          	bne	a0,a5,80015c2 <usart_deinit+0xa8>
    case USART0:
        /* reset USART0 */
        rcu_periph_reset_enable(RCU_USART0RST);
 800153e:	30e00513          	li	a0,782
 8001542:	00000097          	auipc	ra,0x0
 8001546:	452080e7          	jalr	1106(ra) # 8001994 <rcu_periph_reset_enable>
        rcu_periph_reset_disable(RCU_UART4RST);
        break;
    default:
        break;
    }
}
 800154a:	40b2                	lw	ra,12(sp)
        rcu_periph_reset_disable(RCU_USART0RST);
 800154c:	30e00513          	li	a0,782
}
 8001550:	0141                	addi	sp,sp,16
        rcu_periph_reset_disable(RCU_USART0RST);
 8001552:	00000317          	auipc	t1,0x0
 8001556:	45a30067          	jr	1114(t1) # 80019ac <rcu_periph_reset_disable>
    switch(usart_periph){
 800155a:	40004737          	lui	a4,0x40004
 800155e:	40070713          	addi	a4,a4,1024 # 40004400 <_sp+0x1fffc400>
 8001562:	06e50363          	beq	a0,a4,80015c8 <usart_deinit+0xae>
 8001566:	80078793          	addi	a5,a5,-2048
 800156a:	04f51c63          	bne	a0,a5,80015c2 <usart_deinit+0xa8>
        rcu_periph_reset_enable(RCU_USART2RST);
 800156e:	41200513          	li	a0,1042
 8001572:	00000097          	auipc	ra,0x0
 8001576:	422080e7          	jalr	1058(ra) # 8001994 <rcu_periph_reset_enable>
}
 800157a:	40b2                	lw	ra,12(sp)
        rcu_periph_reset_disable(RCU_USART2RST);
 800157c:	41200513          	li	a0,1042
}
 8001580:	0141                	addi	sp,sp,16
        rcu_periph_reset_disable(RCU_USART2RST);
 8001582:	00000317          	auipc	t1,0x0
 8001586:	42a30067          	jr	1066(t1) # 80019ac <rcu_periph_reset_disable>
        rcu_periph_reset_enable(RCU_UART3RST);
 800158a:	41300513          	li	a0,1043
 800158e:	00000097          	auipc	ra,0x0
 8001592:	406080e7          	jalr	1030(ra) # 8001994 <rcu_periph_reset_enable>
}
 8001596:	40b2                	lw	ra,12(sp)
        rcu_periph_reset_disable(RCU_UART3RST);
 8001598:	41300513          	li	a0,1043
}
 800159c:	0141                	addi	sp,sp,16
        rcu_periph_reset_disable(RCU_UART3RST);
 800159e:	00000317          	auipc	t1,0x0
 80015a2:	40e30067          	jr	1038(t1) # 80019ac <rcu_periph_reset_disable>
        rcu_periph_reset_enable(RCU_UART4RST);
 80015a6:	41400513          	li	a0,1044
 80015aa:	00000097          	auipc	ra,0x0
 80015ae:	3ea080e7          	jalr	1002(ra) # 8001994 <rcu_periph_reset_enable>
}
 80015b2:	40b2                	lw	ra,12(sp)
        rcu_periph_reset_disable(RCU_UART4RST);
 80015b4:	41400513          	li	a0,1044
}
 80015b8:	0141                	addi	sp,sp,16
        rcu_periph_reset_disable(RCU_UART4RST);
 80015ba:	00000317          	auipc	t1,0x0
 80015be:	3f230067          	jr	1010(t1) # 80019ac <rcu_periph_reset_disable>
}
 80015c2:	40b2                	lw	ra,12(sp)
 80015c4:	0141                	addi	sp,sp,16
 80015c6:	8082                	ret
        rcu_periph_reset_enable(RCU_USART1RST);
 80015c8:	41100513          	li	a0,1041
 80015cc:	00000097          	auipc	ra,0x0
 80015d0:	3c8080e7          	jalr	968(ra) # 8001994 <rcu_periph_reset_enable>
}
 80015d4:	40b2                	lw	ra,12(sp)
        rcu_periph_reset_disable(RCU_USART1RST);
 80015d6:	41100513          	li	a0,1041
}
 80015da:	0141                	addi	sp,sp,16
        rcu_periph_reset_disable(RCU_USART1RST);
 80015dc:	00000317          	auipc	t1,0x0
 80015e0:	3d030067          	jr	976(t1) # 80019ac <rcu_periph_reset_disable>

080015e4 <usart_baudrate_set>:
    \param[in]  baudval: baud rate value
    \param[out] none
    \retval     none
*/ 
void usart_baudrate_set(uint32_t usart_periph, uint32_t baudval)
{
 80015e4:	1141                	addi	sp,sp,-16
    uint32_t uclk=0U, intdiv=0U, fradiv=0U, udiv=0U;
    switch(usart_periph){
 80015e6:	40005737          	lui	a4,0x40005
{
 80015ea:	c422                	sw	s0,8(sp)
 80015ec:	c226                	sw	s1,4(sp)
 80015ee:	c606                	sw	ra,12(sp)
    switch(usart_periph){
 80015f0:	c0070793          	addi	a5,a4,-1024 # 40004c00 <_sp+0x1fffcc00>
{
 80015f4:	842a                	mv	s0,a0
 80015f6:	84ae                	mv	s1,a1
    switch(usart_periph){
 80015f8:	04f50a63          	beq	a0,a5,800164c <usart_baudrate_set+0x68>
 80015fc:	02a7fd63          	bgeu	a5,a0,8001636 <usart_baudrate_set+0x52>
 8001600:	04e50663          	beq	a0,a4,800164c <usart_baudrate_set+0x68>
 8001604:	40014737          	lui	a4,0x40014
 8001608:	80070713          	addi	a4,a4,-2048 # 40013800 <_sp+0x2000b800>
    uint32_t uclk=0U, intdiv=0U, fradiv=0U, udiv=0U;
 800160c:	4501                	li	a0,0
    switch(usart_periph){
 800160e:	00e41763          	bne	s0,a4,800161c <usart_baudrate_set+0x38>
         /* get clock frequency */
    case USART0:
         /* get USART0 clock */
         uclk=rcu_clock_freq_get(CK_APB2);
 8001612:	450d                	li	a0,3
 8001614:	00000097          	auipc	ra,0x0
 8001618:	3b4080e7          	jalr	948(ra) # 80019c8 <rcu_clock_freq_get>
         break;  
    default:
         break;
    }
    /* oversampling by 16, configure the value of USART_BAUD */
    udiv = (uclk+baudval/2U)/baudval;
 800161c:	0014d793          	srli	a5,s1,0x1
 8001620:	97aa                	add	a5,a5,a0
 8001622:	0297d7b3          	divu	a5,a5,s1
    intdiv = udiv & (0x0000fff0U);
    fradiv = udiv & (0x0000000fU);
    USART_BAUD(usart_periph) = ((USART_BAUD_FRADIV | USART_BAUD_INTDIV) & (intdiv | fradiv));
}
 8001626:	40b2                	lw	ra,12(sp)
 8001628:	4492                	lw	s1,4(sp)
    USART_BAUD(usart_periph) = ((USART_BAUD_FRADIV | USART_BAUD_INTDIV) & (intdiv | fradiv));
 800162a:	07c2                	slli	a5,a5,0x10
 800162c:	83c1                	srli	a5,a5,0x10
 800162e:	c41c                	sw	a5,8(s0)
}
 8001630:	4422                	lw	s0,8(sp)
 8001632:	0141                	addi	sp,sp,16
 8001634:	8082                	ret
    switch(usart_periph){
 8001636:	400046b7          	lui	a3,0x40004
 800163a:	40068693          	addi	a3,a3,1024 # 40004400 <_sp+0x1fffc400>
 800163e:	00d50763          	beq	a0,a3,800164c <usart_baudrate_set+0x68>
 8001642:	80070713          	addi	a4,a4,-2048
    uint32_t uclk=0U, intdiv=0U, fradiv=0U, udiv=0U;
 8001646:	4501                	li	a0,0
    switch(usart_periph){
 8001648:	fce41ae3          	bne	s0,a4,800161c <usart_baudrate_set+0x38>
         uclk=rcu_clock_freq_get(CK_APB1);
 800164c:	4509                	li	a0,2
 800164e:	00000097          	auipc	ra,0x0
 8001652:	37a080e7          	jalr	890(ra) # 80019c8 <rcu_clock_freq_get>
         break;
 8001656:	b7d9                	j	800161c <usart_baudrate_set+0x38>

08001658 <usart_parity_config>:
    \retval     none
*/
void usart_parity_config(uint32_t usart_periph, uint32_t paritycfg)
{
    /* clear USART_CTL0 PM,PCEN bits */
    USART_CTL0(usart_periph) &= ~(USART_CTL0_PM | USART_CTL0_PCEN);
 8001658:	455c                	lw	a5,12(a0)
 800165a:	9ff7f793          	andi	a5,a5,-1537
 800165e:	c55c                	sw	a5,12(a0)
    /* configure USART parity mode */
    USART_CTL0(usart_periph) |= paritycfg ;
 8001660:	455c                	lw	a5,12(a0)
 8001662:	8ddd                	or	a1,a1,a5
 8001664:	c54c                	sw	a1,12(a0)
}
 8001666:	8082                	ret

08001668 <usart_word_length_set>:
    \retval     none
*/
void usart_word_length_set(uint32_t usart_periph, uint32_t wlen)
{
    /* clear USART_CTL0 WL bit */
    USART_CTL0(usart_periph) &= ~USART_CTL0_WL;
 8001668:	455c                	lw	a5,12(a0)
 800166a:	777d                	lui	a4,0xfffff
 800166c:	177d                	addi	a4,a4,-1
 800166e:	8ff9                	and	a5,a5,a4
 8001670:	c55c                	sw	a5,12(a0)
    /* configure USART word length */
    USART_CTL0(usart_periph) |= wlen;
 8001672:	455c                	lw	a5,12(a0)
 8001674:	8ddd                	or	a1,a1,a5
 8001676:	c54c                	sw	a1,12(a0)
}
 8001678:	8082                	ret

0800167a <usart_stop_bit_set>:
    \retval     none
*/
void usart_stop_bit_set(uint32_t usart_periph, uint32_t stblen)
{
    /* clear USART_CTL1 STB bits */
    USART_CTL1(usart_periph) &= ~USART_CTL1_STB; 
 800167a:	491c                	lw	a5,16(a0)
 800167c:	7775                	lui	a4,0xffffd
 800167e:	177d                	addi	a4,a4,-1
 8001680:	8ff9                	and	a5,a5,a4
 8001682:	c91c                	sw	a5,16(a0)
    /* configure USART stop bits */
    USART_CTL1(usart_periph) |= stblen;
 8001684:	491c                	lw	a5,16(a0)
 8001686:	8ddd                	or	a1,a1,a5
 8001688:	c90c                	sw	a1,16(a0)
}
 800168a:	8082                	ret

0800168c <usart_enable>:
    \param[out] none
    \retval     none
*/
void usart_enable(uint32_t usart_periph)
{
    USART_CTL0(usart_periph) |= USART_CTL0_UEN;
 800168c:	455c                	lw	a5,12(a0)
 800168e:	6709                	lui	a4,0x2
 8001690:	8fd9                	or	a5,a5,a4
 8001692:	c55c                	sw	a5,12(a0)
}
 8001694:	8082                	ret

08001696 <usart_transmit_config>:
*/
void usart_transmit_config(uint32_t usart_periph, uint32_t txconfig)
{
    uint32_t ctl = 0U;
    
    ctl = USART_CTL0(usart_periph);
 8001696:	455c                	lw	a5,12(a0)
    ctl &= ~USART_CTL0_TEN;
 8001698:	9bdd                	andi	a5,a5,-9
    ctl |= txconfig;
 800169a:	8ddd                	or	a1,a1,a5
    /* configure transfer mode */
    USART_CTL0(usart_periph) = ctl;
 800169c:	c54c                	sw	a1,12(a0)
}
 800169e:	8082                	ret

080016a0 <usart_receive_config>:
*/
void usart_receive_config(uint32_t usart_periph, uint32_t rxconfig)
{
    uint32_t ctl = 0U;
    
    ctl = USART_CTL0(usart_periph);
 80016a0:	455c                	lw	a5,12(a0)
    ctl &= ~USART_CTL0_REN;
 80016a2:	9bed                	andi	a5,a5,-5
    ctl |= rxconfig;
 80016a4:	8ddd                	or	a1,a1,a5
    /* configure receiver mode */
    USART_CTL0(usart_periph) = ctl;
 80016a6:	c54c                	sw	a1,12(a0)
}
 80016a8:	8082                	ret

080016aa <usart_hardware_flow_rts_config>:
*/
void usart_hardware_flow_rts_config(uint32_t usart_periph, uint32_t rtsconfig)
{
    uint32_t ctl = 0U;
    
    ctl = USART_CTL2(usart_periph);
 80016aa:	495c                	lw	a5,20(a0)
    ctl &= ~USART_CTL2_RTSEN;
 80016ac:	eff7f793          	andi	a5,a5,-257
    ctl |= rtsconfig;
 80016b0:	8ddd                	or	a1,a1,a5
    /* configure RTS */
    USART_CTL2(usart_periph) = ctl;
 80016b2:	c94c                	sw	a1,20(a0)
}
 80016b4:	8082                	ret

080016b6 <usart_hardware_flow_cts_config>:
*/
void usart_hardware_flow_cts_config(uint32_t usart_periph, uint32_t ctsconfig)
{
    uint32_t ctl = 0U;
    
    ctl = USART_CTL2(usart_periph);
 80016b6:	495c                	lw	a5,20(a0)
    ctl &= ~USART_CTL2_CTSEN;
 80016b8:	dff7f793          	andi	a5,a5,-513
    ctl |= ctsconfig;
 80016bc:	8ddd                	or	a1,a1,a5
    /* configure CTS */
    USART_CTL2(usart_periph) = ctl;
 80016be:	c94c                	sw	a1,20(a0)
}
 80016c0:	8082                	ret

080016c2 <usart_dma_receive_config>:
*/
void usart_dma_receive_config(uint32_t usart_periph, uint32_t dmacmd)
{
    uint32_t ctl = 0U;
    
    ctl = USART_CTL2(usart_periph);
 80016c2:	495c                	lw	a5,20(a0)
    ctl &= ~USART_CTL2_DENR;
 80016c4:	fbf7f793          	andi	a5,a5,-65
    ctl |= dmacmd;
 80016c8:	8ddd                	or	a1,a1,a5
    /* configure DMA reception */
    USART_CTL2(usart_periph) = ctl;
 80016ca:	c94c                	sw	a1,20(a0)
}
 80016cc:	8082                	ret

080016ce <usart_dma_transmit_config>:
*/
void usart_dma_transmit_config(uint32_t usart_periph, uint32_t dmacmd)
{
    uint32_t ctl = 0U;
    
    ctl = USART_CTL2(usart_periph);
 80016ce:	495c                	lw	a5,20(a0)
    ctl &= ~USART_CTL2_DENT;
 80016d0:	f7f7f793          	andi	a5,a5,-129
    ctl |= dmacmd;
 80016d4:	8ddd                	or	a1,a1,a5
    /* configure DMA transmission */
    USART_CTL2(usart_periph) = ctl;
 80016d6:	c94c                	sw	a1,20(a0)
}
 80016d8:	8082                	ret

080016da <adc_deinit>:
    \param[in]  adc_periph: ADCx, x=0,1
    \param[out] none
    \retval     none
*/
void adc_deinit(uint32_t adc_periph)
{
 80016da:	1141                	addi	sp,sp,-16
    switch(adc_periph){
 80016dc:	400127b7          	lui	a5,0x40012
{
 80016e0:	c606                	sw	ra,12(sp)
    switch(adc_periph){
 80016e2:	40078793          	addi	a5,a5,1024 # 40012400 <_sp+0x2000a400>
 80016e6:	00f50b63          	beq	a0,a5,80016fc <adc_deinit+0x22>
 80016ea:	400137b7          	lui	a5,0x40013
 80016ee:	80078793          	addi	a5,a5,-2048 # 40012800 <_sp+0x2000a800>
 80016f2:	02f50363          	beq	a0,a5,8001718 <adc_deinit+0x3e>
        rcu_periph_reset_disable(RCU_ADC1RST);
        break;
    default:
        break;
    }
}
 80016f6:	40b2                	lw	ra,12(sp)
 80016f8:	0141                	addi	sp,sp,16
 80016fa:	8082                	ret
        rcu_periph_reset_enable(RCU_ADC0RST);
 80016fc:	30900513          	li	a0,777
 8001700:	00000097          	auipc	ra,0x0
 8001704:	294080e7          	jalr	660(ra) # 8001994 <rcu_periph_reset_enable>
}
 8001708:	40b2                	lw	ra,12(sp)
        rcu_periph_reset_disable(RCU_ADC0RST);
 800170a:	30900513          	li	a0,777
}
 800170e:	0141                	addi	sp,sp,16
        rcu_periph_reset_disable(RCU_ADC0RST);
 8001710:	00000317          	auipc	t1,0x0
 8001714:	29c30067          	jr	668(t1) # 80019ac <rcu_periph_reset_disable>
        rcu_periph_reset_enable(RCU_ADC1RST);
 8001718:	30a00513          	li	a0,778
 800171c:	00000097          	auipc	ra,0x0
 8001720:	278080e7          	jalr	632(ra) # 8001994 <rcu_periph_reset_enable>
}
 8001724:	40b2                	lw	ra,12(sp)
        rcu_periph_reset_disable(RCU_ADC1RST);
 8001726:	30a00513          	li	a0,778
}
 800172a:	0141                	addi	sp,sp,16
        rcu_periph_reset_disable(RCU_ADC1RST);
 800172c:	00000317          	auipc	t1,0x0
 8001730:	28030067          	jr	640(t1) # 80019ac <rcu_periph_reset_disable>

08001734 <adc_mode_config>:
    \param[out] none
    \retval     none
*/
void adc_mode_config(uint32_t mode)
{
    ADC_CTL0(ADC0) &= ~(ADC_CTL0_SYNCM);
 8001734:	400127b7          	lui	a5,0x40012
 8001738:	4047a703          	lw	a4,1028(a5) # 40012404 <_sp+0x2000a404>
 800173c:	fff106b7          	lui	a3,0xfff10
 8001740:	16fd                	addi	a3,a3,-1
 8001742:	8f75                	and	a4,a4,a3
 8001744:	40e7a223          	sw	a4,1028(a5)
    ADC_CTL0(ADC0) |= mode;
 8001748:	4047a703          	lw	a4,1028(a5)
 800174c:	8d59                	or	a0,a0,a4
 800174e:	40a7a223          	sw	a0,1028(a5)
}
 8001752:	8082                	ret

08001754 <adc_special_function_config>:
    \param[out] none
    \retval     none
*/
void adc_special_function_config(uint32_t adc_periph, uint32_t function, ControlStatus newvalue)
{
    if(newvalue){
 8001754:	1005f793          	andi	a5,a1,256
 8001758:	c60d                	beqz	a2,8001782 <adc_special_function_config+0x2e>
        if(0U != (function & ADC_SCAN_MODE)){
 800175a:	ef99                	bnez	a5,8001778 <adc_special_function_config+0x24>
            /* enable scan mode */
            ADC_CTL0(adc_periph) |= ADC_SCAN_MODE;
        }
        if(0U != (function & ADC_INSERTED_CHANNEL_AUTO)){
 800175c:	4005f793          	andi	a5,a1,1024
 8001760:	c789                	beqz	a5,800176a <adc_special_function_config+0x16>
            /* enable inserted channel group convert automatically */
            ADC_CTL0(adc_periph) |= ADC_INSERTED_CHANNEL_AUTO;
 8001762:	415c                	lw	a5,4(a0)
 8001764:	4007e793          	ori	a5,a5,1024
 8001768:	c15c                	sw	a5,4(a0)
        } 
        if(0U != (function & ADC_CONTINUOUS_MODE)){
 800176a:	8989                	andi	a1,a1,2
 800176c:	cd85                	beqz	a1,80017a4 <adc_special_function_config+0x50>
            /* enable continuous mode */
            ADC_CTL1(adc_periph) |= ADC_CONTINUOUS_MODE;
 800176e:	451c                	lw	a5,8(a0)
 8001770:	0027e793          	ori	a5,a5,2
 8001774:	c51c                	sw	a5,8(a0)
 8001776:	8082                	ret
            ADC_CTL0(adc_periph) |= ADC_SCAN_MODE;
 8001778:	415c                	lw	a5,4(a0)
 800177a:	1007e793          	ori	a5,a5,256
 800177e:	c15c                	sw	a5,4(a0)
 8001780:	bff1                	j	800175c <adc_special_function_config+0x8>
        }        
    }else{
        if(0U != (function & ADC_SCAN_MODE)){
 8001782:	c789                	beqz	a5,800178c <adc_special_function_config+0x38>
            /* disable scan mode */
            ADC_CTL0(adc_periph) &= ~ADC_SCAN_MODE;
 8001784:	415c                	lw	a5,4(a0)
 8001786:	eff7f793          	andi	a5,a5,-257
 800178a:	c15c                	sw	a5,4(a0)
        }
        if(0U != (function & ADC_INSERTED_CHANNEL_AUTO)){
 800178c:	4005f793          	andi	a5,a1,1024
 8001790:	c789                	beqz	a5,800179a <adc_special_function_config+0x46>
            /* disable inserted channel group convert automatically */
            ADC_CTL0(adc_periph) &= ~ADC_INSERTED_CHANNEL_AUTO;
 8001792:	415c                	lw	a5,4(a0)
 8001794:	bff7f793          	andi	a5,a5,-1025
 8001798:	c15c                	sw	a5,4(a0)
        } 
        if(0U != (function & ADC_CONTINUOUS_MODE)){
 800179a:	8989                	andi	a1,a1,2
 800179c:	c581                	beqz	a1,80017a4 <adc_special_function_config+0x50>
            /* disable continuous mode */
            ADC_CTL1(adc_periph) &= ~ADC_CONTINUOUS_MODE;
 800179e:	451c                	lw	a5,8(a0)
 80017a0:	9bf5                	andi	a5,a5,-3
 80017a2:	c51c                	sw	a5,8(a0)
        }       
    }
}
 80017a4:	8082                	ret

080017a6 <adc_data_alignment_config>:
*/
void adc_data_alignment_config(uint32_t adc_periph, uint32_t data_alignment)
{
    if(ADC_DATAALIGN_RIGHT != data_alignment){
        /* MSB alignment */
        ADC_CTL1(adc_periph) |= ADC_CTL1_DAL;
 80017a6:	451c                	lw	a5,8(a0)
    if(ADC_DATAALIGN_RIGHT != data_alignment){
 80017a8:	c599                	beqz	a1,80017b6 <adc_data_alignment_config+0x10>
        ADC_CTL1(adc_periph) |= ADC_CTL1_DAL;
 80017aa:	6705                	lui	a4,0x1
 80017ac:	80070713          	addi	a4,a4,-2048 # 800 <__stack_size-0x800>
 80017b0:	8fd9                	or	a5,a5,a4
 80017b2:	c51c                	sw	a5,8(a0)
 80017b4:	8082                	ret
    }else{
        /* LSB alignment */
        ADC_CTL1(adc_periph) &= ~((uint32_t)ADC_CTL1_DAL);
 80017b6:	777d                	lui	a4,0xfffff
 80017b8:	7ff70713          	addi	a4,a4,2047 # fffff7ff <_sp+0xdfff77ff>
 80017bc:	8ff9                	and	a5,a5,a4
 80017be:	c51c                	sw	a5,8(a0)
    }
}
 80017c0:	8082                	ret

080017c2 <adc_enable>:
    \param[out] none
    \retval     none
*/
void adc_enable(uint32_t adc_periph)
{
    if((uint32_t)RESET == (ADC_CTL1(adc_periph) & ADC_CTL1_ADCON)){
 80017c2:	451c                	lw	a5,8(a0)
 80017c4:	8b85                	andi	a5,a5,1
 80017c6:	e789                	bnez	a5,80017d0 <adc_enable+0xe>
        /* enable ADC */
        ADC_CTL1(adc_periph) |= (uint32_t)ADC_CTL1_ADCON;
 80017c8:	451c                	lw	a5,8(a0)
 80017ca:	0017e793          	ori	a5,a5,1
 80017ce:	c51c                	sw	a5,8(a0)
    }       
}
 80017d0:	8082                	ret

080017d2 <adc_calibration_enable>:
    \retval     none
*/
void adc_calibration_enable(uint32_t adc_periph)
{
    /* reset the selected ADC1 calibration registers */
    ADC_CTL1(adc_periph) |= (uint32_t) ADC_CTL1_RSTCLB;
 80017d2:	451c                	lw	a5,8(a0)
 80017d4:	00850713          	addi	a4,a0,8
 80017d8:	0087e793          	ori	a5,a5,8
 80017dc:	c51c                	sw	a5,8(a0)
    /* check the RSTCLB bit state */
    while((uint32_t)RESET != (ADC_CTL1(adc_periph) & ADC_CTL1_RSTCLB)){
 80017de:	431c                	lw	a5,0(a4)
 80017e0:	8ba1                	andi	a5,a5,8
 80017e2:	fff5                	bnez	a5,80017de <adc_calibration_enable+0xc>
    }
    /* enable ADC calibration process */
    ADC_CTL1(adc_periph) |= ADC_CTL1_CLB;
 80017e4:	451c                	lw	a5,8(a0)
 80017e6:	0047e793          	ori	a5,a5,4
 80017ea:	c51c                	sw	a5,8(a0)
    /* check the CLB bit state */
    while((uint32_t)RESET != (ADC_CTL1(adc_periph) & ADC_CTL1_CLB)){
 80017ec:	431c                	lw	a5,0(a4)
 80017ee:	8b91                	andi	a5,a5,4
 80017f0:	fff5                	bnez	a5,80017ec <adc_calibration_enable+0x1a>
    }
}
 80017f2:	8082                	ret

080017f4 <adc_dma_mode_enable>:
    \retval     none
*/
void adc_dma_mode_enable(uint32_t adc_periph)
{
    /* enable DMA request */
    ADC_CTL1(adc_periph) |= (uint32_t)(ADC_CTL1_DMA);
 80017f4:	451c                	lw	a5,8(a0)
 80017f6:	1007e793          	ori	a5,a5,256
 80017fa:	c51c                	sw	a5,8(a0)
}
 80017fc:	8082                	ret

080017fe <adc_channel_length_config>:
    \param[out] none
    \retval     none
*/
void adc_channel_length_config(uint32_t adc_periph, uint8_t adc_channel_group, uint32_t length)
{
    switch(adc_channel_group){
 80017fe:	4785                	li	a5,1
 8001800:	02f58563          	beq	a1,a5,800182a <adc_channel_length_config+0x2c>
 8001804:	4789                	li	a5,2
 8001806:	02f59163          	bne	a1,a5,8001828 <adc_channel_length_config+0x2a>
        ADC_RSQ0(adc_periph) &= ~((uint32_t)ADC_RSQ0_RL);
        ADC_RSQ0(adc_periph) |= RSQ0_RL((uint32_t)(length-ADC_CHANNEL_LENGTH_SUBTRACT_ONE));
        break;
    case ADC_INSERTED_CHANNEL:
        /* configure the length of inserted channel group */
        ADC_ISQ(adc_periph) &= ~((uint32_t)ADC_ISQ_IL);
 800180a:	5d1c                	lw	a5,56(a0)
 800180c:	ffd00737          	lui	a4,0xffd00
 8001810:	177d                	addi	a4,a4,-1
 8001812:	8ff9                	and	a5,a5,a4
 8001814:	dd1c                	sw	a5,56(a0)
        ADC_ISQ(adc_periph) |= ISQ_IL((uint32_t)(length-ADC_CHANNEL_LENGTH_SUBTRACT_ONE));
 8001816:	5d1c                	lw	a5,56(a0)
 8001818:	167d                	addi	a2,a2,-1
 800181a:	0652                	slli	a2,a2,0x14
 800181c:	00300737          	lui	a4,0x300
 8001820:	8e79                	and	a2,a2,a4
 8001822:	8e5d                	or	a2,a2,a5
 8001824:	dd10                	sw	a2,56(a0)
        break;
    default:
        break;
    }
}
 8001826:	8082                	ret
 8001828:	8082                	ret
        ADC_RSQ0(adc_periph) &= ~((uint32_t)ADC_RSQ0_RL);
 800182a:	555c                	lw	a5,44(a0)
 800182c:	ff100737          	lui	a4,0xff100
 8001830:	177d                	addi	a4,a4,-1
 8001832:	8ff9                	and	a5,a5,a4
 8001834:	d55c                	sw	a5,44(a0)
        ADC_RSQ0(adc_periph) |= RSQ0_RL((uint32_t)(length-ADC_CHANNEL_LENGTH_SUBTRACT_ONE));
 8001836:	555c                	lw	a5,44(a0)
 8001838:	167d                	addi	a2,a2,-1
 800183a:	0652                	slli	a2,a2,0x14
 800183c:	00f00737          	lui	a4,0xf00
 8001840:	8e79                	and	a2,a2,a4
 8001842:	8e5d                	or	a2,a2,a5
 8001844:	d550                	sw	a2,44(a0)
        break;
 8001846:	8082                	ret

08001848 <adc_regular_channel_config>:
void adc_regular_channel_config(uint32_t adc_periph, uint8_t rank, uint8_t adc_channel, uint32_t sample_time)
{
    uint32_t rsq,sampt;
    
    /* ADC regular sequence config */
    if(rank < ADC_REGULAR_CHANNEL_RANK_SIX){
 8001848:	4795                	li	a5,5
 800184a:	04b7e263          	bltu	a5,a1,800188e <adc_regular_channel_config+0x46>
        /* the regular group sequence rank is smaller than six */
        rsq = ADC_RSQ2(adc_periph);
        rsq &=  ~((uint32_t)(ADC_RSQX_RSQN << (ADC_REGULAR_CHANNEL_RANK_LENGTH*rank)));
 800184e:	00259793          	slli	a5,a1,0x2
 8001852:	95be                	add	a1,a1,a5
        rsq = ADC_RSQ2(adc_periph);
 8001854:	5958                	lw	a4,52(a0)
        rsq &=  ~((uint32_t)(ADC_RSQX_RSQN << (ADC_REGULAR_CHANNEL_RANK_LENGTH*rank)));
 8001856:	47fd                	li	a5,31
 8001858:	00b797b3          	sll	a5,a5,a1
 800185c:	fff7c793          	not	a5,a5
 8001860:	8ff9                	and	a5,a5,a4
        /* the channel number is written to these bits to select a channel as the nth conversion in the regular channel group */
        rsq |= ((uint32_t)adc_channel << (ADC_REGULAR_CHANNEL_RANK_LENGTH*rank));
 8001862:	00b615b3          	sll	a1,a2,a1
 8001866:	8ddd                	or	a1,a1,a5
        ADC_RSQ2(adc_periph) = rsq;
 8001868:	d94c                	sw	a1,52(a0)
        ADC_RSQ0(adc_periph) = rsq;
    }else{
    }
    
    /* ADC sampling time config */
    if(adc_channel < ADC_CHANNEL_SAMPLE_TEN){
 800186a:	47a5                	li	a5,9
 800186c:	04c7e663          	bltu	a5,a2,80018b8 <adc_regular_channel_config+0x70>
        /* the regular group sequence rank is smaller than ten */
        sampt = ADC_SAMPT1(adc_periph);
        sampt &= ~((uint32_t)(ADC_SAMPTX_SPTN << (ADC_CHANNEL_SAMPLE_LENGTH*adc_channel)));
 8001870:	00161793          	slli	a5,a2,0x1
 8001874:	963e                	add	a2,a2,a5
        sampt = ADC_SAMPT1(adc_periph);
 8001876:	4918                	lw	a4,16(a0)
        sampt &= ~((uint32_t)(ADC_SAMPTX_SPTN << (ADC_CHANNEL_SAMPLE_LENGTH*adc_channel)));
 8001878:	479d                	li	a5,7
 800187a:	00c797b3          	sll	a5,a5,a2
 800187e:	fff7c793          	not	a5,a5
 8001882:	8ff9                	and	a5,a5,a4
        /* channel sample time set*/
        sampt |= (uint32_t)(sample_time << (ADC_CHANNEL_SAMPLE_LENGTH*adc_channel));
 8001884:	00c69633          	sll	a2,a3,a2
 8001888:	8e5d                	or	a2,a2,a5
        ADC_SAMPT1(adc_periph) = sampt;
 800188a:	c910                	sw	a2,16(a0)
 800188c:	8082                	ret
    }else if(rank < ADC_REGULAR_CHANNEL_RANK_TWELVE){
 800188e:	47ad                	li	a5,11
 8001890:	04b7e763          	bltu	a5,a1,80018de <adc_regular_channel_config+0x96>
        rsq &= ~((uint32_t)(ADC_RSQX_RSQN << (ADC_REGULAR_CHANNEL_RANK_LENGTH*(rank-ADC_REGULAR_CHANNEL_RANK_SIX))));
 8001894:	15e9                	addi	a1,a1,-6
 8001896:	00259793          	slli	a5,a1,0x2
 800189a:	95be                	add	a1,a1,a5
        rsq = ADC_RSQ1(adc_periph);
 800189c:	5918                	lw	a4,48(a0)
        rsq &= ~((uint32_t)(ADC_RSQX_RSQN << (ADC_REGULAR_CHANNEL_RANK_LENGTH*(rank-ADC_REGULAR_CHANNEL_RANK_SIX))));
 800189e:	47fd                	li	a5,31
 80018a0:	00b797b3          	sll	a5,a5,a1
 80018a4:	fff7c793          	not	a5,a5
 80018a8:	8ff9                	and	a5,a5,a4
        rsq |= ((uint32_t)adc_channel << (ADC_REGULAR_CHANNEL_RANK_LENGTH*(rank-ADC_REGULAR_CHANNEL_RANK_SIX)));
 80018aa:	00b615b3          	sll	a1,a2,a1
 80018ae:	8ddd                	or	a1,a1,a5
        ADC_RSQ1(adc_periph) = rsq;
 80018b0:	d90c                	sw	a1,48(a0)
    if(adc_channel < ADC_CHANNEL_SAMPLE_TEN){
 80018b2:	47a5                	li	a5,9
 80018b4:	fac7fee3          	bgeu	a5,a2,8001870 <adc_regular_channel_config+0x28>
    }else if(adc_channel < ADC_CHANNEL_SAMPLE_EIGHTEEN){
 80018b8:	47c5                	li	a5,17
 80018ba:	02c7e163          	bltu	a5,a2,80018dc <adc_regular_channel_config+0x94>
        /* the regular group sequence rank is smaller than eighteen */
        sampt = ADC_SAMPT0(adc_periph);
        sampt &= ~((uint32_t)(ADC_SAMPTX_SPTN << (ADC_CHANNEL_SAMPLE_LENGTH*(adc_channel-ADC_CHANNEL_SAMPLE_TEN))));
 80018be:	1659                	addi	a2,a2,-10
 80018c0:	00161713          	slli	a4,a2,0x1
        sampt = ADC_SAMPT0(adc_periph);
 80018c4:	454c                	lw	a1,12(a0)
        sampt &= ~((uint32_t)(ADC_SAMPTX_SPTN << (ADC_CHANNEL_SAMPLE_LENGTH*(adc_channel-ADC_CHANNEL_SAMPLE_TEN))));
 80018c6:	963a                	add	a2,a2,a4
 80018c8:	479d                	li	a5,7
 80018ca:	00c797b3          	sll	a5,a5,a2
 80018ce:	fff7c793          	not	a5,a5
 80018d2:	8fed                	and	a5,a5,a1
        /* channel sample time set*/
        sampt |= (uint32_t)(sample_time << (ADC_CHANNEL_SAMPLE_LENGTH*(adc_channel-ADC_CHANNEL_SAMPLE_TEN)));
 80018d4:	00c69633          	sll	a2,a3,a2
 80018d8:	8e5d                	or	a2,a2,a5
        ADC_SAMPT0(adc_periph) = sampt;
 80018da:	c550                	sw	a2,12(a0)
    }else{
    }
}
 80018dc:	8082                	ret
    }else if(rank < ADC_REGULAR_CHANNEL_RANK_SIXTEEN){
 80018de:	47bd                	li	a5,15
 80018e0:	f8b7e5e3          	bltu	a5,a1,800186a <adc_regular_channel_config+0x22>
        rsq &= ~((uint32_t)(ADC_RSQX_RSQN << (ADC_REGULAR_CHANNEL_RANK_LENGTH*(rank-ADC_REGULAR_CHANNEL_RANK_TWELVE))));
 80018e4:	15d1                	addi	a1,a1,-12
 80018e6:	00259793          	slli	a5,a1,0x2
 80018ea:	95be                	add	a1,a1,a5
        rsq = ADC_RSQ0(adc_periph);
 80018ec:	5558                	lw	a4,44(a0)
        rsq &= ~((uint32_t)(ADC_RSQX_RSQN << (ADC_REGULAR_CHANNEL_RANK_LENGTH*(rank-ADC_REGULAR_CHANNEL_RANK_TWELVE))));
 80018ee:	47fd                	li	a5,31
 80018f0:	00b797b3          	sll	a5,a5,a1
 80018f4:	fff7c793          	not	a5,a5
 80018f8:	8ff9                	and	a5,a5,a4
        rsq |= ((uint32_t)adc_channel << (ADC_REGULAR_CHANNEL_RANK_LENGTH*(rank-ADC_REGULAR_CHANNEL_RANK_TWELVE)));
 80018fa:	00b615b3          	sll	a1,a2,a1
 80018fe:	8ddd                	or	a1,a1,a5
        ADC_RSQ0(adc_periph) = rsq;
 8001900:	d54c                	sw	a1,44(a0)
 8001902:	b7a5                	j	800186a <adc_regular_channel_config+0x22>

08001904 <adc_external_trigger_source_config>:
    \param[out] none
    \retval     none
*/
void adc_external_trigger_source_config(uint32_t adc_periph, uint8_t adc_channel_group, uint32_t external_trigger_source)
{   
    switch(adc_channel_group){
 8001904:	4785                	li	a5,1
 8001906:	00f58f63          	beq	a1,a5,8001924 <adc_external_trigger_source_config+0x20>
 800190a:	4789                	li	a5,2
 800190c:	00f59b63          	bne	a1,a5,8001922 <adc_external_trigger_source_config+0x1e>
        ADC_CTL1(adc_periph) &= ~((uint32_t)ADC_CTL1_ETSRC);
        ADC_CTL1(adc_periph) |= (uint32_t)external_trigger_source;
        break;
    case ADC_INSERTED_CHANNEL:
        /* configure ADC inserted group external trigger source */
        ADC_CTL1(adc_periph) &= ~((uint32_t)ADC_CTL1_ETSIC);
 8001910:	451c                	lw	a5,8(a0)
 8001912:	7765                	lui	a4,0xffff9
 8001914:	177d                	addi	a4,a4,-1
 8001916:	8ff9                	and	a5,a5,a4
 8001918:	c51c                	sw	a5,8(a0)
        ADC_CTL1(adc_periph) |= (uint32_t)external_trigger_source;
 800191a:	451c                	lw	a5,8(a0)
 800191c:	8e5d                	or	a2,a2,a5
 800191e:	c510                	sw	a2,8(a0)
        break;
    default:
        break;
    }
}
 8001920:	8082                	ret
 8001922:	8082                	ret
        ADC_CTL1(adc_periph) &= ~((uint32_t)ADC_CTL1_ETSRC);
 8001924:	451c                	lw	a5,8(a0)
 8001926:	fff20737          	lui	a4,0xfff20
        ADC_CTL1(adc_periph) &= ~((uint32_t)ADC_CTL1_ETSIC);
 800192a:	177d                	addi	a4,a4,-1
 800192c:	8ff9                	and	a5,a5,a4
 800192e:	c51c                	sw	a5,8(a0)
        ADC_CTL1(adc_periph) |= (uint32_t)external_trigger_source;
 8001930:	451c                	lw	a5,8(a0)
 8001932:	8e5d                	or	a2,a2,a5
 8001934:	c510                	sw	a2,8(a0)
}
 8001936:	8082                	ret

08001938 <adc_external_trigger_config>:
    \param[out] none
    \retval     none
*/
void adc_external_trigger_config(uint32_t adc_periph, uint8_t adc_channel_group, ControlStatus newvalue)
{
    if(newvalue){
 8001938:	0015f793          	andi	a5,a1,1
 800193c:	c20d                	beqz	a2,800195e <adc_external_trigger_config+0x26>
        if(0U != (adc_channel_group & ADC_REGULAR_CHANNEL)){
 800193e:	eb81                	bnez	a5,800194e <adc_external_trigger_config+0x16>
            /* enable ADC regular channel group external trigger */
            ADC_CTL1(adc_periph) |= ADC_CTL1_ETERC;
        }
        if(0U != (adc_channel_group & ADC_INSERTED_CHANNEL)){
 8001940:	8989                	andi	a1,a1,2
 8001942:	cd89                	beqz	a1,800195c <adc_external_trigger_config+0x24>
            /* enable ADC inserted channel group external trigger */
            ADC_CTL1(adc_periph) |= ADC_CTL1_ETEIC;
 8001944:	451c                	lw	a5,8(a0)
 8001946:	6721                	lui	a4,0x8
 8001948:	8fd9                	or	a5,a5,a4
 800194a:	c51c                	sw	a5,8(a0)
 800194c:	8082                	ret
            ADC_CTL1(adc_periph) |= ADC_CTL1_ETERC;
 800194e:	451c                	lw	a5,8(a0)
 8001950:	00100737          	lui	a4,0x100
        if(0U != (adc_channel_group & ADC_INSERTED_CHANNEL)){
 8001954:	8989                	andi	a1,a1,2
            ADC_CTL1(adc_periph) |= ADC_CTL1_ETERC;
 8001956:	8fd9                	or	a5,a5,a4
 8001958:	c51c                	sw	a5,8(a0)
        if(0U != (adc_channel_group & ADC_INSERTED_CHANNEL)){
 800195a:	f5ed                	bnez	a1,8001944 <adc_external_trigger_config+0xc>
        if(0U != (adc_channel_group & ADC_INSERTED_CHANNEL)){
            /* disable ADC regular channel group external trigger */
            ADC_CTL1(adc_periph) &= ~ADC_CTL1_ETEIC;
        }      
    }
}
 800195c:	8082                	ret
        if(0U != (adc_channel_group & ADC_REGULAR_CHANNEL)){
 800195e:	c799                	beqz	a5,800196c <adc_external_trigger_config+0x34>
            ADC_CTL1(adc_periph) &= ~ADC_CTL1_ETERC;
 8001960:	451c                	lw	a5,8(a0)
 8001962:	fff00737          	lui	a4,0xfff00
 8001966:	177d                	addi	a4,a4,-1
 8001968:	8ff9                	and	a5,a5,a4
 800196a:	c51c                	sw	a5,8(a0)
        if(0U != (adc_channel_group & ADC_INSERTED_CHANNEL)){
 800196c:	8989                	andi	a1,a1,2
 800196e:	d5fd                	beqz	a1,800195c <adc_external_trigger_config+0x24>
            ADC_CTL1(adc_periph) &= ~ADC_CTL1_ETEIC;
 8001970:	451c                	lw	a5,8(a0)
 8001972:	7761                	lui	a4,0xffff8
 8001974:	177d                	addi	a4,a4,-1
 8001976:	8ff9                	and	a5,a5,a4
 8001978:	c51c                	sw	a5,8(a0)
}
 800197a:	8082                	ret

0800197c <rcu_periph_clock_enable>:
    \param[out] none
    \retval     none
*/
void rcu_periph_clock_enable(rcu_periph_enum periph)
{
    RCU_REG_VAL(periph) |= BIT(RCU_BIT_POS(periph));
 800197c:	400217b7          	lui	a5,0x40021
 8001980:	00655713          	srli	a4,a0,0x6
 8001984:	973e                	add	a4,a4,a5
 8001986:	4314                	lw	a3,0(a4)
 8001988:	4785                	li	a5,1
 800198a:	00a797b3          	sll	a5,a5,a0
 800198e:	8fd5                	or	a5,a5,a3
 8001990:	c31c                	sw	a5,0(a4)
}
 8001992:	8082                	ret

08001994 <rcu_periph_reset_enable>:
    \param[out] none
    \retval     none
*/
void rcu_periph_reset_enable(rcu_periph_reset_enum periph_reset)
{
    RCU_REG_VAL(periph_reset) |= BIT(RCU_BIT_POS(periph_reset));
 8001994:	400217b7          	lui	a5,0x40021
 8001998:	00655713          	srli	a4,a0,0x6
 800199c:	973e                	add	a4,a4,a5
 800199e:	4314                	lw	a3,0(a4)
 80019a0:	4785                	li	a5,1
 80019a2:	00a797b3          	sll	a5,a5,a0
 80019a6:	8fd5                	or	a5,a5,a3
 80019a8:	c31c                	sw	a5,0(a4)
}
 80019aa:	8082                	ret

080019ac <rcu_periph_reset_disable>:
    \param[out] none
    \retval     none
*/
void rcu_periph_reset_disable(rcu_periph_reset_enum periph_reset)
{
    RCU_REG_VAL(periph_reset) &= ~BIT(RCU_BIT_POS(periph_reset));
 80019ac:	400217b7          	lui	a5,0x40021
 80019b0:	00655713          	srli	a4,a0,0x6
 80019b4:	973e                	add	a4,a4,a5
 80019b6:	4314                	lw	a3,0(a4)
 80019b8:	4785                	li	a5,1
 80019ba:	00a797b3          	sll	a5,a5,a0
 80019be:	fff7c793          	not	a5,a5
 80019c2:	8ff5                	and	a5,a5,a3
 80019c4:	c31c                	sw	a5,0(a4)
}
 80019c6:	8082                	ret

080019c8 <rcu_clock_freq_get>:
    uint32_t cksys_freq, ahb_freq, apb1_freq, apb2_freq;
    uint32_t pllsel, predv0sel, pllmf,ck_src, idx, clk_exp;
    uint32_t predv0, predv1, pll1mf;

    /* exponent of AHB, APB1 and APB2 clock divider */
    uint8_t ahb_exp[16] = {0, 0, 0, 0, 0, 0, 0, 0, 1, 2, 3, 4, 6, 7, 8, 9};
 80019c8:	040307b7          	lui	a5,0x4030
 80019cc:	09080737          	lui	a4,0x9080
{
 80019d0:	1101                	addi	sp,sp,-32
    uint8_t ahb_exp[16] = {0, 0, 0, 0, 0, 0, 0, 0, 1, 2, 3, 4, 6, 7, 8, 9};
 80019d2:	20178793          	addi	a5,a5,513 # 4030201 <__stack_size+0x402f201>
 80019d6:	70670713          	addi	a4,a4,1798 # 9080706 <__fini_array_end+0x107395e>
 80019da:	cc3e                	sw	a5,24(sp)
    uint8_t apb1_exp[8] = {0, 0, 0, 0, 1, 2, 3, 4};
 80019dc:	c23e                	sw	a5,4(sp)
    uint8_t apb2_exp[8] = {0, 0, 0, 0, 1, 2, 3, 4};
 80019de:	c63e                	sw	a5,12(sp)
    uint8_t ahb_exp[16] = {0, 0, 0, 0, 0, 0, 0, 0, 1, 2, 3, 4, 6, 7, 8, 9};
 80019e0:	c802                	sw	zero,16(sp)
 80019e2:	ca02                	sw	zero,20(sp)
 80019e4:	ce3a                	sw	a4,28(sp)
    uint8_t apb1_exp[8] = {0, 0, 0, 0, 1, 2, 3, 4};
 80019e6:	c002                	sw	zero,0(sp)
    uint8_t apb2_exp[8] = {0, 0, 0, 0, 1, 2, 3, 4};
 80019e8:	c402                	sw	zero,8(sp)

    sws = GET_BITS(RCU_CFG0, 2, 3);
 80019ea:	400216b7          	lui	a3,0x40021
 80019ee:	42d8                	lw	a4,4(a3)
    switch(sws){
    /* IRC8M is selected as CK_SYS */
    case SEL_IRC8M:
        cksys_freq = IRC8M_VALUE;
 80019f0:	007a17b7          	lui	a5,0x7a1
    switch(sws){
 80019f4:	4609                	li	a2,2
    sws = GET_BITS(RCU_CFG0, 2, 3);
 80019f6:	8309                	srli	a4,a4,0x2
 80019f8:	8b0d                	andi	a4,a4,3
        cksys_freq = IRC8M_VALUE;
 80019fa:	20078793          	addi	a5,a5,512 # 7a1200 <__stack_size+0x7a0200>
    switch(sws){
 80019fe:	04c70d63          	beq	a4,a2,8001a58 <rcu_clock_freq_get+0x90>
        cksys_freq = IRC8M_VALUE;
        break;
    }

    /* calculate AHB clock frequency */
    idx = GET_BITS(RCU_CFG0, 4, 7);
 8001a02:	40021737          	lui	a4,0x40021
 8001a06:	4350                	lw	a2,4(a4)
    clk_exp = ahb_exp[idx];
    ahb_freq = cksys_freq >> clk_exp;
    
    /* calculate APB1 clock frequency */
    idx = GET_BITS(RCU_CFG0, 8, 10);
 8001a08:	4354                	lw	a3,4(a4)
    clk_exp = apb1_exp[idx];
    apb1_freq = ahb_freq >> clk_exp;
    
    /* calculate APB2 clock frequency */
    idx = GET_BITS(RCU_CFG0, 11, 13);
 8001a0a:	4358                	lw	a4,4(a4)
    idx = GET_BITS(RCU_CFG0, 4, 7);
 8001a0c:	8211                	srli	a2,a2,0x4
    clk_exp = ahb_exp[idx];
 8001a0e:	100c                	addi	a1,sp,32
    idx = GET_BITS(RCU_CFG0, 4, 7);
 8001a10:	8a3d                	andi	a2,a2,15
    clk_exp = ahb_exp[idx];
 8001a12:	962e                	add	a2,a2,a1
 8001a14:	ff064603          	lbu	a2,-16(a2)
    idx = GET_BITS(RCU_CFG0, 8, 10);
 8001a18:	82a1                	srli	a3,a3,0x8
    idx = GET_BITS(RCU_CFG0, 11, 13);
 8001a1a:	832d                	srli	a4,a4,0xb
    idx = GET_BITS(RCU_CFG0, 8, 10);
 8001a1c:	8a9d                	andi	a3,a3,7
    idx = GET_BITS(RCU_CFG0, 11, 13);
 8001a1e:	8b1d                	andi	a4,a4,7
    clk_exp = apb2_exp[idx];
 8001a20:	972e                	add	a4,a4,a1
    clk_exp = apb1_exp[idx];
 8001a22:	96ae                	add	a3,a3,a1
    apb2_freq = ahb_freq >> clk_exp;
    
    /* return the clocks frequency */
    switch(clock){
 8001a24:	4805                	li	a6,1
    ahb_freq = cksys_freq >> clk_exp;
 8001a26:	00c7d633          	srl	a2,a5,a2
    clk_exp = apb1_exp[idx];
 8001a2a:	fe06c583          	lbu	a1,-32(a3) # 40020fe0 <_sp+0x20018fe0>
    clk_exp = apb2_exp[idx];
 8001a2e:	fe874703          	lbu	a4,-24(a4) # 40020fe8 <_sp+0x20018fe8>
    switch(clock){
 8001a32:	0b050163          	beq	a0,a6,8001ad4 <rcu_clock_freq_get+0x10c>
 8001a36:	cd11                	beqz	a0,8001a52 <rcu_clock_freq_get+0x8a>
 8001a38:	4689                	li	a3,2
    apb1_freq = ahb_freq >> clk_exp;
 8001a3a:	00b657b3          	srl	a5,a2,a1
    switch(clock){
 8001a3e:	00d50a63          	beq	a0,a3,8001a52 <rcu_clock_freq_get+0x8a>
    uint32_t sws, ck_freq = 0U;
 8001a42:	1575                	addi	a0,a0,-3
 8001a44:	00153513          	seqz	a0,a0
    apb2_freq = ahb_freq >> clk_exp;
 8001a48:	00e657b3          	srl	a5,a2,a4
    uint32_t sws, ck_freq = 0U;
 8001a4c:	40a00533          	neg	a0,a0
 8001a50:	8fe9                	and	a5,a5,a0
        break;
    default:
        break;
    }
    return ck_freq;
}
 8001a52:	853e                	mv	a0,a5
 8001a54:	6105                	addi	sp,sp,32
 8001a56:	8082                	ret
        pllsel = (RCU_CFG0 & RCU_CFG0_PLLSEL);
 8001a58:	42d8                	lw	a4,4(a3)
        if(RCU_PLLSRC_HXTAL == pllsel) {
 8001a5a:	00f71613          	slli	a2,a4,0xf
 8001a5e:	06065f63          	bgez	a2,8001adc <rcu_clock_freq_get+0x114>
            predv0sel = (RCU_CFG1 & RCU_CFG1_PREDV0SEL);
 8001a62:	56d8                	lw	a4,44(a3)
            if(RCU_PREDV0SRC_CKPLL1 == predv0sel){
 8001a64:	00f71613          	slli	a2,a4,0xf
 8001a68:	02065863          	bgez	a2,8001a98 <rcu_clock_freq_get+0xd0>
                predv1 = (uint32_t)((RCU_CFG1 & RCU_CFG1_PREDV1) >> 4) + 1U;
 8001a6c:	56d8                	lw	a4,44(a3)
                pll1mf = (uint32_t)((RCU_CFG1 & RCU_CFG1_PLL1MF) >> 8) + 2U;
 8001a6e:	56dc                	lw	a5,44(a3)
                if(17U == pll1mf){
 8001a70:	4645                	li	a2,17
                predv1 = (uint32_t)((RCU_CFG1 & RCU_CFG1_PREDV1) >> 4) + 1U;
 8001a72:	00475693          	srli	a3,a4,0x4
                pll1mf = (uint32_t)((RCU_CFG1 & RCU_CFG1_PLL1MF) >> 8) + 2U;
 8001a76:	83a1                	srli	a5,a5,0x8
 8001a78:	8bbd                	andi	a5,a5,15
                predv1 = (uint32_t)((RCU_CFG1 & RCU_CFG1_PREDV1) >> 4) + 1U;
 8001a7a:	8abd                	andi	a3,a3,15
                pll1mf = (uint32_t)((RCU_CFG1 & RCU_CFG1_PLL1MF) >> 8) + 2U;
 8001a7c:	00278713          	addi	a4,a5,2
                predv1 = (uint32_t)((RCU_CFG1 & RCU_CFG1_PREDV1) >> 4) + 1U;
 8001a80:	0685                	addi	a3,a3,1
                if(17U == pll1mf){
 8001a82:	00c71363          	bne	a4,a2,8001a88 <rcu_clock_freq_get+0xc0>
                    pll1mf = 20U;
 8001a86:	4751                	li	a4,20
                ck_src = (ck_src / predv1) * pll1mf;
 8001a88:	007a17b7          	lui	a5,0x7a1
 8001a8c:	20078793          	addi	a5,a5,512 # 7a1200 <__stack_size+0x7a0200>
 8001a90:	02d7d7b3          	divu	a5,a5,a3
 8001a94:	02e787b3          	mul	a5,a5,a4
            predv0 = (RCU_CFG1 & RCU_CFG1_PREDV0) + 1U;
 8001a98:	40021737          	lui	a4,0x40021
 8001a9c:	5758                	lw	a4,44(a4)
        pllmf = GET_BITS(RCU_CFG0, 18, 21);
 8001a9e:	400216b7          	lui	a3,0x40021
            predv0 = (RCU_CFG1 & RCU_CFG1_PREDV0) + 1U;
 8001aa2:	8b3d                	andi	a4,a4,15
 8001aa4:	0705                	addi	a4,a4,1
            ck_src /= predv0;
 8001aa6:	02e7d7b3          	divu	a5,a5,a4
        pllmf = GET_BITS(RCU_CFG0, 18, 21);
 8001aaa:	42d8                	lw	a4,4(a3)
        if((RCU_CFG0 & RCU_CFG0_PLLMF_4)){
 8001aac:	42d4                	lw	a3,4(a3)
        pllmf = GET_BITS(RCU_CFG0, 18, 21);
 8001aae:	8349                	srli	a4,a4,0x12
        if((RCU_CFG0 & RCU_CFG0_PLLMF_4)){
 8001ab0:	00269613          	slli	a2,a3,0x2
        pllmf = GET_BITS(RCU_CFG0, 18, 21);
 8001ab4:	8b3d                	andi	a4,a4,15
        if((RCU_CFG0 & RCU_CFG0_PLLMF_4)){
 8001ab6:	04064163          	bltz	a2,8001af8 <rcu_clock_freq_get+0x130>
        if(pllmf < 15U){
 8001aba:	46bd                	li	a3,15
 8001abc:	04d70063          	beq	a4,a3,8001afc <rcu_clock_freq_get+0x134>
            pllmf += 2U;
 8001ac0:	0709                	addi	a4,a4,2
        if(15U == pllmf){
 8001ac2:	02d71e63          	bne	a4,a3,8001afe <rcu_clock_freq_get+0x136>
            cksys_freq = ck_src * 6U + ck_src / 2U;
 8001ac6:	00179713          	slli	a4,a5,0x1
 8001aca:	973e                	add	a4,a4,a5
 8001acc:	0706                	slli	a4,a4,0x1
 8001ace:	8385                	srli	a5,a5,0x1
 8001ad0:	97ba                	add	a5,a5,a4
 8001ad2:	bf05                	j	8001a02 <rcu_clock_freq_get+0x3a>
        ck_freq = ahb_freq;
 8001ad4:	87b2                	mv	a5,a2
}
 8001ad6:	853e                	mv	a0,a5
 8001ad8:	6105                	addi	sp,sp,32
 8001ada:	8082                	ret
        pllmf = GET_BITS(RCU_CFG0, 18, 21);
 8001adc:	400216b7          	lui	a3,0x40021
 8001ae0:	42d8                	lw	a4,4(a3)
        if((RCU_CFG0 & RCU_CFG0_PLLMF_4)){
 8001ae2:	42d4                	lw	a3,4(a3)
            ck_src = IRC8M_VALUE/2U;
 8001ae4:	003d17b7          	lui	a5,0x3d1
        pllmf = GET_BITS(RCU_CFG0, 18, 21);
 8001ae8:	8349                	srli	a4,a4,0x12
        if((RCU_CFG0 & RCU_CFG0_PLLMF_4)){
 8001aea:	00269613          	slli	a2,a3,0x2
            ck_src = IRC8M_VALUE/2U;
 8001aee:	90078793          	addi	a5,a5,-1792 # 3d0900 <__stack_size+0x3cf900>
        pllmf = GET_BITS(RCU_CFG0, 18, 21);
 8001af2:	8b3d                	andi	a4,a4,15
        if((RCU_CFG0 & RCU_CFG0_PLLMF_4)){
 8001af4:	fc0653e3          	bgez	a2,8001aba <rcu_clock_freq_get+0xf2>
            pllmf |= 0x10U;
 8001af8:	01076713          	ori	a4,a4,16
            pllmf += 1U;
 8001afc:	0705                	addi	a4,a4,1
        cksys_freq = ck_src * pllmf;
 8001afe:	02f707b3          	mul	a5,a4,a5
        if(15U == pllmf){
 8001b02:	b701                	j	8001a02 <rcu_clock_freq_get+0x3a>

08001b04 <gpio_init>:

    /* GPIO mode configuration */
    temp_mode = (uint32_t) (mode & ((uint32_t) 0x0FU));

    /* GPIO speed configuration */
    if (((uint32_t) 0x00U) != ((uint32_t) mode & ((uint32_t) 0x10U))) {
 8001b04:	0105f793          	andi	a5,a1,16
    temp_mode = (uint32_t) (mode & ((uint32_t) 0x0FU));
 8001b08:	00f5f893          	andi	a7,a1,15
    if (((uint32_t) 0x00U) != ((uint32_t) mode & ((uint32_t) 0x10U))) {
 8001b0c:	c399                	beqz	a5,8001b12 <gpio_init+0xe>
        /* output mode max speed:10MHz,2MHz,50MHz */
        temp_mode |= (uint32_t) speed;
 8001b0e:	00c8e8b3          	or	a7,a7,a2
{
 8001b12:	4781                	li	a5,0
    }

    /* configure the eight low port pins with GPIO_CTL0 */
    for (i = 0U; i < 8U; i++) {
        if ((1U << i) & pin) {
 8001b14:	4e85                	li	t4,1
            reg = GPIO_CTL0(gpio_periph);

            /* clear the specified pin mode bits */
            reg &= ~GPIO_MODE_MASK(i);
 8001b16:	4e3d                	li	t3,15
            /* set the specified pin mode bits */
            reg |= GPIO_MODE_SET(i, temp_mode);

            /* set IPD or IPU */
            if (GPIO_MODE_IPD == mode) {
 8001b18:	02800f93          	li	t6,40
                /* reset the corresponding OCTL bit */
                GPIO_BC(gpio_periph) = (uint32_t) ((1U << i) & pin);
            } else {
                /* set the corresponding OCTL bit */
                if (GPIO_MODE_IPU == mode) {
 8001b1c:	04800293          	li	t0,72
    for (i = 0U; i < 8U; i++) {
 8001b20:	4321                	li	t1,8
            reg = GPIO_CTL0(gpio_periph);
 8001b22:	00279613          	slli	a2,a5,0x2
        if ((1U << i) & pin) {
 8001b26:	00fe9733          	sll	a4,t4,a5
            reg &= ~GPIO_MODE_MASK(i);
 8001b2a:	00ce1833          	sll	a6,t3,a2
        if ((1U << i) & pin) {
 8001b2e:	8f75                	and	a4,a4,a3
            reg &= ~GPIO_MODE_MASK(i);
 8001b30:	fff84813          	not	a6,a6
            reg |= GPIO_MODE_SET(i, temp_mode);
 8001b34:	00c89633          	sll	a2,a7,a2
        if ((1U << i) & pin) {
 8001b38:	cf01                	beqz	a4,8001b50 <gpio_init+0x4c>
            reg = GPIO_CTL0(gpio_periph);
 8001b3a:	00052f03          	lw	t5,0(a0)
            reg &= ~GPIO_MODE_MASK(i);
 8001b3e:	01e87833          	and	a6,a6,t5
            reg |= GPIO_MODE_SET(i, temp_mode);
 8001b42:	01066633          	or	a2,a2,a6
            if (GPIO_MODE_IPD == mode) {
 8001b46:	05f58f63          	beq	a1,t6,8001ba4 <gpio_init+0xa0>
                if (GPIO_MODE_IPU == mode) {
 8001b4a:	04558963          	beq	a1,t0,8001b9c <gpio_init+0x98>
                    GPIO_BOP(gpio_periph) = (uint32_t) ((1U << i) & pin);
                }
            }
            /* set GPIO_CTL0 register */
            GPIO_CTL0(gpio_periph) = reg;
 8001b4e:	c110                	sw	a2,0(a0)
 8001b50:	0785                	addi	a5,a5,1
    for (i = 0U; i < 8U; i++) {
 8001b52:	fc6798e3          	bne	a5,t1,8001b22 <gpio_init+0x1e>
        }
    }
    /* configure the eight high port pins with GPIO_CTL1 */
    for (i = 8U; i < 16U; i++) {
        if ((1U << i) & pin) {
 8001b56:	4e85                	li	t4,1
            reg = GPIO_CTL1(gpio_periph);

            /* clear the specified pin mode bits */
            reg &= ~GPIO_MODE_MASK(i - 8U);
 8001b58:	4e3d                	li	t3,15
            /* set the specified pin mode bits */
            reg |= GPIO_MODE_SET(i - 8U, temp_mode);

            /* set IPD or IPU */
            if (GPIO_MODE_IPD == mode) {
 8001b5a:	02800f93          	li	t6,40
                /* reset the corresponding OCTL bit */
                GPIO_BC(gpio_periph) = (uint32_t) ((1U << i) & pin);
            } else {
                /* set the corresponding OCTL bit */
                if (GPIO_MODE_IPU == mode) {
 8001b5e:	04800293          	li	t0,72
    for (i = 8U; i < 16U; i++) {
 8001b62:	4341                	li	t1,16
            reg &= ~GPIO_MODE_MASK(i - 8U);
 8001b64:	00279713          	slli	a4,a5,0x2
 8001b68:	1701                	addi	a4,a4,-32
        if ((1U << i) & pin) {
 8001b6a:	00fe9633          	sll	a2,t4,a5
            reg &= ~GPIO_MODE_MASK(i - 8U);
 8001b6e:	00ee1833          	sll	a6,t3,a4
        if ((1U << i) & pin) {
 8001b72:	8e75                	and	a2,a2,a3
            reg &= ~GPIO_MODE_MASK(i - 8U);
 8001b74:	fff84813          	not	a6,a6
            reg |= GPIO_MODE_SET(i - 8U, temp_mode);
 8001b78:	00e89733          	sll	a4,a7,a4
        if ((1U << i) & pin) {
 8001b7c:	ce01                	beqz	a2,8001b94 <gpio_init+0x90>
            reg = GPIO_CTL1(gpio_periph);
 8001b7e:	00452f03          	lw	t5,4(a0)
            reg &= ~GPIO_MODE_MASK(i - 8U);
 8001b82:	01e87833          	and	a6,a6,t5
            reg |= GPIO_MODE_SET(i - 8U, temp_mode);
 8001b86:	01076733          	or	a4,a4,a6
            if (GPIO_MODE_IPD == mode) {
 8001b8a:	01f58f63          	beq	a1,t6,8001ba8 <gpio_init+0xa4>
                if (GPIO_MODE_IPU == mode) {
 8001b8e:	00558963          	beq	a1,t0,8001ba0 <gpio_init+0x9c>
                    GPIO_BOP(gpio_periph) = (uint32_t) ((1U << i) & pin);
                }
            }
            /* set GPIO_CTL1 register */
            GPIO_CTL1(gpio_periph) = reg;
 8001b92:	c158                	sw	a4,4(a0)
 8001b94:	0785                	addi	a5,a5,1
    for (i = 8U; i < 16U; i++) {
 8001b96:	fc6797e3          	bne	a5,t1,8001b64 <gpio_init+0x60>
        }
    }
}
 8001b9a:	8082                	ret
                    GPIO_BOP(gpio_periph) = (uint32_t) ((1U << i) & pin);
 8001b9c:	c918                	sw	a4,16(a0)
 8001b9e:	bf45                	j	8001b4e <gpio_init+0x4a>
                    GPIO_BOP(gpio_periph) = (uint32_t) ((1U << i) & pin);
 8001ba0:	c910                	sw	a2,16(a0)
 8001ba2:	bfc5                	j	8001b92 <gpio_init+0x8e>
                GPIO_BC(gpio_periph) = (uint32_t) ((1U << i) & pin);
 8001ba4:	c958                	sw	a4,20(a0)
 8001ba6:	b765                	j	8001b4e <gpio_init+0x4a>
                GPIO_BC(gpio_periph) = (uint32_t) ((1U << i) & pin);
 8001ba8:	c950                	sw	a2,20(a0)
 8001baa:	b7e5                	j	8001b92 <gpio_init+0x8e>

08001bac <SystemInit>:
*/
void SystemInit(void)
{
    /* reset the RCC clock configuration to the default reset state */
    /* enable IRC8M */
    RCU_CTL |= RCU_CTL_IRC8MEN;
 8001bac:	400217b7          	lui	a5,0x40021
 8001bb0:	4398                	lw	a4,0(a5)
    
    /* reset SCS, AHBPSC, APB1PSC, APB2PSC, ADCPSC, CKOUT0SEL bits */
    RCU_CFG0 &= ~(RCU_CFG0_SCS | RCU_CFG0_AHBPSC | RCU_CFG0_APB1PSC | RCU_CFG0_APB2PSC |
 8001bb2:	e0ff06b7          	lui	a3,0xe0ff0
 8001bb6:	06b1                	addi	a3,a3,12
    RCU_CTL |= RCU_CTL_IRC8MEN;
 8001bb8:	00176713          	ori	a4,a4,1
 8001bbc:	c398                	sw	a4,0(a5)
    RCU_CFG0 &= ~(RCU_CFG0_SCS | RCU_CFG0_AHBPSC | RCU_CFG0_APB1PSC | RCU_CFG0_APB2PSC |
 8001bbe:	43d8                	lw	a4,4(a5)
    RCU_CFG0 &= ~(RCU_CFG0_PLLSEL | RCU_CFG0_PREDV0_LSB | RCU_CFG0_PLLMF |
                  RCU_CFG0_USBFSPSC | RCU_CFG0_PLLMF_4);
    RCU_CFG1 = 0x00000000U;

    /* Reset HXTALEN, CKMEN, PLLEN, PLL1EN and PLL2EN bits */
    RCU_CTL &= ~(RCU_CTL_PLLEN | RCU_CTL_PLL1EN | RCU_CTL_PLL2EN | RCU_CTL_CKMEN | RCU_CTL_HXTALEN);
 8001bc0:	eaf70637          	lui	a2,0xeaf70
 8001bc4:	167d                	addi	a2,a2,-1
    RCU_CFG0 &= ~(RCU_CFG0_SCS | RCU_CFG0_AHBPSC | RCU_CFG0_APB1PSC | RCU_CFG0_APB2PSC |
 8001bc6:	8f75                	and	a4,a4,a3
 8001bc8:	c3d8                	sw	a4,4(a5)
    RCU_CTL &= ~(RCU_CTL_HXTALEN | RCU_CTL_CKMEN | RCU_CTL_PLLEN);
 8001bca:	4398                	lw	a4,0(a5)
 8001bcc:	fef706b7          	lui	a3,0xfef70
 8001bd0:	16fd                	addi	a3,a3,-1
 8001bd2:	8f75                	and	a4,a4,a3
 8001bd4:	c398                	sw	a4,0(a5)
    RCU_CTL &= ~(RCU_CTL_HXTALBPS);
 8001bd6:	4398                	lw	a4,0(a5)
 8001bd8:	fffc06b7          	lui	a3,0xfffc0
 8001bdc:	16fd                	addi	a3,a3,-1
 8001bde:	8f75                	and	a4,a4,a3
 8001be0:	c398                	sw	a4,0(a5)
    RCU_CFG0 &= ~(RCU_CFG0_PLLSEL | RCU_CFG0_PREDV0_LSB | RCU_CFG0_PLLMF |
 8001be2:	43d8                	lw	a4,4(a5)
 8001be4:	df0106b7          	lui	a3,0xdf010
 8001be8:	16fd                	addi	a3,a3,-1
 8001bea:	8f75                	and	a4,a4,a3
 8001bec:	c3d8                	sw	a4,4(a5)
    RCU_CFG1 = 0x00000000U;
 8001bee:	0207a623          	sw	zero,44(a5) # 4002102c <_sp+0x2001902c>
    RCU_CTL &= ~(RCU_CTL_PLLEN | RCU_CTL_PLL1EN | RCU_CTL_PLL2EN | RCU_CTL_CKMEN | RCU_CTL_HXTALEN);
 8001bf2:	4394                	lw	a3,0(a5)
    /* disable all interrupts */
    RCU_INT = 0x00FF0000U;
 8001bf4:	00ff0737          	lui	a4,0xff0
{
    uint32_t timeout   = 0U;
    uint32_t stab_flag = 0U;

    /* enable HXTAL */
    RCU_CTL |= RCU_CTL_HXTALEN;
 8001bf8:	65c1                	lui	a1,0x10
    RCU_CTL &= ~(RCU_CTL_PLLEN | RCU_CTL_PLL1EN | RCU_CTL_PLL2EN | RCU_CTL_CKMEN | RCU_CTL_HXTALEN);
 8001bfa:	8ef1                	and	a3,a3,a2
 8001bfc:	c394                	sw	a3,0(a5)
    RCU_INT = 0x00FF0000U;
 8001bfe:	c798                	sw	a4,8(a5)
    RCU_CTL |= RCU_CTL_HXTALEN;
 8001c00:	4398                	lw	a4,0(a5)
 8001c02:	fff58693          	addi	a3,a1,-1 # ffff <__stack_size+0xefff>

    /* wait until HXTAL is stable or the startup time is longer than HXTAL_STARTUP_TIMEOUT */
    do{
        timeout++;
        stab_flag = (RCU_CTL & RCU_CTL_HXTALSTB);
 8001c06:	40021637          	lui	a2,0x40021
    RCU_CTL |= RCU_CTL_HXTALEN;
 8001c0a:	8f4d                	or	a4,a4,a1
 8001c0c:	c398                	sw	a4,0(a5)
 8001c0e:	a011                	j	8001c12 <SystemInit+0x66>
    }while((0U == stab_flag) && (HXTAL_STARTUP_TIMEOUT != timeout));
 8001c10:	c699                	beqz	a3,8001c1e <SystemInit+0x72>
        stab_flag = (RCU_CTL & RCU_CTL_HXTALSTB);
 8001c12:	421c                	lw	a5,0(a2)
 8001c14:	16fd                	addi	a3,a3,-1
    }while((0U == stab_flag) && (HXTAL_STARTUP_TIMEOUT != timeout));
 8001c16:	00e79713          	slli	a4,a5,0xe
 8001c1a:	fe075be3          	bgez	a4,8001c10 <SystemInit+0x64>

    /* if fail */
    if(0U == (RCU_CTL & RCU_CTL_HXTALSTB)){
 8001c1e:	400217b7          	lui	a5,0x40021
 8001c22:	4398                	lw	a4,0(a5)
 8001c24:	00e71693          	slli	a3,a4,0xe
 8001c28:	0a06d063          	bgez	a3,8001cc8 <SystemInit+0x11c>
        }
    }

    /* HXTAL is stable */
    /* AHB = SYSCLK */
    RCU_CFG0 |= RCU_AHB_CKSYS_DIV1;
 8001c2c:	43d8                	lw	a4,4(a5)
    RCU_CFG0 |= RCU_APB2_CKAHB_DIV1;
    /* APB1 = AHB/2 */
    RCU_CFG0 |= RCU_APB1_CKAHB_DIV2;

    /* CK_PLL = (CK_PREDIV0) * 27 = 108 MHz */ 
    RCU_CFG0 &= ~(RCU_CFG0_PLLMF | RCU_CFG0_PLLMF_4);
 8001c2e:	dfc40637          	lui	a2,0xdfc40
 8001c32:	167d                	addi	a2,a2,-1
    RCU_CFG0 |= RCU_AHB_CKSYS_DIV1;
 8001c34:	c3d8                	sw	a4,4(a5)
    RCU_CFG0 |= RCU_APB2_CKAHB_DIV1;
 8001c36:	43d8                	lw	a4,4(a5)
		RCU_CFG1 |= (RCU_PREDV0SRC_HXTAL | RCU_PREDV0_DIV2 | RCU_PREDV1_DIV2 | RCU_PLL1_MUL20 | RCU_PLL2_MUL20);

		/* enable PLL1 */
		RCU_CTL |= RCU_CTL_PLL1EN;
		/* wait till PLL1 is ready */
		while(0U == (RCU_CTL & RCU_CTL_PLL1STB)){
 8001c38:	400216b7          	lui	a3,0x40021
    RCU_CFG0 |= RCU_APB2_CKAHB_DIV1;
 8001c3c:	c3d8                	sw	a4,4(a5)
    RCU_CFG0 |= RCU_APB1_CKAHB_DIV2;
 8001c3e:	43d8                	lw	a4,4(a5)
 8001c40:	40076713          	ori	a4,a4,1024
 8001c44:	c3d8                	sw	a4,4(a5)
    RCU_CFG0 &= ~(RCU_CFG0_PLLMF | RCU_CFG0_PLLMF_4);
 8001c46:	43d8                	lw	a4,4(a5)
 8001c48:	8f71                	and	a4,a4,a2
 8001c4a:	c3d8                	sw	a4,4(a5)
    RCU_CFG0 |= (RCU_PLLSRC_HXTAL | RCU_PLL_MUL27);
 8001c4c:	43d8                	lw	a4,4(a5)
 8001c4e:	20290637          	lui	a2,0x20290
 8001c52:	8f51                	or	a4,a4,a2
 8001c54:	c3d8                	sw	a4,4(a5)
		RCU_CFG1 &= ~(RCU_CFG1_PREDV0SEL | RCU_CFG1_PREDV1 | RCU_CFG1_PLL1MF | RCU_CFG1_PREDV0);
 8001c56:	57d8                	lw	a4,44(a5)
 8001c58:	763d                	lui	a2,0xfffef
 8001c5a:	8f71                	and	a4,a4,a2
 8001c5c:	d7d8                	sw	a4,44(a5)
		RCU_CFG1 |= (RCU_PREDV0SRC_HXTAL | RCU_PREDV0_DIV2 | RCU_PREDV1_DIV2 | RCU_PLL1_MUL20 | RCU_PLL2_MUL20);
 8001c5e:	57d8                	lw	a4,44(a5)
 8001c60:	6641                	lui	a2,0x10
 8001c62:	f1160613          	addi	a2,a2,-239 # ff11 <__stack_size+0xef11>
 8001c66:	8f51                	or	a4,a4,a2
 8001c68:	d7d8                	sw	a4,44(a5)
		RCU_CTL |= RCU_CTL_PLL1EN;
 8001c6a:	4398                	lw	a4,0(a5)
 8001c6c:	04000637          	lui	a2,0x4000
 8001c70:	8f51                	or	a4,a4,a2
 8001c72:	c398                	sw	a4,0(a5)
		while(0U == (RCU_CTL & RCU_CTL_PLL1STB)){
 8001c74:	429c                	lw	a5,0(a3)
 8001c76:	00479713          	slli	a4,a5,0x4
 8001c7a:	fe075de3          	bgez	a4,8001c74 <SystemInit+0xc8>
		}

		/* enable PLL2 */
		RCU_CTL |= RCU_CTL_PLL2EN;
 8001c7e:	429c                	lw	a5,0(a3)
 8001c80:	10000637          	lui	a2,0x10000
		/* wait till PLL1 is ready */
		while(0U == (RCU_CTL & RCU_CTL_PLL2STB)){
 8001c84:	40021737          	lui	a4,0x40021
		RCU_CTL |= RCU_CTL_PLL2EN;
 8001c88:	8fd1                	or	a5,a5,a2
 8001c8a:	c29c                	sw	a5,0(a3)
		while(0U == (RCU_CTL & RCU_CTL_PLL2STB)){
 8001c8c:	431c                	lw	a5,0(a4)
 8001c8e:	00279693          	slli	a3,a5,0x2
 8001c92:	fe06dde3          	bgez	a3,8001c8c <SystemInit+0xe0>
		}

    }
    /* enable PLL */
    RCU_CTL |= RCU_CTL_PLLEN;
 8001c96:	4314                	lw	a3,0(a4)
 8001c98:	01000637          	lui	a2,0x1000

    /* wait until PLL is stable */
    while(0U == (RCU_CTL & RCU_CTL_PLLSTB)){
 8001c9c:	400217b7          	lui	a5,0x40021
    RCU_CTL |= RCU_CTL_PLLEN;
 8001ca0:	8ed1                	or	a3,a3,a2
 8001ca2:	c314                	sw	a3,0(a4)
    while(0U == (RCU_CTL & RCU_CTL_PLLSTB)){
 8001ca4:	4398                	lw	a4,0(a5)
 8001ca6:	00671693          	slli	a3,a4,0x6
 8001caa:	fe06dde3          	bgez	a3,8001ca4 <SystemInit+0xf8>
    }

    /* select PLL as system clock */
    RCU_CFG0 &= ~RCU_CFG0_SCS;
 8001cae:	43d8                	lw	a4,4(a5)
    RCU_CFG0 |= RCU_CKSYSSRC_PLL;

    /* wait until PLL is selected as system clock */
    while(0U == (RCU_CFG0 & RCU_SCSS_PLL)){
 8001cb0:	400216b7          	lui	a3,0x40021
    RCU_CFG0 &= ~RCU_CFG0_SCS;
 8001cb4:	9b71                	andi	a4,a4,-4
 8001cb6:	c3d8                	sw	a4,4(a5)
    RCU_CFG0 |= RCU_CKSYSSRC_PLL;
 8001cb8:	43d8                	lw	a4,4(a5)
 8001cba:	00276713          	ori	a4,a4,2
 8001cbe:	c3d8                	sw	a4,4(a5)
    while(0U == (RCU_CFG0 & RCU_SCSS_PLL)){
 8001cc0:	42dc                	lw	a5,4(a3)
 8001cc2:	8ba1                	andi	a5,a5,8
 8001cc4:	dff5                	beqz	a5,8001cc0 <SystemInit+0x114>
}
 8001cc6:	8082                	ret
        }
 8001cc8:	a001                	j	8001cc8 <SystemInit+0x11c>

08001cca <_exit>:
#include "stub.h"


void _exit(int code)
{
  const char message[] = "\nProgram has exited with code:";
 8001cca:	080007b7          	lui	a5,0x8000
 8001cce:	28078793          	addi	a5,a5,640 # 8000280 <enable_mcycle_minstret+0x34>
 8001cd2:	0007af03          	lw	t5,0(a5)
 8001cd6:	0047ae83          	lw	t4,4(a5)
 8001cda:	0087ae03          	lw	t3,8(a5)
 8001cde:	00c7a303          	lw	t1,12(a5)
 8001ce2:	0107a883          	lw	a7,16(a5)
 8001ce6:	0147a803          	lw	a6,20(a5)
 8001cea:	4f94                	lw	a3,24(a5)
 8001cec:	01c7d703          	lhu	a4,28(a5)
 8001cf0:	01e7c783          	lbu	a5,30(a5)
{
 8001cf4:	7179                	addi	sp,sp,-48

  write(STDERR_FILENO, message, sizeof(message) - 1);
 8001cf6:	4679                	li	a2,30
{
 8001cf8:	d422                	sw	s0,40(sp)
  write(STDERR_FILENO, message, sizeof(message) - 1);
 8001cfa:	858a                	mv	a1,sp
{
 8001cfc:	842a                	mv	s0,a0
  write(STDERR_FILENO, message, sizeof(message) - 1);
 8001cfe:	4509                	li	a0,2
{
 8001d00:	d606                	sw	ra,44(sp)
  const char message[] = "\nProgram has exited with code:";
 8001d02:	c07a                	sw	t5,0(sp)
 8001d04:	c276                	sw	t4,4(sp)
 8001d06:	c472                	sw	t3,8(sp)
 8001d08:	c61a                	sw	t1,12(sp)
 8001d0a:	c846                	sw	a7,16(sp)
 8001d0c:	ca42                	sw	a6,20(sp)
 8001d0e:	cc36                	sw	a3,24(sp)
 8001d10:	00e11e23          	sh	a4,28(sp)
 8001d14:	00f10f23          	sb	a5,30(sp)
  write(STDERR_FILENO, message, sizeof(message) - 1);
 8001d18:	00004097          	auipc	ra,0x4
 8001d1c:	8ac080e7          	jalr	-1876(ra) # 80055c4 <write>
  write_hex(STDERR_FILENO, code);
 8001d20:	85a2                	mv	a1,s0
 8001d22:	4509                	li	a0,2
 8001d24:	00000097          	auipc	ra,0x0
 8001d28:	01e080e7          	jalr	30(ra) # 8001d42 <write_hex>
  write(STDERR_FILENO, "\n", 1);
 8001d2c:	080005b7          	lui	a1,0x8000
 8001d30:	4605                	li	a2,1
 8001d32:	2b058593          	addi	a1,a1,688 # 80002b0 <enable_mcycle_minstret+0x64>
 8001d36:	4509                	li	a0,2
 8001d38:	00004097          	auipc	ra,0x4
 8001d3c:	88c080e7          	jalr	-1908(ra) # 80055c4 <write>

  for (;;);
 8001d40:	a001                	j	8001d40 <_exit+0x76>

08001d42 <write_hex>:

#include <stdint.h>
#include <unistd.h>

void write_hex(int fd, unsigned long int hex)
{
 8001d42:	7179                	addi	sp,sp,-48
 8001d44:	ca56                	sw	s5,20(sp)
 8001d46:	8aae                	mv	s5,a1
  uint8_t ii;
  uint8_t jj;
  char towrite;
  write(fd , "0x", 2);
 8001d48:	080005b7          	lui	a1,0x8000
 8001d4c:	4609                	li	a2,2
 8001d4e:	2a058593          	addi	a1,a1,672 # 80002a0 <enable_mcycle_minstret+0x54>
{
 8001d52:	d422                	sw	s0,40(sp)
 8001d54:	d226                	sw	s1,36(sp)
 8001d56:	d04a                	sw	s2,32(sp)
 8001d58:	ce4e                	sw	s3,28(sp)
 8001d5a:	cc52                	sw	s4,24(sp)
 8001d5c:	d606                	sw	ra,44(sp)
 8001d5e:	8a2a                	mv	s4,a0
  write(fd , "0x", 2);
 8001d60:	4471                	li	s0,28
 8001d62:	00004097          	auipc	ra,0x4
 8001d66:	862080e7          	jalr	-1950(ra) # 80055c4 <write>
  for (ii = sizeof(unsigned long int) * 2 ; ii > 0; ii--) {
    jj = ii - 1;
    uint8_t digit = ((hex & (0xF << (jj*4))) >> (jj*4));
 8001d6a:	49bd                	li	s3,15
    towrite = digit < 0xA ? ('0' + digit) : ('A' +  (digit - 0xA));
 8001d6c:	4925                	li	s2,9
  for (ii = sizeof(unsigned long int) * 2 ; ii > 0; ii--) {
 8001d6e:	54f1                	li	s1,-4
 8001d70:	a005                	j	8001d90 <write_hex+0x4e>
    towrite = digit < 0xA ? ('0' + digit) : ('A' +  (digit - 0xA));
 8001d72:	0ff6f793          	andi	a5,a3,255
 8001d76:	1471                	addi	s0,s0,-4
    write(fd, &towrite, 1);
 8001d78:	4605                	li	a2,1
 8001d7a:	00f10593          	addi	a1,sp,15
 8001d7e:	8552                	mv	a0,s4
    towrite = digit < 0xA ? ('0' + digit) : ('A' +  (digit - 0xA));
 8001d80:	00f107a3          	sb	a5,15(sp)
    write(fd, &towrite, 1);
 8001d84:	00004097          	auipc	ra,0x4
 8001d88:	840080e7          	jalr	-1984(ra) # 80055c4 <write>
  for (ii = sizeof(unsigned long int) * 2 ; ii > 0; ii--) {
 8001d8c:	02940f63          	beq	s0,s1,8001dca <write_hex+0x88>
    uint8_t digit = ((hex & (0xF << (jj*4))) >> (jj*4));
 8001d90:	008997b3          	sll	a5,s3,s0
 8001d94:	0157f7b3          	and	a5,a5,s5
 8001d98:	0087d7b3          	srl	a5,a5,s0
 8001d9c:	0ff7f793          	andi	a5,a5,255
    towrite = digit < 0xA ? ('0' + digit) : ('A' +  (digit - 0xA));
 8001da0:	03078693          	addi	a3,a5,48
 8001da4:	03778713          	addi	a4,a5,55
 8001da8:	fcf975e3          	bgeu	s2,a5,8001d72 <write_hex+0x30>
 8001dac:	0ff77793          	andi	a5,a4,255
 8001db0:	1471                	addi	s0,s0,-4
    write(fd, &towrite, 1);
 8001db2:	4605                	li	a2,1
 8001db4:	00f10593          	addi	a1,sp,15
 8001db8:	8552                	mv	a0,s4
    towrite = digit < 0xA ? ('0' + digit) : ('A' +  (digit - 0xA));
 8001dba:	00f107a3          	sb	a5,15(sp)
    write(fd, &towrite, 1);
 8001dbe:	00004097          	auipc	ra,0x4
 8001dc2:	806080e7          	jalr	-2042(ra) # 80055c4 <write>
  for (ii = sizeof(unsigned long int) * 2 ; ii > 0; ii--) {
 8001dc6:	fc9415e3          	bne	s0,s1,8001d90 <write_hex+0x4e>
  }
}
 8001dca:	50b2                	lw	ra,44(sp)
 8001dcc:	5422                	lw	s0,40(sp)
 8001dce:	5492                	lw	s1,36(sp)
 8001dd0:	5902                	lw	s2,32(sp)
 8001dd2:	49f2                	lw	s3,28(sp)
 8001dd4:	4a62                	lw	s4,24(sp)
 8001dd6:	4ad2                	lw	s5,20(sp)
 8001dd8:	6145                	addi	sp,sp,48
 8001dda:	8082                	ret

08001ddc <_sbrk>:
{
  extern char _end[];
  extern char _heap_end[];
  static char *curbrk = _end;

  if ((curbrk + incr < _end) || (curbrk + incr > _heap_end))
 8001ddc:	200017b7          	lui	a5,0x20001
 8001de0:	9a478793          	addi	a5,a5,-1628 # 200009a4 <curbrk.1524>
 8001de4:	4394                	lw	a3,0(a5)
 8001de6:	20001737          	lui	a4,0x20001
 8001dea:	21870713          	addi	a4,a4,536 # 20001218 <_end>
 8001dee:	9536                	add	a0,a0,a3
 8001df0:	00e56b63          	bltu	a0,a4,8001e06 <_sbrk+0x2a>
 8001df4:	20007737          	lui	a4,0x20007
 8001df8:	00070713          	mv	a4,a4
 8001dfc:	00a76563          	bltu	a4,a0,8001e06 <_sbrk+0x2a>
    return NULL - 1;

  curbrk += incr;
 8001e00:	c388                	sw	a0,0(a5)
  return curbrk - incr;
 8001e02:	8536                	mv	a0,a3
 8001e04:	8082                	ret
    return NULL - 1;
 8001e06:	56fd                	li	a3,-1
 8001e08:	8536                	mv	a0,a3
 8001e0a:	8082                	ret

08001e0c <get_timer_value>:
}


uint32_t mtime_hi(void)
{
  return *(volatile uint32_t *)(TIMER_CTRL_ADDR + TIMER_MTIME + 4);
 8001e0c:	d10007b7          	lui	a5,0xd1000
 8001e10:	43d8                	lw	a4,4(a5)
  return *(volatile uint32_t *)(TIMER_CTRL_ADDR + TIMER_MTIME);
 8001e12:	4388                	lw	a0,0(a5)
  return *(volatile uint32_t *)(TIMER_CTRL_ADDR + TIMER_MTIME + 4);
 8001e14:	43cc                	lw	a1,4(a5)
uint64_t get_timer_value(void)
{
  while (1) {
    uint32_t hi = mtime_hi();
    uint32_t lo = mtime_lo();
    if (hi == mtime_hi())
 8001e16:	fee59de3          	bne	a1,a4,8001e10 <get_timer_value+0x4>
      return ((uint64_t)hi << 32) | lo;
  }
}
 8001e1a:	8082                	ret

08001e1c <eclic_init>:
{

  typedef volatile uint32_t vuint32_t;

  /* clear cfg register */
  *(volatile uint8_t*)(ECLIC_ADDR_BASE+ECLIC_CFG_OFFSET)=0;
 8001e1c:	d2000737          	lui	a4,0xd2000
 8001e20:	00070023          	sb	zero,0(a4) # d2000000 <_sp+0xb1ff8000>

  /* clear all IP/IE/ATTR/CTRL bits for all interrupt sources */
  vuint32_t * ptr;

  vuint32_t * base = (vuint32_t*)(ECLIC_ADDR_BASE + ECLIC_INT_IP_OFFSET);
  vuint32_t * upper = (vuint32_t*)(base + num_irq*4);
 8001e24:	0512                	slli	a0,a0,0x4
 8001e26:	d20017b7          	lui	a5,0xd2001
  *(volatile uint8_t*)(ECLIC_ADDR_BASE+ECLIC_MTH_OFFSET)=0;
 8001e2a:	000705a3          	sb	zero,11(a4)
  vuint32_t * upper = (vuint32_t*)(base + num_irq*4);
 8001e2e:	953e                	add	a0,a0,a5

  for (ptr = base; ptr < upper; ptr=ptr+4){
 8001e30:	00a7f763          	bgeu	a5,a0,8001e3e <eclic_init+0x22>
    *ptr = 0;
 8001e34:	0007a023          	sw	zero,0(a5) # d2001000 <_sp+0xb1ff9000>
  for (ptr = base; ptr < upper; ptr=ptr+4){
 8001e38:	07c1                	addi	a5,a5,16
 8001e3a:	fea7ede3          	bltu	a5,a0,8001e34 <eclic_init+0x18>
  }
}
 8001e3e:	8082                	ret

08001e40 <eclic_enable_interrupt>:

void eclic_enable_interrupt (uint32_t source) {
    *(volatile uint8_t*)(ECLIC_ADDR_BASE+ECLIC_INT_IE_OFFSET+source*4) = 1;
 8001e40:	d20017b7          	lui	a5,0xd2001
 8001e44:	0785                	addi	a5,a5,1
 8001e46:	050a                	slli	a0,a0,0x2
 8001e48:	953e                	add	a0,a0,a5
 8001e4a:	4785                	li	a5,1
 8001e4c:	00f50023          	sb	a5,0(a0)
}
 8001e50:	8082                	ret

08001e52 <eclic_set_nlbits>:
void eclic_set_cliccfg (uint8_t cliccfg){
  *(volatile uint8_t*)(ECLIC_ADDR_BASE+ECLIC_CFG_OFFSET) = cliccfg;
}

uint8_t eclic_get_cliccfg (void){
  return *(volatile uint8_t*)(ECLIC_ADDR_BASE+ECLIC_CFG_OFFSET);
 8001e52:	d2000737          	lui	a4,0xd2000
 8001e56:	00074783          	lbu	a5,0(a4) # d2000000 <_sp+0xb1ff8000>
}

/* sets nlbits */
void eclic_set_nlbits(uint8_t nlbits) {
  /* shift nlbits to correct position */
  uint8_t nlbits_shifted = nlbits << ECLIC_CFG_NLBITS_LSB;
 8001e5a:	0506                	slli	a0,a0,0x1

  /* read the current cliccfg */ 
  uint8_t old_cliccfg = eclic_get_cliccfg();
  uint8_t new_cliccfg = (old_cliccfg & (~ECLIC_CFG_NLBITS_MASK)) | (ECLIC_CFG_NLBITS_MASK & nlbits_shifted); 
 8001e5c:	8979                	andi	a0,a0,30
 8001e5e:	0e17f793          	andi	a5,a5,225
 8001e62:	8d5d                	or	a0,a0,a5
  *(volatile uint8_t*)(ECLIC_ADDR_BASE+ECLIC_CFG_OFFSET) = cliccfg;
 8001e64:	00a70023          	sb	a0,0(a4)

  eclic_set_cliccfg(new_cliccfg);
}
 8001e68:	8082                	ret

08001e6a <eclic_set_irq_lvl_abs>:
  return *(volatile uint8_t*)(ECLIC_ADDR_BASE+ECLIC_CFG_OFFSET);
 8001e6a:	d20007b7          	lui	a5,0xd2000
 8001e6e:	0007c703          	lbu	a4,0(a5) # d2000000 <_sp+0xb1ff8000>
  if (nlbits > ECLICINTCTLBITS) {
    nlbits = ECLICINTCTLBITS;
  }

  /* shift lvl_abs into correct bit position */
  uint8_t lvl = lvl_abs << (8-nlbits);
 8001e72:	4791                	li	a5,4
  nlbits = (nlbits & ECLIC_CFG_NLBITS_MASK) >> ECLIC_CFG_NLBITS_LSB;
 8001e74:	8305                	srli	a4,a4,0x1
 8001e76:	8b3d                	andi	a4,a4,15
  uint8_t lvl = lvl_abs << (8-nlbits);
 8001e78:	86ba                	mv	a3,a4
 8001e7a:	00e7f363          	bgeu	a5,a4,8001e80 <eclic_set_irq_lvl_abs+0x16>
 8001e7e:	4691                	li	a3,4
  return *(volatile uint8_t*)(ECLIC_ADDR_BASE+ECLIC_INT_CTRL_OFFSET+source*4);
 8001e80:	d20017b7          	lui	a5,0xd2001
 8001e84:	078d                	addi	a5,a5,3
 8001e86:	050a                	slli	a0,a0,0x2
 8001e88:	953e                	add	a0,a0,a5
 8001e8a:	00054783          	lbu	a5,0(a0)
  uint8_t lvl = lvl_abs << (8-nlbits);
 8001e8e:	0ff6f613          	andi	a2,a3,255
 8001e92:	4721                	li	a4,8
 
  /* write to clicintctrl */
  uint8_t current_intctrl = eclic_get_intctrl(source);
  /* shift intctrl left to mask off unused bits */
  current_intctrl = current_intctrl << nlbits;
 8001e94:	00d797b3          	sll	a5,a5,a3
  /* shift intctrl into correct bit position */
  current_intctrl = current_intctrl >> nlbits;
 8001e98:	0ff7f793          	andi	a5,a5,255
  uint8_t lvl = lvl_abs << (8-nlbits);
 8001e9c:	8f11                	sub	a4,a4,a2
  current_intctrl = current_intctrl >> nlbits;
 8001e9e:	40d7d7b3          	sra	a5,a5,a3
  uint8_t lvl = lvl_abs << (8-nlbits);
 8001ea2:	00e595b3          	sll	a1,a1,a4

  eclic_set_intctrl(source, (current_intctrl | lvl));
 8001ea6:	8fcd                	or	a5,a5,a1
 8001ea8:	0ff7f793          	andi	a5,a5,255
  *(volatile uint8_t*)(ECLIC_ADDR_BASE+ECLIC_INT_CTRL_OFFSET+source*4) = intctrl;
 8001eac:	00f50023          	sb	a5,0(a0)
}
 8001eb0:	8082                	ret

08001eb2 <eclic_set_irq_priority>:
  return *(volatile uint8_t*)(ECLIC_ADDR_BASE+ECLIC_CFG_OFFSET);
 8001eb2:	d20007b7          	lui	a5,0xd2000
 8001eb6:	0007c703          	lbu	a4,0(a5) # d2000000 <_sp+0xb1ff8000>
  nlbits = (nlbits & ECLIC_CFG_NLBITS_MASK) >> ECLIC_CFG_NLBITS_LSB;
 8001eba:	8305                	srli	a4,a4,0x1

/* sets an interrupt priority based encoding of nlbits and ECLICINTCTLBITS */
uint8_t eclic_set_irq_priority(uint32_t source, uint8_t priority) {
    /* extract nlbits */
    uint8_t nlbits = eclic_get_nlbits();
    if (nlbits >= ECLICINTCTLBITS) {
 8001ebc:	00c77793          	andi	a5,a4,12
 8001ec0:	ef85                	bnez	a5,8001ef8 <eclic_set_irq_priority+0x46>
  return *(volatile uint8_t*)(ECLIC_ADDR_BASE+ECLIC_INT_CTRL_OFFSET+source*4);
 8001ec2:	d20016b7          	lui	a3,0xd2001
 8001ec6:	050a                	slli	a0,a0,0x2
 8001ec8:	068d                	addi	a3,a3,3
 8001eca:	96aa                	add	a3,a3,a0
 8001ecc:	0006c783          	lbu	a5,0(a3) # d2001000 <_sp+0xb1ff9000>
    priority = priority << (8 - ECLICINTCTLBITS);

    /* write to eclicintctrl */
    uint8_t current_intctrl = eclic_get_intctrl(source);
    /* shift intctrl right to mask off unused bits */
    current_intctrl = current_intctrl >> (8-nlbits);
 8001ed0:	4621                	li	a2,8
 8001ed2:	8b3d                	andi	a4,a4,15
 8001ed4:	40e60733          	sub	a4,a2,a4
 8001ed8:	40e7d7b3          	sra	a5,a5,a4
    priority = priority << (8 - ECLICINTCTLBITS);
 8001edc:	00459513          	slli	a0,a1,0x4
    /* shift intctrl into correct bit position */
    current_intctrl = current_intctrl << (8-nlbits);
 8001ee0:	0ff7f793          	andi	a5,a5,255
    priority = priority << (8 - ECLICINTCTLBITS);
 8001ee4:	0ff57513          	andi	a0,a0,255
    current_intctrl = current_intctrl << (8-nlbits);
 8001ee8:	00e797b3          	sll	a5,a5,a4

    eclic_set_intctrl(source, (current_intctrl | priority));
 8001eec:	8fc9                	or	a5,a5,a0
 8001eee:	0ff7f793          	andi	a5,a5,255
  *(volatile uint8_t*)(ECLIC_ADDR_BASE+ECLIC_INT_CTRL_OFFSET+source*4) = intctrl;
 8001ef2:	00f68023          	sb	a5,0(a3)

    return priority;
 8001ef6:	8082                	ret
        return 0;
 8001ef8:	4501                	li	a0,0
}
 8001efa:	8082                	ret

08001efc <eclic_mode_enable>:
  uint32_t mtvec_value = read_csr(CSR_MTVEC);
  mtvec_value = mtvec_value & 0xFFFFFFC0;
  mtvec_value = mtvec_value | 0x00000003;
  write_csr(CSR_MTVEC,mtvec_value);
#elif defined ( __GNUC__ )
  uint32_t mtvec_value = read_csr(mtvec);
 8001efc:	305027f3          	csrr	a5,mtvec
  mtvec_value = mtvec_value & 0xFFFFFFC0;
 8001f00:	fc07f793          	andi	a5,a5,-64
  mtvec_value = mtvec_value | 0x00000003;
 8001f04:	0037e793          	ori	a5,a5,3
  write_csr(mtvec,mtvec_value);
 8001f08:	30579073          	csrw	mtvec,a5
#endif

}
 8001f0c:	8082                	ret

08001f0e <handle_nmi>:
#include "riscv_encoding.h"
#include "n200_func.h"

__attribute__((weak)) uintptr_t handle_nmi()
{
  write(1, "nmi\n", 5);
 8001f0e:	080005b7          	lui	a1,0x8000
{
 8001f12:	1141                	addi	sp,sp,-16
  write(1, "nmi\n", 5);
 8001f14:	4615                	li	a2,5
 8001f16:	2a458593          	addi	a1,a1,676 # 80002a4 <enable_mcycle_minstret+0x58>
 8001f1a:	4505                	li	a0,1
{
 8001f1c:	c606                	sw	ra,12(sp)
  write(1, "nmi\n", 5);
 8001f1e:	00003097          	auipc	ra,0x3
 8001f22:	6a6080e7          	jalr	1702(ra) # 80055c4 <write>
  _exit(1);
 8001f26:	4505                	li	a0,1
 8001f28:	00000097          	auipc	ra,0x0
 8001f2c:	da2080e7          	jalr	-606(ra) # 8001cca <_exit>

08001f30 <handle_trap>:
  return 0;
}


__attribute__((weak)) uintptr_t handle_trap(uintptr_t mcause, uintptr_t sp)
{
 8001f30:	1141                	addi	sp,sp,-16
  if((mcause & 0xFFF) == 0xFFF) {
 8001f32:	fff54793          	not	a5,a0
{
 8001f36:	c422                	sw	s0,8(sp)
 8001f38:	c606                	sw	ra,12(sp)
  if((mcause & 0xFFF) == 0xFFF) {
 8001f3a:	01479713          	slli	a4,a5,0x14
{
 8001f3e:	842a                	mv	s0,a0
  if((mcause & 0xFFF) == 0xFFF) {
 8001f40:	c305                	beqz	a4,8001f60 <handle_trap+0x30>
      handle_nmi();
  }
  write(1, "trap\n", 5);
 8001f42:	080005b7          	lui	a1,0x8000
 8001f46:	4615                	li	a2,5
 8001f48:	2ac58593          	addi	a1,a1,684 # 80002ac <enable_mcycle_minstret+0x60>
 8001f4c:	4505                	li	a0,1
 8001f4e:	00003097          	auipc	ra,0x3
 8001f52:	676080e7          	jalr	1654(ra) # 80055c4 <write>
  //printf("In trap handler, the mcause is %d\n", mcause);
  //printf("In trap handler, the mepc is 0x%x\n", read_csr(mepc));
  //printf("In trap handler, the mtval is 0x%x\n", read_csr(mbadaddr));
  _exit(mcause);
 8001f56:	8522                	mv	a0,s0
 8001f58:	00000097          	auipc	ra,0x0
 8001f5c:	d72080e7          	jalr	-654(ra) # 8001cca <_exit>
      handle_nmi();
 8001f60:	00000097          	auipc	ra,0x0
 8001f64:	fae080e7          	jalr	-82(ra) # 8001f0e <handle_nmi>
 8001f68:	bfe9                	j	8001f42 <handle_trap+0x12>

08001f6a <_init>:
#include "riscv_encoding.h"
#include "n200_func.h"

extern uint32_t disable_mcycle_minstret();
void _init()
{
 8001f6a:	1141                	addi	sp,sp,-16
 8001f6c:	c606                	sw	ra,12(sp)
	SystemInit();
 8001f6e:	00000097          	auipc	ra,0x0
 8001f72:	c3e080e7          	jalr	-962(ra) # 8001bac <SystemInit>

	//ECLIC init
	eclic_init(ECLIC_NUM_INTERRUPTS);
 8001f76:	05700513          	li	a0,87
 8001f7a:	00000097          	auipc	ra,0x0
 8001f7e:	ea2080e7          	jalr	-350(ra) # 8001e1c <eclic_init>
	eclic_mode_enable();
 8001f82:	00000097          	auipc	ra,0x0
 8001f86:	f7a080e7          	jalr	-134(ra) # 8001efc <eclic_mode_enable>
	//switch_m2u_mode();
	
    /* Before enter into main, add the cycle/instret disable by default to save power,
    only use them when needed to measure the cycle/instret */
	disable_mcycle_minstret();
}
 8001f8a:	40b2                	lw	ra,12(sp)
 8001f8c:	0141                	addi	sp,sp,16
	disable_mcycle_minstret();
 8001f8e:	ffffe317          	auipc	t1,0xffffe
 8001f92:	2b830067          	jr	696(t1) # 8000246 <disable_mcycle_minstret>

08001f96 <_fini>:

void _fini()
{
}
 8001f96:	8082                	ret

08001f98 <lio_init_bt>:
char rx_dma_buffer[LIO_BT_BUFFER_SIZE] = {'\0'};
char tx_dma_buffer[LIO_BT_BUFFER_SIZE] = {'\0'};


void lio_init_bt()
{
 8001f98:	7179                	addi	sp,sp,-48
    dma_parameter_struct dma_init_struct;
    /* enable DMA0 */
    rcu_periph_clock_enable(RCU_DMA0);
 8001f9a:	50000513          	li	a0,1280
{
 8001f9e:	d606                	sw	ra,44(sp)
 8001fa0:	d422                	sw	s0,40(sp)
    rcu_periph_clock_enable(RCU_DMA0);
 8001fa2:	00000097          	auipc	ra,0x0
 8001fa6:	9da080e7          	jalr	-1574(ra) # 800197c <rcu_periph_clock_enable>
    /* initialize USART */
    rcu_periph_clock_enable(RCU_GPIOA);
 8001faa:	60200513          	li	a0,1538
 8001fae:	00000097          	auipc	ra,0x0
 8001fb2:	9ce080e7          	jalr	-1586(ra) # 800197c <rcu_periph_clock_enable>

    /* enable USART clock */
    rcu_periph_clock_enable(RCU_USART0);
 8001fb6:	60e00513          	li	a0,1550
 8001fba:	00000097          	auipc	ra,0x0
 8001fbe:	9c2080e7          	jalr	-1598(ra) # 800197c <rcu_periph_clock_enable>

    /* connect port to USARTx_Tx */
    gpio_init(GPIOA, GPIO_MODE_AF_PP, GPIO_OSPEED_50MHZ, GPIO_PIN_9);
 8001fc2:	40011437          	lui	s0,0x40011
 8001fc6:	80040513          	addi	a0,s0,-2048 # 40010800 <_sp+0x20008800>
 8001fca:	20000693          	li	a3,512
 8001fce:	460d                	li	a2,3
 8001fd0:	45e1                	li	a1,24
 8001fd2:	00000097          	auipc	ra,0x0
 8001fd6:	b32080e7          	jalr	-1230(ra) # 8001b04 <gpio_init>

    /* connect port to USARTx_Rx */
    gpio_init(GPIOA, GPIO_MODE_IN_FLOATING, GPIO_OSPEED_50MHZ, GPIO_PIN_10);
 8001fda:	40000693          	li	a3,1024
 8001fde:	460d                	li	a2,3
 8001fe0:	4591                	li	a1,4
 8001fe2:	80040513          	addi	a0,s0,-2048
 8001fe6:	00000097          	auipc	ra,0x0
 8001fea:	b1e080e7          	jalr	-1250(ra) # 8001b04 <gpio_init>

    /* USART configure */
    usart_deinit(USART0);
 8001fee:	40014437          	lui	s0,0x40014
 8001ff2:	80040513          	addi	a0,s0,-2048 # 40013800 <_sp+0x2000b800>
 8001ff6:	fffff097          	auipc	ra,0xfffff
 8001ffa:	524080e7          	jalr	1316(ra) # 800151a <usart_deinit>
    usart_baudrate_set(USART0, 115200U);
 8001ffe:	65f1                	lui	a1,0x1c
 8002000:	80040513          	addi	a0,s0,-2048
 8002004:	20058593          	addi	a1,a1,512 # 1c200 <__stack_size+0x1b200>
 8002008:	fffff097          	auipc	ra,0xfffff
 800200c:	5dc080e7          	jalr	1500(ra) # 80015e4 <usart_baudrate_set>
    usart_word_length_set(USART0, USART_WL_8BIT);
 8002010:	80040513          	addi	a0,s0,-2048
 8002014:	4581                	li	a1,0
 8002016:	fffff097          	auipc	ra,0xfffff
 800201a:	652080e7          	jalr	1618(ra) # 8001668 <usart_word_length_set>
    usart_stop_bit_set(USART0, USART_STB_1BIT);
 800201e:	80040513          	addi	a0,s0,-2048
 8002022:	4581                	li	a1,0
 8002024:	fffff097          	auipc	ra,0xfffff
 8002028:	656080e7          	jalr	1622(ra) # 800167a <usart_stop_bit_set>
    usart_parity_config(USART0, USART_PM_NONE);
 800202c:	80040513          	addi	a0,s0,-2048
 8002030:	4581                	li	a1,0
 8002032:	fffff097          	auipc	ra,0xfffff
 8002036:	626080e7          	jalr	1574(ra) # 8001658 <usart_parity_config>
    usart_hardware_flow_rts_config(USART0, USART_RTS_DISABLE);
 800203a:	80040513          	addi	a0,s0,-2048
 800203e:	4581                	li	a1,0
 8002040:	fffff097          	auipc	ra,0xfffff
 8002044:	66a080e7          	jalr	1642(ra) # 80016aa <usart_hardware_flow_rts_config>
    usart_hardware_flow_cts_config(USART0, USART_CTS_DISABLE);
 8002048:	80040513          	addi	a0,s0,-2048
 800204c:	4581                	li	a1,0
 800204e:	fffff097          	auipc	ra,0xfffff
 8002052:	668080e7          	jalr	1640(ra) # 80016b6 <usart_hardware_flow_cts_config>
    usart_receive_config(USART0, USART_RECEIVE_ENABLE);
 8002056:	80040513          	addi	a0,s0,-2048
 800205a:	4591                	li	a1,4
 800205c:	fffff097          	auipc	ra,0xfffff
 8002060:	644080e7          	jalr	1604(ra) # 80016a0 <usart_receive_config>
    usart_transmit_config(USART0, USART_TRANSMIT_ENABLE);
 8002064:	45a1                	li	a1,8
 8002066:	80040513          	addi	a0,s0,-2048
 800206a:	fffff097          	auipc	ra,0xfffff
 800206e:	62c080e7          	jalr	1580(ra) # 8001696 <usart_transmit_config>
    usart_enable(USART0);
 8002072:	80040513          	addi	a0,s0,-2048
 8002076:	fffff097          	auipc	ra,0xfffff
 800207a:	616080e7          	jalr	1558(ra) # 800168c <usart_enable>

    usart_dma_transmit_config(USART0, USART_DENT_ENABLE);
 800207e:	80040513          	addi	a0,s0,-2048
 8002082:	08000593          	li	a1,128
 8002086:	fffff097          	auipc	ra,0xfffff
 800208a:	648080e7          	jalr	1608(ra) # 80016ce <usart_dma_transmit_config>
    usart_dma_receive_config(USART0, USART_DENR_ENABLE);
 800208e:	80040513          	addi	a0,s0,-2048
 8002092:	04000593          	li	a1,64
 8002096:	fffff097          	auipc	ra,0xfffff
 800209a:	62c080e7          	jalr	1580(ra) # 80016c2 <usart_dma_receive_config>

   

    dma_deinit(DMA0, DMA_CH4);
 800209e:	4591                	li	a1,4
 80020a0:	40020537          	lui	a0,0x40020
 80020a4:	fffff097          	auipc	ra,0xfffff
 80020a8:	d26080e7          	jalr	-730(ra) # 8000dca <dma_deinit>
    dma_init_struct.direction = DMA_PERIPHERAL_TO_MEMORY;
    dma_init_struct.memory_addr = (uint32_t)rx_dma_buffer;
 80020ac:	200017b7          	lui	a5,0x20001
 80020b0:	9e078793          	addi	a5,a5,-1568 # 200009e0 <rx_dma_buffer>
 80020b4:	c63e                	sw	a5,12(sp)
    dma_init_struct.memory_inc = DMA_MEMORY_INCREASE_ENABLE;
    dma_init_struct.memory_width = DMA_MEMORY_WIDTH_8BIT;
    dma_init_struct.number = LIO_BT_BUFFER_SIZE;
 80020b6:	40000793          	li	a5,1024
 80020ba:	ca3e                	sw	a5,20(sp)
    dma_init_struct.periph_addr = (uint32_t)&USART_DATA(USART0);
    dma_init_struct.periph_inc = DMA_PERIPH_INCREASE_DISABLE;
    dma_init_struct.periph_width = DMA_PERIPHERAL_WIDTH_8BIT;
    dma_init_struct.priority = DMA_PRIORITY_ULTRA_HIGH;
 80020bc:	678d                	lui	a5,0x3
    dma_init(DMA0, DMA_CH4, &dma_init_struct);
 80020be:	0050                	addi	a2,sp,4
    dma_init_struct.priority = DMA_PRIORITY_ULTRA_HIGH;
 80020c0:	cc3e                	sw	a5,24(sp)
    dma_init(DMA0, DMA_CH4, &dma_init_struct);
 80020c2:	4591                	li	a1,4
    dma_init_struct.periph_inc = DMA_PERIPH_INCREASE_DISABLE;
 80020c4:	10000793          	li	a5,256
    dma_init(DMA0, DMA_CH4, &dma_init_struct);
 80020c8:	40020537          	lui	a0,0x40020
    dma_init_struct.periph_addr = (uint32_t)&USART_DATA(USART0);
 80020cc:	80440413          	addi	s0,s0,-2044
    dma_init_struct.periph_inc = DMA_PERIPH_INCREASE_DISABLE;
 80020d0:	00f11e23          	sh	a5,28(sp)
    dma_init_struct.periph_addr = (uint32_t)&USART_DATA(USART0);
 80020d4:	c222                	sw	s0,4(sp)
    dma_init_struct.periph_width = DMA_PERIPHERAL_WIDTH_8BIT;
 80020d6:	c402                	sw	zero,8(sp)
    dma_init_struct.memory_width = DMA_MEMORY_WIDTH_8BIT;
 80020d8:	c802                	sw	zero,16(sp)
    dma_init_struct.direction = DMA_PERIPHERAL_TO_MEMORY;
 80020da:	00010f23          	sb	zero,30(sp)
    dma_init(DMA0, DMA_CH4, &dma_init_struct);
 80020de:	fffff097          	auipc	ra,0xfffff
 80020e2:	d30080e7          	jalr	-720(ra) # 8000e0e <dma_init>
        /* configure DMA mode */
    dma_circulation_disable(DMA0, DMA_CH4);
 80020e6:	4591                	li	a1,4
 80020e8:	40020537          	lui	a0,0x40020
 80020ec:	fffff097          	auipc	ra,0xfffff
 80020f0:	de2080e7          	jalr	-542(ra) # 8000ece <dma_circulation_disable>
        /* enable DMA channel4 */
    dma_channel_enable(DMA0, DMA_CH4);
 80020f4:	4591                	li	a1,4
 80020f6:	40020537          	lui	a0,0x40020
 80020fa:	fffff097          	auipc	ra,0xfffff
 80020fe:	dfc080e7          	jalr	-516(ra) # 8000ef6 <dma_channel_enable>
}
 8002102:	50b2                	lw	ra,44(sp)
 8002104:	5422                	lw	s0,40(sp)
 8002106:	6145                	addi	sp,sp,48
 8002108:	8082                	ret

0800210a <lio_send_bt>:
    }
    return 0;
}

size_t lio_send_bt(char* message, uint32_t size)
{
 800210a:	7179                	addi	sp,sp,-48
 800210c:	d422                	sw	s0,40(sp)
 800210e:	d226                	sw	s1,36(sp)
 8002110:	d606                	sw	ra,44(sp)
 8002112:	200014b7          	lui	s1,0x20001
 8002116:	842e                	mv	s0,a1
 8002118:	de048493          	addi	s1,s1,-544 # 20000de0 <tx_dma_buffer>
    for(int i = 0; i < size && i < LIO_BT_BUFFER_SIZE; i++) {
 800211c:	c59d                	beqz	a1,800214a <lio_send_bt+0x40>
 800211e:	200017b7          	lui	a5,0x20001
 8002122:	00b506b3          	add	a3,a0,a1
 8002126:	de078493          	addi	s1,a5,-544 # 20000de0 <tx_dma_buffer>
 800212a:	16fd                	addi	a3,a3,-1
 800212c:	de078793          	addi	a5,a5,-544
 8002130:	40050613          	addi	a2,a0,1024 # 40020400 <_sp+0x20018400>
 8002134:	a021                	j	800213c <lio_send_bt+0x32>
 8002136:	0505                	addi	a0,a0,1
 8002138:	00c50963          	beq	a0,a2,800214a <lio_send_bt+0x40>
        tx_dma_buffer[i] = message[i];
 800213c:	00054703          	lbu	a4,0(a0)
 8002140:	0785                	addi	a5,a5,1
 8002142:	fee78fa3          	sb	a4,-1(a5)
    for(int i = 0; i < size && i < LIO_BT_BUFFER_SIZE; i++) {
 8002146:	fed518e3          	bne	a0,a3,8002136 <lio_send_bt+0x2c>
    }

    dma_parameter_struct dma_init_struct;
    dma_deinit(DMA0, DMA_CH3);
 800214a:	458d                	li	a1,3
 800214c:	40020537          	lui	a0,0x40020
 8002150:	fffff097          	auipc	ra,0xfffff
 8002154:	c7a080e7          	jalr	-902(ra) # 8000dca <dma_deinit>
    dma_init_struct.direction = DMA_MEMORY_TO_PERIPHERAL;
    dma_init_struct.memory_addr = (uint32_t)tx_dma_buffer;
    dma_init_struct.memory_inc = DMA_MEMORY_INCREASE_ENABLE;
    dma_init_struct.memory_width = DMA_MEMORY_WIDTH_8BIT;
    dma_init_struct.number = size;
    dma_init_struct.periph_addr = (uint32_t)&USART_DATA(USART0);
 8002158:	400147b7          	lui	a5,0x40014
 800215c:	80478793          	addi	a5,a5,-2044 # 40013804 <_sp+0x2000b804>
 8002160:	c23e                	sw	a5,4(sp)
    dma_init_struct.periph_inc = DMA_PERIPH_INCREASE_DISABLE;
    dma_init_struct.periph_width = DMA_PERIPHERAL_WIDTH_8BIT;
    dma_init_struct.priority = DMA_PRIORITY_ULTRA_HIGH;
 8002162:	678d                	lui	a5,0x3
 8002164:	cc3e                	sw	a5,24(sp)
    dma_init_struct.periph_inc = DMA_PERIPH_INCREASE_DISABLE;
 8002166:	10000793          	li	a5,256
    dma_init(DMA0, DMA_CH3, &dma_init_struct);
 800216a:	0050                	addi	a2,sp,4
    dma_init_struct.periph_inc = DMA_PERIPH_INCREASE_DISABLE;
 800216c:	00f11e23          	sh	a5,28(sp)
    dma_init(DMA0, DMA_CH3, &dma_init_struct);
 8002170:	458d                	li	a1,3
    dma_init_struct.direction = DMA_MEMORY_TO_PERIPHERAL;
 8002172:	4785                	li	a5,1
    dma_init(DMA0, DMA_CH3, &dma_init_struct);
 8002174:	40020537          	lui	a0,0x40020
    dma_init_struct.direction = DMA_MEMORY_TO_PERIPHERAL;
 8002178:	00f10f23          	sb	a5,30(sp)
    dma_init_struct.memory_addr = (uint32_t)tx_dma_buffer;
 800217c:	c626                	sw	s1,12(sp)
    dma_init_struct.number = size;
 800217e:	ca22                	sw	s0,20(sp)
    dma_init_struct.memory_width = DMA_MEMORY_WIDTH_8BIT;
 8002180:	c802                	sw	zero,16(sp)
    dma_init_struct.periph_width = DMA_PERIPHERAL_WIDTH_8BIT;
 8002182:	c402                	sw	zero,8(sp)
    dma_init(DMA0, DMA_CH3, &dma_init_struct);
 8002184:	fffff097          	auipc	ra,0xfffff
 8002188:	c8a080e7          	jalr	-886(ra) # 8000e0e <dma_init>
    /* configure DMA mode */
    dma_circulation_disable(DMA0, DMA_CH3);
 800218c:	458d                	li	a1,3
 800218e:	40020537          	lui	a0,0x40020
 8002192:	fffff097          	auipc	ra,0xfffff
 8002196:	d3c080e7          	jalr	-708(ra) # 8000ece <dma_circulation_disable>
    /* enable DMA channel3 */
    dma_channel_enable(DMA0, DMA_CH3);
 800219a:	40020537          	lui	a0,0x40020
 800219e:	458d                	li	a1,3
 80021a0:	fffff097          	auipc	ra,0xfffff
 80021a4:	d56080e7          	jalr	-682(ra) # 8000ef6 <dma_channel_enable>
}
 80021a8:	50b2                	lw	ra,44(sp)
 80021aa:	5422                	lw	s0,40(sp)
 80021ac:	5492                	lw	s1,36(sp)
 80021ae:	6145                	addi	sp,sp,48
 80021b0:	8082                	ret

080021b2 <write_handle_raw>:
void write_handle_raw(uint16_t handle, uint8_t* byte_data, uint8_t size){
 80021b2:	7155                	addi	sp,sp,-208
 80021b4:	c5a2                	sw	s0,200(sp)
 80021b6:	c3a6                	sw	s1,196(sp)
 80021b8:	c1ca                	sw	s2,192(sp)
 80021ba:	842e                	mv	s0,a1
 80021bc:	892a                	mv	s2,a0
	uint8_t string_buffer[128] = {'\0'};
 80021be:	4581                	li	a1,0
void write_handle_raw(uint16_t handle, uint8_t* byte_data, uint8_t size){
 80021c0:	84b2                	mv	s1,a2
	uint8_t string_buffer[128] = {'\0'};
 80021c2:	0088                	addi	a0,sp,64
 80021c4:	08000613          	li	a2,128
void write_handle_raw(uint16_t handle, uint8_t* byte_data, uint8_t size){
 80021c8:	c786                	sw	ra,204(sp)
	uint8_t string_buffer[128] = {'\0'};
 80021ca:	00001097          	auipc	ra,0x1
 80021ce:	30e080e7          	jalr	782(ra) # 80034d8 <memset>
	const uint8_t lut_hex[] = "0123456789ABCDEF";
 80021d2:	080007b7          	lui	a5,0x8000
 80021d6:	2c878793          	addi	a5,a5,712 # 80002c8 <enable_mcycle_minstret+0x7c>
 80021da:	438c                	lw	a1,0(a5)
 80021dc:	43d0                	lw	a2,4(a5)
 80021de:	4794                	lw	a3,8(a5)
 80021e0:	47d8                	lw	a4,12(a5)
 80021e2:	0107c783          	lbu	a5,16(a5)
	uint8_t data_buffer[(20*2)+1] = {'\0'};
 80021e6:	ca02                	sw	zero,20(sp)
 80021e8:	cc02                	sw	zero,24(sp)
 80021ea:	ce02                	sw	zero,28(sp)
 80021ec:	d002                	sw	zero,32(sp)
 80021ee:	d202                	sw	zero,36(sp)
 80021f0:	d402                	sw	zero,40(sp)
 80021f2:	d602                	sw	zero,44(sp)
 80021f4:	d802                	sw	zero,48(sp)
 80021f6:	da02                	sw	zero,52(sp)
 80021f8:	dc02                	sw	zero,56(sp)
 80021fa:	02010e23          	sb	zero,60(sp)
	const uint8_t lut_hex[] = "0123456789ABCDEF";
 80021fe:	c02e                	sw	a1,0(sp)
 8002200:	c232                	sw	a2,4(sp)
 8002202:	c436                	sw	a3,8(sp)
 8002204:	c63a                	sw	a4,12(sp)
 8002206:	00f10823          	sb	a5,16(sp)
	for(int i = 0; i < size; i++){
 800220a:	c895                	beqz	s1,800223e <write_handle_raw+0x8c>
 800220c:	85a2                	mv	a1,s0
 800220e:	01510713          	addi	a4,sp,21
 8002212:	00940533          	add	a0,s0,s1
		data_buffer[i*2] = lut_hex[byte_data[i] / 16];
 8002216:	0005c783          	lbu	a5,0(a1)
 800221a:	0194                	addi	a3,sp,192
 800221c:	0709                	addi	a4,a4,2
 800221e:	0047d613          	srli	a2,a5,0x4
		data_buffer[(i*2)+1] = lut_hex[byte_data[i] % 16];
 8002222:	8bbd                	andi	a5,a5,15
		data_buffer[i*2] = lut_hex[byte_data[i] / 16];
 8002224:	9636                	add	a2,a2,a3
		data_buffer[(i*2)+1] = lut_hex[byte_data[i] % 16];
 8002226:	97b6                	add	a5,a5,a3
		data_buffer[i*2] = lut_hex[byte_data[i] / 16];
 8002228:	f4064603          	lbu	a2,-192(a2) # ffff40 <__stack_size+0xffef40>
		data_buffer[(i*2)+1] = lut_hex[byte_data[i] % 16];
 800222c:	f407c783          	lbu	a5,-192(a5)
 8002230:	0585                	addi	a1,a1,1
		data_buffer[i*2] = lut_hex[byte_data[i] / 16];
 8002232:	fec70ea3          	sb	a2,-3(a4)
		data_buffer[(i*2)+1] = lut_hex[byte_data[i] % 16];
 8002236:	fef70f23          	sb	a5,-2(a4)
	for(int i = 0; i < size; i++){
 800223a:	fcb51ee3          	bne	a0,a1,8002216 <write_handle_raw+0x64>
	data_buffer[size*2] = '\0';
 800223e:	019c                	addi	a5,sp,192
 8002240:	0486                	slli	s1,s1,0x1
	sprintf(string_buffer, "%s%.4x,%s\r\n", commands[WRITE_HANDLE], handle, data_buffer);
 8002242:	08000637          	lui	a2,0x8000
 8002246:	080005b7          	lui	a1,0x8000
	data_buffer[size*2] = '\0';
 800224a:	94be                	add	s1,s1,a5
	sprintf(string_buffer, "%s%.4x,%s\r\n", commands[WRITE_HANDLE], handle, data_buffer);
 800224c:	0858                	addi	a4,sp,20
 800224e:	86ca                	mv	a3,s2
 8002250:	2b460613          	addi	a2,a2,692 # 80002b4 <enable_mcycle_minstret+0x68>
 8002254:	2bc58593          	addi	a1,a1,700 # 80002bc <enable_mcycle_minstret+0x70>
 8002258:	0088                	addi	a0,sp,64
	data_buffer[size*2] = '\0';
 800225a:	f4048a23          	sb	zero,-172(s1)
	sprintf(string_buffer, "%s%.4x,%s\r\n", commands[WRITE_HANDLE], handle, data_buffer);
 800225e:	00001097          	auipc	ra,0x1
 8002262:	368080e7          	jalr	872(ra) # 80035c6 <sprintf>
	lio_send_bt(string_buffer, strlen(string_buffer));
 8002266:	0088                	addi	a0,sp,64
 8002268:	00001097          	auipc	ra,0x1
 800226c:	3b2080e7          	jalr	946(ra) # 800361a <strlen>
 8002270:	85aa                	mv	a1,a0
 8002272:	0088                	addi	a0,sp,64
 8002274:	00000097          	auipc	ra,0x0
 8002278:	e96080e7          	jalr	-362(ra) # 800210a <lio_send_bt>
}
 800227c:	40be                	lw	ra,204(sp)
 800227e:	442e                	lw	s0,200(sp)
 8002280:	449e                	lw	s1,196(sp)
 8002282:	490e                	lw	s2,192(sp)
 8002284:	6169                	addi	sp,sp,208
 8002286:	8082                	ret

08002288 <rcu_config>:
{
 8002288:	1141                	addi	sp,sp,-16
    rcu_periph_clock_enable(RCU_ADC0);
 800228a:	60900513          	li	a0,1545
{
 800228e:	c606                	sw	ra,12(sp)
    rcu_periph_clock_enable(RCU_ADC0);
 8002290:	fffff097          	auipc	ra,0xfffff
 8002294:	6ec080e7          	jalr	1772(ra) # 800197c <rcu_periph_clock_enable>
	rcu_periph_clock_enable(RCU_DMA0);
 8002298:	50000513          	li	a0,1280
 800229c:	fffff097          	auipc	ra,0xfffff
 80022a0:	6e0080e7          	jalr	1760(ra) # 800197c <rcu_periph_clock_enable>
	rcu_periph_clock_enable(RCU_TIMER1);
 80022a4:	70000513          	li	a0,1792
 80022a8:	fffff097          	auipc	ra,0xfffff
 80022ac:	6d4080e7          	jalr	1748(ra) # 800197c <rcu_periph_clock_enable>
}
 80022b0:	40b2                	lw	ra,12(sp)
	rcu_periph_clock_enable(RCU_GPIOA);
 80022b2:	60200513          	li	a0,1538
}
 80022b6:	0141                	addi	sp,sp,16
	rcu_periph_clock_enable(RCU_GPIOA);
 80022b8:	fffff317          	auipc	t1,0xfffff
 80022bc:	6c430067          	jr	1732(t1) # 800197c <rcu_periph_clock_enable>

080022c0 <timer_config>:
{
 80022c0:	7179                	addi	sp,sp,-48
 80022c2:	d422                	sw	s0,40(sp)
 80022c4:	842a                	mv	s0,a0
    timer_deinit(TIMER1);
 80022c6:	40000537          	lui	a0,0x40000
{
 80022ca:	d606                	sw	ra,44(sp)
    timer_deinit(TIMER1);
 80022cc:	fffff097          	auipc	ra,0xfffff
 80022d0:	cfc080e7          	jalr	-772(ra) # 8000fc8 <timer_deinit>
    timer_struct_para_init(&timer_initpara);
 80022d4:	0808                	addi	a0,sp,16
 80022d6:	fffff097          	auipc	ra,0xfffff
 80022da:	e00080e7          	jalr	-512(ra) # 80010d6 <timer_struct_para_init>
    timer_initpara.prescaler         = 5399; //  108 000 000
 80022de:	6785                	lui	a5,0x1
    timer_init(TIMER1,&timer_initpara);
 80022e0:	080c                	addi	a1,sp,16
    timer_initpara.prescaler         = 5399; //  108 000 000
 80022e2:	51778793          	addi	a5,a5,1303 # 1517 <__stack_size+0x517>
    timer_init(TIMER1,&timer_initpara);
 80022e6:	40000537          	lui	a0,0x40000
    timer_initpara.prescaler         = 5399; //  108 000 000
 80022ea:	c83e                	sw	a5,16(sp)
    timer_initpara.period            = sample_rate;
 80022ec:	cc22                	sw	s0,24(sp)
    timer_initpara.counterdirection  = TIMER_COUNTER_UP;
 80022ee:	00011a23          	sh	zero,20(sp)
    timer_initpara.clockdivision     = TIMER_CKDIV_DIV1;
 80022f2:	00011e23          	sh	zero,28(sp)
    timer_initpara.repetitioncounter = 0;
 80022f6:	00010f23          	sb	zero,30(sp)
    timer_init(TIMER1,&timer_initpara);
 80022fa:	fffff097          	auipc	ra,0xfffff
 80022fe:	df4080e7          	jalr	-524(ra) # 80010ee <timer_init>
    timer_channel_output_struct_para_init(&timer_ocintpara);
 8002302:	0048                	addi	a0,sp,4
 8002304:	fffff097          	auipc	ra,0xfffff
 8002308:	ebe080e7          	jalr	-322(ra) # 80011c2 <timer_channel_output_struct_para_init>
    timer_ocintpara.outputstate = TIMER_CCX_ENABLE;
 800230c:	4785                	li	a5,1
    timer_channel_output_config(TIMER1, TIMER_CH_1, &timer_ocintpara);
 800230e:	0050                	addi	a2,sp,4
 8002310:	4585                	li	a1,1
 8002312:	40000537          	lui	a0,0x40000
    timer_ocintpara.outputstate = TIMER_CCX_ENABLE;
 8002316:	00f11223          	sh	a5,4(sp)
    timer_ocintpara.ocpolarity  = TIMER_OC_POLARITY_HIGH;
 800231a:	00011423          	sh	zero,8(sp)
    timer_channel_output_config(TIMER1, TIMER_CH_1, &timer_ocintpara);
 800231e:	fffff097          	auipc	ra,0xfffff
 8002322:	ebe080e7          	jalr	-322(ra) # 80011dc <timer_channel_output_config>
    timer_channel_output_pulse_value_config(TIMER1, TIMER_CH_1, 1);
 8002326:	4605                	li	a2,1
 8002328:	4585                	li	a1,1
 800232a:	40000537          	lui	a0,0x40000
 800232e:	fffff097          	auipc	ra,0xfffff
 8002332:	168080e7          	jalr	360(ra) # 8001496 <timer_channel_output_pulse_value_config>
    timer_channel_output_mode_config(TIMER1, TIMER_CH_1, TIMER_OC_MODE_PWM1);
 8002336:	07000613          	li	a2,112
 800233a:	4585                	li	a1,1
 800233c:	40000537          	lui	a0,0x40000
 8002340:	fffff097          	auipc	ra,0xfffff
 8002344:	0f8080e7          	jalr	248(ra) # 8001438 <timer_channel_output_mode_config>
    timer_channel_output_shadow_config(TIMER1, TIMER_CH_1, TIMER_OC_SHADOW_DISABLE);
 8002348:	4601                	li	a2,0
 800234a:	4585                	li	a1,1
 800234c:	40000537          	lui	a0,0x40000
 8002350:	fffff097          	auipc	ra,0xfffff
 8002354:	16c080e7          	jalr	364(ra) # 80014bc <timer_channel_output_shadow_config>
	timer_auto_reload_shadow_enable(TIMER1);
 8002358:	40000537          	lui	a0,0x40000
 800235c:	fffff097          	auipc	ra,0xfffff
 8002360:	e5c080e7          	jalr	-420(ra) # 80011b8 <timer_auto_reload_shadow_enable>
}
 8002364:	50b2                	lw	ra,44(sp)
 8002366:	5422                	lw	s0,40(sp)
 8002368:	6145                	addi	sp,sp,48
 800236a:	8082                	ret

0800236c <adc_config>:
	gpio_init(GPIOA, GPIO_MODE_AIN, GPIO_OSPEED_50MHZ, GPIO_PIN_0);
 800236c:	40011537          	lui	a0,0x40011
{
 8002370:	1141                	addi	sp,sp,-16
	gpio_init(GPIOA, GPIO_MODE_AIN, GPIO_OSPEED_50MHZ, GPIO_PIN_0);
 8002372:	4685                	li	a3,1
 8002374:	460d                	li	a2,3
 8002376:	4581                	li	a1,0
 8002378:	80050513          	addi	a0,a0,-2048 # 40010800 <_sp+0x20008800>
{
 800237c:	c606                	sw	ra,12(sp)
 800237e:	c422                	sw	s0,8(sp)
    adc_deinit(ADC0);
 8002380:	40012437          	lui	s0,0x40012
	gpio_init(GPIOA, GPIO_MODE_AIN, GPIO_OSPEED_50MHZ, GPIO_PIN_0);
 8002384:	fffff097          	auipc	ra,0xfffff
 8002388:	780080e7          	jalr	1920(ra) # 8001b04 <gpio_init>
    adc_deinit(ADC0);
 800238c:	40040513          	addi	a0,s0,1024 # 40012400 <_sp+0x2000a400>
 8002390:	fffff097          	auipc	ra,0xfffff
 8002394:	34a080e7          	jalr	842(ra) # 80016da <adc_deinit>
    adc_mode_config(ADC_MODE_FREE);
 8002398:	4501                	li	a0,0
 800239a:	fffff097          	auipc	ra,0xfffff
 800239e:	39a080e7          	jalr	922(ra) # 8001734 <adc_mode_config>
    adc_special_function_config(ADC0, ADC_SCAN_MODE, ENABLE);
 80023a2:	4605                	li	a2,1
 80023a4:	40040513          	addi	a0,s0,1024
 80023a8:	10000593          	li	a1,256
 80023ac:	fffff097          	auipc	ra,0xfffff
 80023b0:	3a8080e7          	jalr	936(ra) # 8001754 <adc_special_function_config>
    adc_data_alignment_config(ADC0, ADC_DATAALIGN_RIGHT);
 80023b4:	40040513          	addi	a0,s0,1024
 80023b8:	4581                	li	a1,0
 80023ba:	fffff097          	auipc	ra,0xfffff
 80023be:	3ec080e7          	jalr	1004(ra) # 80017a6 <adc_data_alignment_config>
    adc_channel_length_config(ADC0, ADC_REGULAR_CHANNEL, 1);
 80023c2:	40040513          	addi	a0,s0,1024
 80023c6:	4605                	li	a2,1
 80023c8:	4585                	li	a1,1
 80023ca:	fffff097          	auipc	ra,0xfffff
 80023ce:	434080e7          	jalr	1076(ra) # 80017fe <adc_channel_length_config>
    adc_regular_channel_config(ADC0, 0, ADC_CHANNEL_0, ADC_SAMPLETIME_55POINT5);
 80023d2:	4695                	li	a3,5
 80023d4:	40040513          	addi	a0,s0,1024
 80023d8:	4601                	li	a2,0
 80023da:	4581                	li	a1,0
 80023dc:	fffff097          	auipc	ra,0xfffff
 80023e0:	46c080e7          	jalr	1132(ra) # 8001848 <adc_regular_channel_config>
    adc_external_trigger_source_config(ADC0, ADC_REGULAR_CHANNEL, ADC0_1_EXTTRIG_REGULAR_T1_CH1); 
 80023e4:	40040513          	addi	a0,s0,1024
 80023e8:	00060637          	lui	a2,0x60
 80023ec:	4585                	li	a1,1
 80023ee:	fffff097          	auipc	ra,0xfffff
 80023f2:	516080e7          	jalr	1302(ra) # 8001904 <adc_external_trigger_source_config>
    adc_external_trigger_config(ADC0, ADC_REGULAR_CHANNEL, ENABLE);
 80023f6:	4605                	li	a2,1
 80023f8:	4585                	li	a1,1
 80023fa:	40040513          	addi	a0,s0,1024
 80023fe:	fffff097          	auipc	ra,0xfffff
 8002402:	53a080e7          	jalr	1338(ra) # 8001938 <adc_external_trigger_config>
	adc_dma_mode_enable(ADC0);
 8002406:	40040513          	addi	a0,s0,1024
 800240a:	fffff097          	auipc	ra,0xfffff
 800240e:	3ea080e7          	jalr	1002(ra) # 80017f4 <adc_dma_mode_enable>
    adc_enable(ADC0);
 8002412:	40040513          	addi	a0,s0,1024
 8002416:	fffff097          	auipc	ra,0xfffff
 800241a:	3ac080e7          	jalr	940(ra) # 80017c2 <adc_enable>
    delay_1ms(1);
 800241e:	4505                	li	a0,1
 8002420:	00000097          	auipc	ra,0x0
 8002424:	164080e7          	jalr	356(ra) # 8002584 <delay_1ms>
    adc_calibration_enable(ADC0);
 8002428:	40040513          	addi	a0,s0,1024
}
 800242c:	4422                	lw	s0,8(sp)
 800242e:	40b2                	lw	ra,12(sp)
 8002430:	0141                	addi	sp,sp,16
    adc_calibration_enable(ADC0);
 8002432:	fffff317          	auipc	t1,0xfffff
 8002436:	3a030067          	jr	928(t1) # 80017d2 <adc_calibration_enable>

0800243a <dma_config>:
{
 800243a:	7179                	addi	sp,sp,-48
 800243c:	d226                	sw	s1,36(sp)
	pSample_buffer = pBuffer;
 800243e:	200017b7          	lui	a5,0x20001
{
 8002442:	84aa                	mv	s1,a0
	pSample_buffer = pBuffer;
 8002444:	2097a623          	sw	s1,524(a5) # 2000120c <pSample_buffer>
    rcu_periph_clock_enable(RCU_DMA0); 
 8002448:	50000513          	li	a0,1280
	sample_buffer_size = samples;
 800244c:	200017b7          	lui	a5,0x20001
{
 8002450:	d606                	sw	ra,44(sp)
 8002452:	d422                	sw	s0,40(sp)
	sample_buffer_size = samples;
 8002454:	20b7a423          	sw	a1,520(a5) # 20001208 <sample_buffer_size>
{
 8002458:	842e                	mv	s0,a1
    rcu_periph_clock_enable(RCU_DMA0); 
 800245a:	fffff097          	auipc	ra,0xfffff
 800245e:	522080e7          	jalr	1314(ra) # 800197c <rcu_periph_clock_enable>
    dma_deinit(DMA0, DMA_CH0);
 8002462:	4581                	li	a1,0
 8002464:	40020537          	lui	a0,0x40020
 8002468:	fffff097          	auipc	ra,0xfffff
 800246c:	962080e7          	jalr	-1694(ra) # 8000dca <dma_deinit>
    dma_data_parameter.periph_addr  = (uint32_t)(&ADC_RDATA(ADC0));
 8002470:	400127b7          	lui	a5,0x40012
 8002474:	44c78793          	addi	a5,a5,1100 # 4001244c <_sp+0x2000a44c>
 8002478:	c23e                	sw	a5,4(sp)
    dma_data_parameter.memory_width = DMA_MEMORY_WIDTH_16BIT;  
 800247a:	40000793          	li	a5,1024
    dma_data_parameter.periph_width = DMA_PERIPHERAL_WIDTH_16BIT;
 800247e:	10000713          	li	a4,256
    dma_init(DMA0, DMA_CH0, &dma_data_parameter);
 8002482:	0050                	addi	a2,sp,4
    dma_data_parameter.memory_width = DMA_MEMORY_WIDTH_16BIT;  
 8002484:	c83e                	sw	a5,16(sp)
    dma_init(DMA0, DMA_CH0, &dma_data_parameter);
 8002486:	4581                	li	a1,0
    dma_data_parameter.priority     = DMA_PRIORITY_HIGH;
 8002488:	6789                	lui	a5,0x2
    dma_init(DMA0, DMA_CH0, &dma_data_parameter);
 800248a:	40020537          	lui	a0,0x40020
    dma_data_parameter.periph_width = DMA_PERIPHERAL_WIDTH_16BIT;
 800248e:	c43a                	sw	a4,8(sp)
    dma_data_parameter.priority     = DMA_PRIORITY_HIGH;
 8002490:	cc3e                	sw	a5,24(sp)
    dma_data_parameter.periph_inc   = DMA_PERIPH_INCREASE_DISABLE;
 8002492:	00e11e23          	sh	a4,28(sp)
    dma_data_parameter.memory_addr  = (uint32_t)(pBuffer);
 8002496:	c626                	sw	s1,12(sp)
    dma_data_parameter.number       = samples;
 8002498:	ca22                	sw	s0,20(sp)
    dma_data_parameter.direction    = DMA_PERIPHERAL_TO_MEMORY;
 800249a:	00010f23          	sb	zero,30(sp)
    dma_init(DMA0, DMA_CH0, &dma_data_parameter);
 800249e:	fffff097          	auipc	ra,0xfffff
 80024a2:	970080e7          	jalr	-1680(ra) # 8000e0e <dma_init>
	dma_interrupt_enable(DMA0, DMA_CH0, DMA_INT_FTF);
 80024a6:	4609                	li	a2,2
 80024a8:	4581                	li	a1,0
 80024aa:	40020537          	lui	a0,0x40020
 80024ae:	fffff097          	auipc	ra,0xfffff
 80024b2:	af4080e7          	jalr	-1292(ra) # 8000fa2 <dma_interrupt_enable>
	dma_interrupt_enable(DMA0, DMA_CH0, DMA_INT_HTF);
 80024b6:	4611                	li	a2,4
 80024b8:	4581                	li	a1,0
 80024ba:	40020537          	lui	a0,0x40020
 80024be:	fffff097          	auipc	ra,0xfffff
 80024c2:	ae4080e7          	jalr	-1308(ra) # 8000fa2 <dma_interrupt_enable>
    dma_circulation_enable(DMA0, DMA_CH0);
 80024c6:	4581                	li	a1,0
 80024c8:	40020537          	lui	a0,0x40020
 80024cc:	fffff097          	auipc	ra,0xfffff
 80024d0:	9da080e7          	jalr	-1574(ra) # 8000ea6 <dma_circulation_enable>
    dma_channel_enable(DMA0, DMA_CH0);
 80024d4:	4581                	li	a1,0
 80024d6:	40020537          	lui	a0,0x40020
 80024da:	fffff097          	auipc	ra,0xfffff
 80024de:	a1c080e7          	jalr	-1508(ra) # 8000ef6 <dma_channel_enable>
}
 80024e2:	50b2                	lw	ra,44(sp)
 80024e4:	5422                	lw	s0,40(sp)
 80024e6:	5492                	lw	s1,36(sp)
 80024e8:	6145                	addi	sp,sp,48
 80024ea:	8082                	ret

080024ec <config_clic_irqs>:
{
 80024ec:	1141                	addi	sp,sp,-16
 80024ee:	c606                	sw	ra,12(sp)
    eclic_global_interrupt_enable();
 80024f0:	fffff097          	auipc	ra,0xfffff
 80024f4:	892080e7          	jalr	-1902(ra) # 8000d82 <eclic_global_interrupt_enable>
    eclic_priority_group_set(ECLIC_PRIGROUP_LEVEL3_PRIO1);
 80024f8:	450d                	li	a0,3
 80024fa:	fffff097          	auipc	ra,0xfffff
 80024fe:	88e080e7          	jalr	-1906(ra) # 8000d88 <eclic_priority_group_set>
}
 8002502:	40b2                	lw	ra,12(sp)
    eclic_irq_enable(DMA0_Channel0_IRQn, 1, 1);
 8002504:	4605                	li	a2,1
 8002506:	4585                	li	a1,1
 8002508:	4579                	li	a0,30
}
 800250a:	0141                	addi	sp,sp,16
    eclic_irq_enable(DMA0_Channel0_IRQn, 1, 1);
 800250c:	fffff317          	auipc	t1,0xfffff
 8002510:	88430067          	jr	-1916(t1) # 8000d90 <eclic_irq_enable>

08002514 <DMA0_Channel0_IRQHandler>:
//it double buffers by using the halftime flag to 
//avoid memory corruption.


void DMA0_Channel0_IRQHandler(void)
{
 8002514:	1141                	addi	sp,sp,-16
	//If you want to do some transformation it's probably best to first copy the sample data.
	//Then perform transformation, and then send the transformed data array.

	//Since this is basically all of the code that is running on the MCU there should be a decent amount of time
	//to do calculations, although floats should probably be discouraged since no FPU is present.
    if(dma_interrupt_flag_get(DMA0, DMA_CH0, DMA_INT_FLAG_HTF)){ 
 8002516:	4611                	li	a2,4
 8002518:	4581                	li	a1,0
 800251a:	40020537          	lui	a0,0x40020
{
 800251e:	c606                	sw	ra,12(sp)
 8002520:	c422                	sw	s0,8(sp)
    if(dma_interrupt_flag_get(DMA0, DMA_CH0, DMA_INT_FLAG_HTF)){ 
 8002522:	fffff097          	auipc	ra,0xfffff
 8002526:	a0a080e7          	jalr	-1526(ra) # 8000f2c <dma_interrupt_flag_get>
 800252a:	c509                	beqz	a0,8002534 <DMA0_Channel0_IRQHandler+0x20>
		pSend_data = (uint8_t*)pSample_buffer;
 800252c:	200017b7          	lui	a5,0x20001
 8002530:	20c7a403          	lw	s0,524(a5) # 2000120c <pSample_buffer>
    }
	if(dma_interrupt_flag_get(DMA0, DMA_CH0, DMA_INT_FLAG_FTF)){ 
 8002534:	4609                	li	a2,2
 8002536:	4581                	li	a1,0
 8002538:	40020537          	lui	a0,0x40020
 800253c:	fffff097          	auipc	ra,0xfffff
 8002540:	9f0080e7          	jalr	-1552(ra) # 8000f2c <dma_interrupt_flag_get>
		pSend_data = (uint8_t*)(pSample_buffer+(sample_buffer_size/2));     
 8002544:	200017b7          	lui	a5,0x20001
 8002548:	2087a603          	lw	a2,520(a5) # 20001208 <sample_buffer_size>
	if(dma_interrupt_flag_get(DMA0, DMA_CH0, DMA_INT_FLAG_FTF)){ 
 800254c:	c901                	beqz	a0,800255c <DMA0_Channel0_IRQHandler+0x48>
		pSend_data = (uint8_t*)(pSample_buffer+(sample_buffer_size/2));     
 800254e:	200017b7          	lui	a5,0x20001
 8002552:	20c7a403          	lw	s0,524(a5) # 2000120c <pSample_buffer>
 8002556:	ffe67793          	andi	a5,a2,-2
 800255a:	943e                	add	s0,s0,a5
    }

	write_handle_raw(0x0074, pSend_data, sample_buffer_size);
 800255c:	85a2                	mv	a1,s0
 800255e:	0ff67613          	andi	a2,a2,255
 8002562:	07400513          	li	a0,116
 8002566:	00000097          	auipc	ra,0x0
 800256a:	c4c080e7          	jalr	-948(ra) # 80021b2 <write_handle_raw>
	dma_interrupt_flag_clear(DMA0, DMA_CH0, DMA_INT_FLAG_G);
}
 800256e:	4422                	lw	s0,8(sp)
 8002570:	40b2                	lw	ra,12(sp)
	dma_interrupt_flag_clear(DMA0, DMA_CH0, DMA_INT_FLAG_G);
 8002572:	4605                	li	a2,1
 8002574:	4581                	li	a1,0
 8002576:	40020537          	lui	a0,0x40020
}
 800257a:	0141                	addi	sp,sp,16
	dma_interrupt_flag_clear(DMA0, DMA_CH0, DMA_INT_FLAG_G);
 800257c:	fffff317          	auipc	t1,0xfffff
 8002580:	a1e30067          	jr	-1506(t1) # 8000f9a <dma_interrupt_flag_clear>

08002584 <delay_1ms>:
    \param[in]  count: count in milliseconds
    \param[out] none
    \retval     none
*/
void delay_1ms(uint32_t count)
{
 8002584:	7179                	addi	sp,sp,-48
 8002586:	d04a                	sw	s2,32(sp)
 8002588:	ce4e                	sw	s3,28(sp)
 800258a:	c65e                	sw	s7,12(sp)
 800258c:	d606                	sw	ra,44(sp)
 800258e:	d422                	sw	s0,40(sp)
 8002590:	d226                	sw	s1,36(sp)
 8002592:	cc52                	sw	s4,24(sp)
 8002594:	ca56                	sw	s5,20(sp)
 8002596:	c85a                	sw	s6,16(sp)
 8002598:	c462                	sw	s8,8(sp)
 800259a:	c266                	sw	s9,4(sp)
 800259c:	8baa                	mv	s7,a0
	uint64_t start_mtime, delta_mtime;

	// Don't start measuruing until we see an mtime tick
	uint64_t tmp = get_timer_value();
 800259e:	00000097          	auipc	ra,0x0
 80025a2:	86e080e7          	jalr	-1938(ra) # 8001e0c <get_timer_value>
 80025a6:	892a                	mv	s2,a0
 80025a8:	89ae                	mv	s3,a1
	do {
	start_mtime = get_timer_value();
 80025aa:	00000097          	auipc	ra,0x0
 80025ae:	862080e7          	jalr	-1950(ra) # 8001e0c <get_timer_value>
 80025b2:	842a                	mv	s0,a0
 80025b4:	84ae                	mv	s1,a1
	} while (start_mtime == tmp);
 80025b6:	00a91463          	bne	s2,a0,80025be <delay_1ms+0x3a>
 80025ba:	feb988e3          	beq	s3,a1,80025aa <delay_1ms+0x26>
 80025be:	080007b7          	lui	a5,0x8000

	do {
	delta_mtime = get_timer_value() - start_mtime;
	}while(delta_mtime <(SystemCoreClock/4000.0 *count ));
 80025c2:	2e07a903          	lw	s2,736(a5) # 80002e0 <enable_mcycle_minstret+0x94>
 80025c6:	2e47a983          	lw	s3,740(a5)
 80025ca:	20001b37          	lui	s6,0x20001
	delta_mtime = get_timer_value() - start_mtime;
 80025ce:	00000097          	auipc	ra,0x0
 80025d2:	83e080e7          	jalr	-1986(ra) # 8001e0c <get_timer_value>
 80025d6:	87aa                	mv	a5,a0
 80025d8:	8d01                	sub	a0,a0,s0
 80025da:	00a7b7b3          	sltu	a5,a5,a0
 80025de:	8d85                	sub	a1,a1,s1
	}while(delta_mtime <(SystemCoreClock/4000.0 *count ));
 80025e0:	8d9d                	sub	a1,a1,a5
 80025e2:	00001097          	auipc	ra,0x1
 80025e6:	c20080e7          	jalr	-992(ra) # 8003202 <__floatundidf>
 80025ea:	8a2a                	mv	s4,a0
 80025ec:	9a0b2503          	lw	a0,-1632(s6) # 200009a0 <SystemCoreClock>
 80025f0:	8aae                	mv	s5,a1
 80025f2:	00001097          	auipc	ra,0x1
 80025f6:	bba080e7          	jalr	-1094(ra) # 80031ac <__floatunsidf>
 80025fa:	864a                	mv	a2,s2
 80025fc:	86ce                	mv	a3,s3
 80025fe:	00000097          	auipc	ra,0x0
 8002602:	178080e7          	jalr	376(ra) # 8002776 <__divdf3>
 8002606:	8c2a                	mv	s8,a0
 8002608:	855e                	mv	a0,s7
 800260a:	8cae                	mv	s9,a1
 800260c:	00001097          	auipc	ra,0x1
 8002610:	ba0080e7          	jalr	-1120(ra) # 80031ac <__floatunsidf>
 8002614:	862a                	mv	a2,a0
 8002616:	86ae                	mv	a3,a1
 8002618:	8562                	mv	a0,s8
 800261a:	85e6                	mv	a1,s9
 800261c:	00000097          	auipc	ra,0x0
 8002620:	744080e7          	jalr	1860(ra) # 8002d60 <__muldf3>
 8002624:	862a                	mv	a2,a0
 8002626:	86ae                	mv	a3,a1
 8002628:	8552                	mv	a0,s4
 800262a:	85d6                	mv	a1,s5
 800262c:	00000097          	auipc	ra,0x0
 8002630:	690080e7          	jalr	1680(ra) # 8002cbc <__ledf2>
 8002634:	f8054de3          	bltz	a0,80025ce <delay_1ms+0x4a>
}
 8002638:	50b2                	lw	ra,44(sp)
 800263a:	5422                	lw	s0,40(sp)
 800263c:	5492                	lw	s1,36(sp)
 800263e:	5902                	lw	s2,32(sp)
 8002640:	49f2                	lw	s3,28(sp)
 8002642:	4a62                	lw	s4,24(sp)
 8002644:	4ad2                	lw	s5,20(sp)
 8002646:	4b42                	lw	s6,16(sp)
 8002648:	4bb2                	lw	s7,12(sp)
 800264a:	4c22                	lw	s8,8(sp)
 800264c:	4c92                	lw	s9,4(sp)
 800264e:	6145                	addi	sp,sp,48
 8002650:	8082                	ret
	...

08002680 <trap_entry>:
trap_entry:
  // Allocate the stack space
 // addi sp, sp, -19*REGBYTES

  // Save the caller saving registers (context)
  SAVE_CONTEXT
 8002680:	715d                	addi	sp,sp,-80
 8002682:	c006                	sw	ra,0(sp)
 8002684:	c212                	sw	tp,4(sp)
 8002686:	c416                	sw	t0,8(sp)
 8002688:	c61a                	sw	t1,12(sp)
 800268a:	c81e                	sw	t2,16(sp)
 800268c:	ca2a                	sw	a0,20(sp)
 800268e:	cc2e                	sw	a1,24(sp)
 8002690:	ce32                	sw	a2,28(sp)
 8002692:	d036                	sw	a3,32(sp)
 8002694:	d23a                	sw	a4,36(sp)
 8002696:	d43e                	sw	a5,40(sp)
 8002698:	d642                	sw	a6,44(sp)
 800269a:	d846                	sw	a7,48(sp)
 800269c:	da72                	sw	t3,52(sp)
 800269e:	dc76                	sw	t4,56(sp)
 80026a0:	de7a                	sw	t5,60(sp)
 80026a2:	c0fe                	sw	t6,64(sp)
  // Save the MEPC/Mstatus/Msubm reg
  SAVE_EPC_STATUS
 80026a4:	341022f3          	csrr	t0,mepc
 80026a8:	c096                	sw	t0,64(sp)
 80026aa:	300022f3          	csrr	t0,mstatus
 80026ae:	c296                	sw	t0,68(sp)
 80026b0:	7c4022f3          	csrr	t0,0x7c4
 80026b4:	c496                	sw	t0,72(sp)

     // Set the function argument
  csrr a0, mcause
 80026b6:	34202573          	csrr	a0,mcause
  mv a1, sp
 80026ba:	858a                	mv	a1,sp
     // Call the function
  call handle_trap
 80026bc:	00000097          	auipc	ra,0x0
 80026c0:	874080e7          	jalr	-1932(ra) # 8001f30 <handle_trap>

  // Restore the MEPC/Mstatus/Msubm reg
  RESTORE_EPC_STATUS
 80026c4:	4286                	lw	t0,64(sp)
 80026c6:	34129073          	csrw	mepc,t0
 80026ca:	4296                	lw	t0,68(sp)
 80026cc:	30029073          	csrw	mstatus,t0
 80026d0:	42a6                	lw	t0,72(sp)
 80026d2:	7c429073          	csrw	0x7c4,t0
  // Restore the caller saving registers (context)
  RESTORE_CONTEXT
 80026d6:	4082                	lw	ra,0(sp)
 80026d8:	4212                	lw	tp,4(sp)
 80026da:	42a2                	lw	t0,8(sp)
 80026dc:	4332                	lw	t1,12(sp)
 80026de:	43c2                	lw	t2,16(sp)
 80026e0:	4552                	lw	a0,20(sp)
 80026e2:	45e2                	lw	a1,24(sp)
 80026e4:	4672                	lw	a2,28(sp)
 80026e6:	5682                	lw	a3,32(sp)
 80026e8:	5712                	lw	a4,36(sp)
 80026ea:	57a2                	lw	a5,40(sp)
 80026ec:	5832                	lw	a6,44(sp)
 80026ee:	58c2                	lw	a7,48(sp)
 80026f0:	5e52                	lw	t3,52(sp)
 80026f2:	5ee2                	lw	t4,56(sp)
 80026f4:	5f72                	lw	t5,60(sp)
 80026f6:	4f86                	lw	t6,64(sp)
 80026f8:	6161                	addi	sp,sp,80

  // De-allocate the stack space
 // addi sp, sp, 19*REGBYTES
  // Return to regular code
  mret
 80026fa:	30200073          	mret
 80026fe:	0000                	unimp
 8002700:	0000                	unimp
	...

08002704 <irq_entry>:
.weak irq_entry
irq_entry: // -------------> This label will be set to MTVT2 register
  // Allocate the stack space
  

  SAVE_CONTEXT// Save 16 regs
 8002704:	715d                	addi	sp,sp,-80
 8002706:	c006                	sw	ra,0(sp)
 8002708:	c212                	sw	tp,4(sp)
 800270a:	c416                	sw	t0,8(sp)
 800270c:	c61a                	sw	t1,12(sp)
 800270e:	c81e                	sw	t2,16(sp)
 8002710:	ca2a                	sw	a0,20(sp)
 8002712:	cc2e                	sw	a1,24(sp)
 8002714:	ce32                	sw	a2,28(sp)
 8002716:	d036                	sw	a3,32(sp)
 8002718:	d23a                	sw	a4,36(sp)
 800271a:	d43e                	sw	a5,40(sp)
 800271c:	d642                	sw	a6,44(sp)
 800271e:	d846                	sw	a7,48(sp)
 8002720:	da72                	sw	t3,52(sp)
 8002722:	dc76                	sw	t4,56(sp)
 8002724:	de7a                	sw	t5,60(sp)
 8002726:	c0fe                	sw	t6,64(sp)

  //------This special CSR read operation, which is actually use mcause as operand to directly store it to memory
  csrrwi  x0, CSR_PUSHMCAUSE, 17
 8002728:	7ee8d073          	csrwi	0x7ee,17
  //------This special CSR read operation, which is actually use mepc as operand to directly store it to memory
  csrrwi  x0, CSR_PUSHMEPC, 18
 800272c:	7ef95073          	csrwi	0x7ef,18
  //------This special CSR read operation, which is actually use Msubm as operand to directly store it to memory
  csrrwi  x0, CSR_PUSHMSUBM, 19
 8002730:	7eb9d073          	csrwi	0x7eb,19

08002734 <service_loop>:
 
service_loop:
  //------This special CSR read/write operation, which is actually Claim the CLIC to find its pending highest
  // ID, if the ID is not 0, then automatically enable the mstatus.MIE, and jump to its vector-entry-label, and
  // update the link register 
  csrrw ra, CSR_JALMNXTI, ra 
 8002734:	7ed090f3          	csrrw	ra,0x7ed,ra
  
  //RESTORE_CONTEXT_EXCPT_X5

  #---- Critical section with interrupts disabled -----------------------
  DISABLE_MIE # Disable interrupts 
 8002738:	30047073          	csrci	mstatus,8

  LOAD x5,  19*REGBYTES(sp)
 800273c:	42b6                	lw	t0,76(sp)
  csrw CSR_MSUBM, x5  
 800273e:	7c429073          	csrw	0x7c4,t0
  LOAD x5,  18*REGBYTES(sp)
 8002742:	42a6                	lw	t0,72(sp)
  csrw CSR_MEPC, x5  
 8002744:	34129073          	csrw	mepc,t0
  LOAD x5,  17*REGBYTES(sp)
 8002748:	4296                	lw	t0,68(sp)
  csrw CSR_MCAUSE, x5  
 800274a:	34229073          	csrw	mcause,t0


  RESTORE_CONTEXT
 800274e:	4082                	lw	ra,0(sp)
 8002750:	4212                	lw	tp,4(sp)
 8002752:	42a2                	lw	t0,8(sp)
 8002754:	4332                	lw	t1,12(sp)
 8002756:	43c2                	lw	t2,16(sp)
 8002758:	4552                	lw	a0,20(sp)
 800275a:	45e2                	lw	a1,24(sp)
 800275c:	4672                	lw	a2,28(sp)
 800275e:	5682                	lw	a3,32(sp)
 8002760:	5712                	lw	a4,36(sp)
 8002762:	57a2                	lw	a5,40(sp)
 8002764:	5832                	lw	a6,44(sp)
 8002766:	58c2                	lw	a7,48(sp)
 8002768:	5e52                	lw	t3,52(sp)
 800276a:	5ee2                	lw	t4,56(sp)
 800276c:	5f72                	lw	t5,60(sp)
 800276e:	4f86                	lw	t6,64(sp)
 8002770:	6161                	addi	sp,sp,80

  
  // Return to regular code
  mret
 8002772:	30200073          	mret

08002776 <__divdf3>:
 8002776:	7179                	addi	sp,sp,-48
 8002778:	0145d813          	srli	a6,a1,0x14
 800277c:	d226                	sw	s1,36(sp)
 800277e:	ce4e                	sw	s3,28(sp)
 8002780:	cc52                	sw	s4,24(sp)
 8002782:	c85a                	sw	s6,16(sp)
 8002784:	c65e                	sw	s7,12(sp)
 8002786:	00c59493          	slli	s1,a1,0xc
 800278a:	d606                	sw	ra,44(sp)
 800278c:	d422                	sw	s0,40(sp)
 800278e:	d04a                	sw	s2,32(sp)
 8002790:	ca56                	sw	s5,20(sp)
 8002792:	7ff87813          	andi	a6,a6,2047
 8002796:	8b2a                	mv	s6,a0
 8002798:	8bb2                	mv	s7,a2
 800279a:	8a36                	mv	s4,a3
 800279c:	80b1                	srli	s1,s1,0xc
 800279e:	01f5d993          	srli	s3,a1,0x1f
 80027a2:	08080463          	beqz	a6,800282a <__divdf3+0xb4>
 80027a6:	7ff00793          	li	a5,2047
 80027aa:	0cf80e63          	beq	a6,a5,8002886 <__divdf3+0x110>
 80027ae:	01d55a93          	srli	s5,a0,0x1d
 80027b2:	048e                	slli	s1,s1,0x3
 80027b4:	009ae4b3          	or	s1,s5,s1
 80027b8:	00800ab7          	lui	s5,0x800
 80027bc:	0154eab3          	or	s5,s1,s5
 80027c0:	00351413          	slli	s0,a0,0x3
 80027c4:	c0180913          	addi	s2,a6,-1023 # 40000c01 <_sp+0x1fff8c01>
 80027c8:	4b01                	li	s6,0
 80027ca:	014a5513          	srli	a0,s4,0x14
 80027ce:	00ca1493          	slli	s1,s4,0xc
 80027d2:	7ff57813          	andi	a6,a0,2047
 80027d6:	80b1                	srli	s1,s1,0xc
 80027d8:	01fa5a13          	srli	s4,s4,0x1f
 80027dc:	0c080863          	beqz	a6,80028ac <__divdf3+0x136>
 80027e0:	7ff00793          	li	a5,2047
 80027e4:	12f80163          	beq	a6,a5,8002906 <__divdf3+0x190>
 80027e8:	00349513          	slli	a0,s1,0x3
 80027ec:	01dbd793          	srli	a5,s7,0x1d
 80027f0:	8d5d                	or	a0,a0,a5
 80027f2:	008004b7          	lui	s1,0x800
 80027f6:	8cc9                	or	s1,s1,a0
 80027f8:	003b9f13          	slli	t5,s7,0x3
 80027fc:	c0180513          	addi	a0,a6,-1023
 8002800:	4781                	li	a5,0
 8002802:	002b1713          	slli	a4,s6,0x2
 8002806:	8f5d                	or	a4,a4,a5
 8002808:	177d                	addi	a4,a4,-1
 800280a:	46b9                	li	a3,14
 800280c:	0149c633          	xor	a2,s3,s4
 8002810:	40a90833          	sub	a6,s2,a0
 8002814:	10e6eb63          	bltu	a3,a4,800292a <__divdf3+0x1b4>
 8002818:	ffffe697          	auipc	a3,0xffffe
 800281c:	ad068693          	addi	a3,a3,-1328 # 80002e8 <enable_mcycle_minstret+0x9c>
 8002820:	070a                	slli	a4,a4,0x2
 8002822:	9736                	add	a4,a4,a3
 8002824:	4318                	lw	a4,0(a4)
 8002826:	9736                	add	a4,a4,a3
 8002828:	8702                	jr	a4
 800282a:	00a4eab3          	or	s5,s1,a0
 800282e:	060a8663          	beqz	s5,800289a <__divdf3+0x124>
 8002832:	cc8d                	beqz	s1,800286c <__divdf3+0xf6>
 8002834:	8526                	mv	a0,s1
 8002836:	00001097          	auipc	ra,0x1
 800283a:	b86080e7          	jalr	-1146(ra) # 80033bc <__clzsi2>
 800283e:	ff550793          	addi	a5,a0,-11 # 4001fff5 <_sp+0x20017ff5>
 8002842:	4771                	li	a4,28
 8002844:	02f74b63          	blt	a4,a5,800287a <__divdf3+0x104>
 8002848:	4af5                	li	s5,29
 800284a:	ff850413          	addi	s0,a0,-8
 800284e:	40fa8ab3          	sub	s5,s5,a5
 8002852:	008494b3          	sll	s1,s1,s0
 8002856:	015b5ab3          	srl	s5,s6,s5
 800285a:	009aeab3          	or	s5,s5,s1
 800285e:	008b1433          	sll	s0,s6,s0
 8002862:	c0d00813          	li	a6,-1011
 8002866:	40a80933          	sub	s2,a6,a0
 800286a:	bfb9                	j	80027c8 <__divdf3+0x52>
 800286c:	00001097          	auipc	ra,0x1
 8002870:	b50080e7          	jalr	-1200(ra) # 80033bc <__clzsi2>
 8002874:	02050513          	addi	a0,a0,32
 8002878:	b7d9                	j	800283e <__divdf3+0xc8>
 800287a:	fd850493          	addi	s1,a0,-40
 800287e:	009b1ab3          	sll	s5,s6,s1
 8002882:	4401                	li	s0,0
 8002884:	bff9                	j	8002862 <__divdf3+0xec>
 8002886:	00a4eab3          	or	s5,s1,a0
 800288a:	000a8c63          	beqz	s5,80028a2 <__divdf3+0x12c>
 800288e:	842a                	mv	s0,a0
 8002890:	8aa6                	mv	s5,s1
 8002892:	7ff00913          	li	s2,2047
 8002896:	4b0d                	li	s6,3
 8002898:	bf0d                	j	80027ca <__divdf3+0x54>
 800289a:	4401                	li	s0,0
 800289c:	4901                	li	s2,0
 800289e:	4b05                	li	s6,1
 80028a0:	b72d                	j	80027ca <__divdf3+0x54>
 80028a2:	4401                	li	s0,0
 80028a4:	7ff00913          	li	s2,2047
 80028a8:	4b09                	li	s6,2
 80028aa:	b705                	j	80027ca <__divdf3+0x54>
 80028ac:	0174ef33          	or	t5,s1,s7
 80028b0:	060f0463          	beqz	t5,8002918 <__divdf3+0x1a2>
 80028b4:	c89d                	beqz	s1,80028ea <__divdf3+0x174>
 80028b6:	8526                	mv	a0,s1
 80028b8:	00001097          	auipc	ra,0x1
 80028bc:	b04080e7          	jalr	-1276(ra) # 80033bc <__clzsi2>
 80028c0:	ff550793          	addi	a5,a0,-11
 80028c4:	4771                	li	a4,28
 80028c6:	02f74a63          	blt	a4,a5,80028fa <__divdf3+0x184>
 80028ca:	4775                	li	a4,29
 80028cc:	ff850f13          	addi	t5,a0,-8
 80028d0:	8f1d                	sub	a4,a4,a5
 80028d2:	01e494b3          	sll	s1,s1,t5
 80028d6:	00ebd733          	srl	a4,s7,a4
 80028da:	8cd9                	or	s1,s1,a4
 80028dc:	01eb9f33          	sll	t5,s7,t5
 80028e0:	c0d00613          	li	a2,-1011
 80028e4:	40a60533          	sub	a0,a2,a0
 80028e8:	bf21                	j	8002800 <__divdf3+0x8a>
 80028ea:	855e                	mv	a0,s7
 80028ec:	00001097          	auipc	ra,0x1
 80028f0:	ad0080e7          	jalr	-1328(ra) # 80033bc <__clzsi2>
 80028f4:	02050513          	addi	a0,a0,32
 80028f8:	b7e1                	j	80028c0 <__divdf3+0x14a>
 80028fa:	fd850493          	addi	s1,a0,-40
 80028fe:	009b94b3          	sll	s1,s7,s1
 8002902:	4f01                	li	t5,0
 8002904:	bff1                	j	80028e0 <__divdf3+0x16a>
 8002906:	0174ef33          	or	t5,s1,s7
 800290a:	000f0b63          	beqz	t5,8002920 <__divdf3+0x1aa>
 800290e:	8f5e                	mv	t5,s7
 8002910:	7ff00513          	li	a0,2047
 8002914:	478d                	li	a5,3
 8002916:	b5f5                	j	8002802 <__divdf3+0x8c>
 8002918:	4481                	li	s1,0
 800291a:	4501                	li	a0,0
 800291c:	4785                	li	a5,1
 800291e:	b5d5                	j	8002802 <__divdf3+0x8c>
 8002920:	4481                	li	s1,0
 8002922:	7ff00513          	li	a0,2047
 8002926:	4789                	li	a5,2
 8002928:	bde9                	j	8002802 <__divdf3+0x8c>
 800292a:	0154e663          	bltu	s1,s5,8002936 <__divdf3+0x1c0>
 800292e:	2a9a9363          	bne	s5,s1,8002bd4 <__divdf3+0x45e>
 8002932:	2be46163          	bltu	s0,t5,8002bd4 <__divdf3+0x45e>
 8002936:	01fa9693          	slli	a3,s5,0x1f
 800293a:	00145713          	srli	a4,s0,0x1
 800293e:	01f41793          	slli	a5,s0,0x1f
 8002942:	001ada93          	srli	s5,s5,0x1
 8002946:	00e6e433          	or	s0,a3,a4
 800294a:	00849513          	slli	a0,s1,0x8
 800294e:	018f5493          	srli	s1,t5,0x18
 8002952:	8d45                	or	a0,a0,s1
 8002954:	01055e13          	srli	t3,a0,0x10
 8002958:	03cad8b3          	divu	a7,s5,t3
 800295c:	01051313          	slli	t1,a0,0x10
 8002960:	01035313          	srli	t1,t1,0x10
 8002964:	01045713          	srli	a4,s0,0x10
 8002968:	008f1593          	slli	a1,t5,0x8
 800296c:	03caf4b3          	remu	s1,s5,t3
 8002970:	8fc6                	mv	t6,a7
 8002972:	031306b3          	mul	a3,t1,a7
 8002976:	01049a93          	slli	s5,s1,0x10
 800297a:	01576733          	or	a4,a4,s5
 800297e:	00d77c63          	bgeu	a4,a3,8002996 <__divdf3+0x220>
 8002982:	972a                	add	a4,a4,a0
 8002984:	fff88f93          	addi	t6,a7,-1
 8002988:	00a76763          	bltu	a4,a0,8002996 <__divdf3+0x220>
 800298c:	00d77563          	bgeu	a4,a3,8002996 <__divdf3+0x220>
 8002990:	ffe88f93          	addi	t6,a7,-2
 8002994:	972a                	add	a4,a4,a0
 8002996:	8f15                	sub	a4,a4,a3
 8002998:	03c75eb3          	divu	t4,a4,t3
 800299c:	0442                	slli	s0,s0,0x10
 800299e:	8041                	srli	s0,s0,0x10
 80029a0:	03c77733          	remu	a4,a4,t3
 80029a4:	86f6                	mv	a3,t4
 80029a6:	03d308b3          	mul	a7,t1,t4
 80029aa:	0742                	slli	a4,a4,0x10
 80029ac:	8f41                	or	a4,a4,s0
 80029ae:	01177c63          	bgeu	a4,a7,80029c6 <__divdf3+0x250>
 80029b2:	972a                	add	a4,a4,a0
 80029b4:	fffe8693          	addi	a3,t4,-1
 80029b8:	00a76763          	bltu	a4,a0,80029c6 <__divdf3+0x250>
 80029bc:	01177563          	bgeu	a4,a7,80029c6 <__divdf3+0x250>
 80029c0:	ffee8693          	addi	a3,t4,-2
 80029c4:	972a                	add	a4,a4,a0
 80029c6:	0fc2                	slli	t6,t6,0x10
 80029c8:	00dfefb3          	or	t6,t6,a3
 80029cc:	66c1                	lui	a3,0x10
 80029ce:	41170433          	sub	s0,a4,a7
 80029d2:	fff68893          	addi	a7,a3,-1 # ffff <__stack_size+0xefff>
 80029d6:	010fdf13          	srli	t5,t6,0x10
 80029da:	011ff733          	and	a4,t6,a7
 80029de:	0105de93          	srli	t4,a1,0x10
 80029e2:	0115f8b3          	and	a7,a1,a7
 80029e6:	031703b3          	mul	t2,a4,a7
 80029ea:	031f04b3          	mul	s1,t5,a7
 80029ee:	02ee8733          	mul	a4,t4,a4
 80029f2:	03df02b3          	mul	t0,t5,t4
 80029f6:	00970f33          	add	t5,a4,s1
 80029fa:	0103d713          	srli	a4,t2,0x10
 80029fe:	977a                	add	a4,a4,t5
 8002a00:	00977363          	bgeu	a4,s1,8002a06 <__divdf3+0x290>
 8002a04:	92b6                	add	t0,t0,a3
 8002a06:	01075f13          	srli	t5,a4,0x10
 8002a0a:	9f16                	add	t5,t5,t0
 8002a0c:	62c1                	lui	t0,0x10
 8002a0e:	12fd                	addi	t0,t0,-1
 8002a10:	005776b3          	and	a3,a4,t0
 8002a14:	06c2                	slli	a3,a3,0x10
 8002a16:	0053f3b3          	and	t2,t2,t0
 8002a1a:	969e                	add	a3,a3,t2
 8002a1c:	01e46763          	bltu	s0,t5,8002a2a <__divdf3+0x2b4>
 8002a20:	84fe                	mv	s1,t6
 8002a22:	03e41e63          	bne	s0,t5,8002a5e <__divdf3+0x2e8>
 8002a26:	02d7fc63          	bgeu	a5,a3,8002a5e <__divdf3+0x2e8>
 8002a2a:	97ae                	add	a5,a5,a1
 8002a2c:	00b7b733          	sltu	a4,a5,a1
 8002a30:	972a                	add	a4,a4,a0
 8002a32:	943a                	add	s0,s0,a4
 8002a34:	ffff8493          	addi	s1,t6,-1
 8002a38:	00856663          	bltu	a0,s0,8002a44 <__divdf3+0x2ce>
 8002a3c:	02851163          	bne	a0,s0,8002a5e <__divdf3+0x2e8>
 8002a40:	00b7ef63          	bltu	a5,a1,8002a5e <__divdf3+0x2e8>
 8002a44:	01e46663          	bltu	s0,t5,8002a50 <__divdf3+0x2da>
 8002a48:	008f1b63          	bne	t5,s0,8002a5e <__divdf3+0x2e8>
 8002a4c:	00d7f963          	bgeu	a5,a3,8002a5e <__divdf3+0x2e8>
 8002a50:	97ae                	add	a5,a5,a1
 8002a52:	00b7b733          	sltu	a4,a5,a1
 8002a56:	972a                	add	a4,a4,a0
 8002a58:	ffef8493          	addi	s1,t6,-2
 8002a5c:	943a                	add	s0,s0,a4
 8002a5e:	40d786b3          	sub	a3,a5,a3
 8002a62:	41e40433          	sub	s0,s0,t5
 8002a66:	00d7b7b3          	sltu	a5,a5,a3
 8002a6a:	8c1d                	sub	s0,s0,a5
 8002a6c:	5f7d                	li	t5,-1
 8002a6e:	0e850563          	beq	a0,s0,8002b58 <__divdf3+0x3e2>
 8002a72:	03c45f33          	divu	t5,s0,t3
 8002a76:	0106d713          	srli	a4,a3,0x10
 8002a7a:	03c47433          	remu	s0,s0,t3
 8002a7e:	03e307b3          	mul	a5,t1,t5
 8002a82:	0442                	slli	s0,s0,0x10
 8002a84:	8c59                	or	s0,s0,a4
 8002a86:	877a                	mv	a4,t5
 8002a88:	00f47c63          	bgeu	s0,a5,8002aa0 <__divdf3+0x32a>
 8002a8c:	942a                	add	s0,s0,a0
 8002a8e:	ffff0713          	addi	a4,t5,-1
 8002a92:	00a46763          	bltu	s0,a0,8002aa0 <__divdf3+0x32a>
 8002a96:	00f47563          	bgeu	s0,a5,8002aa0 <__divdf3+0x32a>
 8002a9a:	ffef0713          	addi	a4,t5,-2
 8002a9e:	942a                	add	s0,s0,a0
 8002aa0:	8c1d                	sub	s0,s0,a5
 8002aa2:	03c45f33          	divu	t5,s0,t3
 8002aa6:	06c2                	slli	a3,a3,0x10
 8002aa8:	82c1                	srli	a3,a3,0x10
 8002aaa:	03c47433          	remu	s0,s0,t3
 8002aae:	87fa                	mv	a5,t5
 8002ab0:	03e30333          	mul	t1,t1,t5
 8002ab4:	0442                	slli	s0,s0,0x10
 8002ab6:	8c55                	or	s0,s0,a3
 8002ab8:	00647c63          	bgeu	s0,t1,8002ad0 <__divdf3+0x35a>
 8002abc:	942a                	add	s0,s0,a0
 8002abe:	ffff0793          	addi	a5,t5,-1
 8002ac2:	00a46763          	bltu	s0,a0,8002ad0 <__divdf3+0x35a>
 8002ac6:	00647563          	bgeu	s0,t1,8002ad0 <__divdf3+0x35a>
 8002aca:	ffef0793          	addi	a5,t5,-2
 8002ace:	942a                	add	s0,s0,a0
 8002ad0:	0742                	slli	a4,a4,0x10
 8002ad2:	8f5d                	or	a4,a4,a5
 8002ad4:	01071793          	slli	a5,a4,0x10
 8002ad8:	83c1                	srli	a5,a5,0x10
 8002ada:	40640433          	sub	s0,s0,t1
 8002ade:	01075313          	srli	t1,a4,0x10
 8002ae2:	03178e33          	mul	t3,a5,a7
 8002ae6:	031308b3          	mul	a7,t1,a7
 8002aea:	026e8333          	mul	t1,t4,t1
 8002aee:	02fe8eb3          	mul	t4,t4,a5
 8002af2:	010e5793          	srli	a5,t3,0x10
 8002af6:	9ec6                	add	t4,t4,a7
 8002af8:	97f6                	add	a5,a5,t4
 8002afa:	0117f463          	bgeu	a5,a7,8002b02 <__divdf3+0x38c>
 8002afe:	66c1                	lui	a3,0x10
 8002b00:	9336                	add	t1,t1,a3
 8002b02:	0107d893          	srli	a7,a5,0x10
 8002b06:	989a                	add	a7,a7,t1
 8002b08:	6341                	lui	t1,0x10
 8002b0a:	137d                	addi	t1,t1,-1
 8002b0c:	0067f6b3          	and	a3,a5,t1
 8002b10:	06c2                	slli	a3,a3,0x10
 8002b12:	006e7e33          	and	t3,t3,t1
 8002b16:	96f2                	add	a3,a3,t3
 8002b18:	01146663          	bltu	s0,a7,8002b24 <__divdf3+0x3ae>
 8002b1c:	19141e63          	bne	s0,a7,8002cb8 <__divdf3+0x542>
 8002b20:	8f3a                	mv	t5,a4
 8002b22:	ca9d                	beqz	a3,8002b58 <__divdf3+0x3e2>
 8002b24:	942a                	add	s0,s0,a0
 8002b26:	fff70f13          	addi	t5,a4,-1
 8002b2a:	02a46163          	bltu	s0,a0,8002b4c <__divdf3+0x3d6>
 8002b2e:	01146663          	bltu	s0,a7,8002b3a <__divdf3+0x3c4>
 8002b32:	19141263          	bne	s0,a7,8002cb6 <__divdf3+0x540>
 8002b36:	00d5fd63          	bgeu	a1,a3,8002b50 <__divdf3+0x3da>
 8002b3a:	00159793          	slli	a5,a1,0x1
 8002b3e:	00b7b5b3          	sltu	a1,a5,a1
 8002b42:	952e                	add	a0,a0,a1
 8002b44:	ffe70f13          	addi	t5,a4,-2
 8002b48:	942a                	add	s0,s0,a0
 8002b4a:	85be                	mv	a1,a5
 8002b4c:	01141463          	bne	s0,a7,8002b54 <__divdf3+0x3de>
 8002b50:	00b68463          	beq	a3,a1,8002b58 <__divdf3+0x3e2>
 8002b54:	001f6f13          	ori	t5,t5,1
 8002b58:	3ff80713          	addi	a4,a6,1023
 8002b5c:	0ae05763          	blez	a4,8002c0a <__divdf3+0x494>
 8002b60:	007f7793          	andi	a5,t5,7
 8002b64:	cf81                	beqz	a5,8002b7c <__divdf3+0x406>
 8002b66:	00ff7793          	andi	a5,t5,15
 8002b6a:	4691                	li	a3,4
 8002b6c:	00d78863          	beq	a5,a3,8002b7c <__divdf3+0x406>
 8002b70:	004f0693          	addi	a3,t5,4
 8002b74:	01e6bf33          	sltu	t5,a3,t5
 8002b78:	94fa                	add	s1,s1,t5
 8002b7a:	8f36                	mv	t5,a3
 8002b7c:	00749793          	slli	a5,s1,0x7
 8002b80:	0007d863          	bgez	a5,8002b90 <__divdf3+0x41a>
 8002b84:	ff0007b7          	lui	a5,0xff000
 8002b88:	17fd                	addi	a5,a5,-1
 8002b8a:	8cfd                	and	s1,s1,a5
 8002b8c:	40080713          	addi	a4,a6,1024
 8002b90:	7fe00793          	li	a5,2046
 8002b94:	10e7c863          	blt	a5,a4,8002ca4 <__divdf3+0x52e>
 8002b98:	003f5f13          	srli	t5,t5,0x3
 8002b9c:	01d49793          	slli	a5,s1,0x1d
 8002ba0:	01e7e7b3          	or	a5,a5,t5
 8002ba4:	0034d513          	srli	a0,s1,0x3
 8002ba8:	0532                	slli	a0,a0,0xc
 8002baa:	7ff77713          	andi	a4,a4,2047
 8002bae:	0752                	slli	a4,a4,0x14
 8002bb0:	50b2                	lw	ra,44(sp)
 8002bb2:	5422                	lw	s0,40(sp)
 8002bb4:	8131                	srli	a0,a0,0xc
 8002bb6:	8d59                	or	a0,a0,a4
 8002bb8:	067e                	slli	a2,a2,0x1f
 8002bba:	00c56733          	or	a4,a0,a2
 8002bbe:	5492                	lw	s1,36(sp)
 8002bc0:	5902                	lw	s2,32(sp)
 8002bc2:	49f2                	lw	s3,28(sp)
 8002bc4:	4a62                	lw	s4,24(sp)
 8002bc6:	4ad2                	lw	s5,20(sp)
 8002bc8:	4b42                	lw	s6,16(sp)
 8002bca:	4bb2                	lw	s7,12(sp)
 8002bcc:	853e                	mv	a0,a5
 8002bce:	85ba                	mv	a1,a4
 8002bd0:	6145                	addi	sp,sp,48
 8002bd2:	8082                	ret
 8002bd4:	187d                	addi	a6,a6,-1
 8002bd6:	4781                	li	a5,0
 8002bd8:	bb8d                	j	800294a <__divdf3+0x1d4>
 8002bda:	864e                	mv	a2,s3
 8002bdc:	84d6                	mv	s1,s5
 8002bde:	8f22                	mv	t5,s0
 8002be0:	87da                	mv	a5,s6
 8002be2:	4709                	li	a4,2
 8002be4:	0ce78063          	beq	a5,a4,8002ca4 <__divdf3+0x52e>
 8002be8:	470d                	li	a4,3
 8002bea:	0ae78663          	beq	a5,a4,8002c96 <__divdf3+0x520>
 8002bee:	4705                	li	a4,1
 8002bf0:	f6e794e3          	bne	a5,a4,8002b58 <__divdf3+0x3e2>
 8002bf4:	4501                	li	a0,0
 8002bf6:	4781                	li	a5,0
 8002bf8:	a885                	j	8002c68 <__divdf3+0x4f2>
 8002bfa:	8652                	mv	a2,s4
 8002bfc:	b7dd                	j	8002be2 <__divdf3+0x46c>
 8002bfe:	000804b7          	lui	s1,0x80
 8002c02:	4f01                	li	t5,0
 8002c04:	4601                	li	a2,0
 8002c06:	478d                	li	a5,3
 8002c08:	bfe9                	j	8002be2 <__divdf3+0x46c>
 8002c0a:	4505                	li	a0,1
 8002c0c:	8d19                	sub	a0,a0,a4
 8002c0e:	03800793          	li	a5,56
 8002c12:	fea7c1e3          	blt	a5,a0,8002bf4 <__divdf3+0x47e>
 8002c16:	47fd                	li	a5,31
 8002c18:	04a7ca63          	blt	a5,a0,8002c6c <__divdf3+0x4f6>
 8002c1c:	41e80813          	addi	a6,a6,1054
 8002c20:	010497b3          	sll	a5,s1,a6
 8002c24:	00af5733          	srl	a4,t5,a0
 8002c28:	010f1833          	sll	a6,t5,a6
 8002c2c:	8fd9                	or	a5,a5,a4
 8002c2e:	01003833          	snez	a6,a6
 8002c32:	0107e7b3          	or	a5,a5,a6
 8002c36:	00a4d533          	srl	a0,s1,a0
 8002c3a:	0077f713          	andi	a4,a5,7
 8002c3e:	cf01                	beqz	a4,8002c56 <__divdf3+0x4e0>
 8002c40:	00f7f713          	andi	a4,a5,15
 8002c44:	4691                	li	a3,4
 8002c46:	00d70863          	beq	a4,a3,8002c56 <__divdf3+0x4e0>
 8002c4a:	00478713          	addi	a4,a5,4 # ff000004 <_sp+0xdeff8004>
 8002c4e:	00f737b3          	sltu	a5,a4,a5
 8002c52:	953e                	add	a0,a0,a5
 8002c54:	87ba                	mv	a5,a4
 8002c56:	00851713          	slli	a4,a0,0x8
 8002c5a:	04074a63          	bltz	a4,8002cae <__divdf3+0x538>
 8002c5e:	01d51713          	slli	a4,a0,0x1d
 8002c62:	838d                	srli	a5,a5,0x3
 8002c64:	8fd9                	or	a5,a5,a4
 8002c66:	810d                	srli	a0,a0,0x3
 8002c68:	4701                	li	a4,0
 8002c6a:	bf3d                	j	8002ba8 <__divdf3+0x432>
 8002c6c:	5785                	li	a5,-31
 8002c6e:	8f99                	sub	a5,a5,a4
 8002c70:	02000693          	li	a3,32
 8002c74:	00f4d7b3          	srl	a5,s1,a5
 8002c78:	4701                	li	a4,0
 8002c7a:	00d50663          	beq	a0,a3,8002c86 <__divdf3+0x510>
 8002c7e:	43e80813          	addi	a6,a6,1086
 8002c82:	01049733          	sll	a4,s1,a6
 8002c86:	01e76f33          	or	t5,a4,t5
 8002c8a:	01e03f33          	snez	t5,t5
 8002c8e:	01e7e7b3          	or	a5,a5,t5
 8002c92:	4501                	li	a0,0
 8002c94:	b75d                	j	8002c3a <__divdf3+0x4c4>
 8002c96:	00080537          	lui	a0,0x80
 8002c9a:	4781                	li	a5,0
 8002c9c:	7ff00713          	li	a4,2047
 8002ca0:	4601                	li	a2,0
 8002ca2:	b719                	j	8002ba8 <__divdf3+0x432>
 8002ca4:	4501                	li	a0,0
 8002ca6:	4781                	li	a5,0
 8002ca8:	7ff00713          	li	a4,2047
 8002cac:	bdf5                	j	8002ba8 <__divdf3+0x432>
 8002cae:	4501                	li	a0,0
 8002cb0:	4781                	li	a5,0
 8002cb2:	4705                	li	a4,1
 8002cb4:	bdd5                	j	8002ba8 <__divdf3+0x432>
 8002cb6:	877a                	mv	a4,t5
 8002cb8:	8f3a                	mv	t5,a4
 8002cba:	bd69                	j	8002b54 <__divdf3+0x3de>

08002cbc <__ledf2>:
 8002cbc:	0145d813          	srli	a6,a1,0x14
 8002cc0:	001007b7          	lui	a5,0x100
 8002cc4:	17fd                	addi	a5,a5,-1
 8002cc6:	0146d713          	srli	a4,a3,0x14
 8002cca:	7ff87813          	andi	a6,a6,2047
 8002cce:	7ff00e93          	li	t4,2047
 8002cd2:	00b7f8b3          	and	a7,a5,a1
 8002cd6:	832a                	mv	t1,a0
 8002cd8:	8ff5                	and	a5,a5,a3
 8002cda:	81fd                	srli	a1,a1,0x1f
 8002cdc:	8e32                	mv	t3,a2
 8002cde:	7ff77713          	andi	a4,a4,2047
 8002ce2:	82fd                	srli	a3,a3,0x1f
 8002ce4:	01d81863          	bne	a6,t4,8002cf4 <__ledf2+0x38>
 8002ce8:	00a8eeb3          	or	t4,a7,a0
 8002cec:	060e8563          	beqz	t4,8002d56 <__ledf2+0x9a>
 8002cf0:	4589                	li	a1,2
 8002cf2:	a80d                	j	8002d24 <__ledf2+0x68>
 8002cf4:	01d71663          	bne	a4,t4,8002d00 <__ledf2+0x44>
 8002cf8:	00c7eeb3          	or	t4,a5,a2
 8002cfc:	fe0e9ae3          	bnez	t4,8002cf0 <__ledf2+0x34>
 8002d00:	04081d63          	bnez	a6,8002d5a <__ledf2+0x9e>
 8002d04:	00a8e533          	or	a0,a7,a0
 8002d08:	00153513          	seqz	a0,a0
 8002d0c:	e319                	bnez	a4,8002d12 <__ledf2+0x56>
 8002d0e:	8e5d                	or	a2,a2,a5
 8002d10:	ce15                	beqz	a2,8002d4c <__ledf2+0x90>
 8002d12:	e511                	bnez	a0,8002d1e <__ledf2+0x62>
 8002d14:	00d58a63          	beq	a1,a3,8002d28 <__ledf2+0x6c>
 8002d18:	c985                	beqz	a1,8002d48 <__ledf2+0x8c>
 8002d1a:	55fd                	li	a1,-1
 8002d1c:	a021                	j	8002d24 <__ledf2+0x68>
 8002d1e:	55fd                	li	a1,-1
 8002d20:	c291                	beqz	a3,8002d24 <__ledf2+0x68>
 8002d22:	85b6                	mv	a1,a3
 8002d24:	852e                	mv	a0,a1
 8002d26:	8082                	ret
 8002d28:	ff0748e3          	blt	a4,a6,8002d18 <__ledf2+0x5c>
 8002d2c:	00e85463          	bge	a6,a4,8002d34 <__ledf2+0x78>
 8002d30:	f9f5                	bnez	a1,8002d24 <__ledf2+0x68>
 8002d32:	b7e5                	j	8002d1a <__ledf2+0x5e>
 8002d34:	ff17e2e3          	bltu	a5,a7,8002d18 <__ledf2+0x5c>
 8002d38:	00f89c63          	bne	a7,a5,8002d50 <__ledf2+0x94>
 8002d3c:	fc6e6ee3          	bltu	t3,t1,8002d18 <__ledf2+0x5c>
 8002d40:	ffc368e3          	bltu	t1,t3,8002d30 <__ledf2+0x74>
 8002d44:	4581                	li	a1,0
 8002d46:	bff9                	j	8002d24 <__ledf2+0x68>
 8002d48:	4585                	li	a1,1
 8002d4a:	bfe9                	j	8002d24 <__ledf2+0x68>
 8002d4c:	fd65                	bnez	a0,8002d44 <__ledf2+0x88>
 8002d4e:	b7e9                	j	8002d18 <__ledf2+0x5c>
 8002d50:	fef8e0e3          	bltu	a7,a5,8002d30 <__ledf2+0x74>
 8002d54:	bfc5                	j	8002d44 <__ledf2+0x88>
 8002d56:	fb0701e3          	beq	a4,a6,8002cf8 <__ledf2+0x3c>
 8002d5a:	ff4d                	bnez	a4,8002d14 <__ledf2+0x58>
 8002d5c:	4501                	li	a0,0
 8002d5e:	bf45                	j	8002d0e <__ledf2+0x52>

08002d60 <__muldf3>:
 8002d60:	7179                	addi	sp,sp,-48
 8002d62:	ce4e                	sw	s3,28(sp)
 8002d64:	0145d993          	srli	s3,a1,0x14
 8002d68:	d422                	sw	s0,40(sp)
 8002d6a:	d226                	sw	s1,36(sp)
 8002d6c:	cc52                	sw	s4,24(sp)
 8002d6e:	ca56                	sw	s5,20(sp)
 8002d70:	c85a                	sw	s6,16(sp)
 8002d72:	00c59493          	slli	s1,a1,0xc
 8002d76:	d606                	sw	ra,44(sp)
 8002d78:	d04a                	sw	s2,32(sp)
 8002d7a:	c65e                	sw	s7,12(sp)
 8002d7c:	7ff9f993          	andi	s3,s3,2047
 8002d80:	842a                	mv	s0,a0
 8002d82:	8b32                	mv	s6,a2
 8002d84:	8ab6                	mv	s5,a3
 8002d86:	80b1                	srli	s1,s1,0xc
 8002d88:	01f5da13          	srli	s4,a1,0x1f
 8002d8c:	08098163          	beqz	s3,8002e0e <__muldf3+0xae>
 8002d90:	7ff00793          	li	a5,2047
 8002d94:	0cf98963          	beq	s3,a5,8002e66 <__muldf3+0x106>
 8002d98:	01d55793          	srli	a5,a0,0x1d
 8002d9c:	048e                	slli	s1,s1,0x3
 8002d9e:	8cdd                	or	s1,s1,a5
 8002da0:	008007b7          	lui	a5,0x800
 8002da4:	8cdd                	or	s1,s1,a5
 8002da6:	00351913          	slli	s2,a0,0x3
 8002daa:	c0198993          	addi	s3,s3,-1023
 8002dae:	4b81                	li	s7,0
 8002db0:	014ad513          	srli	a0,s5,0x14
 8002db4:	00ca9413          	slli	s0,s5,0xc
 8002db8:	7ff57513          	andi	a0,a0,2047
 8002dbc:	8031                	srli	s0,s0,0xc
 8002dbe:	01fada93          	srli	s5,s5,0x1f
 8002dc2:	c561                	beqz	a0,8002e8a <__muldf3+0x12a>
 8002dc4:	7ff00793          	li	a5,2047
 8002dc8:	10f50d63          	beq	a0,a5,8002ee2 <__muldf3+0x182>
 8002dcc:	01db5793          	srli	a5,s6,0x1d
 8002dd0:	040e                	slli	s0,s0,0x3
 8002dd2:	8c5d                	or	s0,s0,a5
 8002dd4:	008007b7          	lui	a5,0x800
 8002dd8:	8c5d                	or	s0,s0,a5
