GAS LISTING /tmp/ccB3XmVG.s 			page 1


   1              		.file	"gd32vf103_crc.c"
   2              		.option nopic
   3              		.attribute arch, "rv32i2p0_m2p0_a2p0_c2p0"
   4              		.attribute unaligned_access, 0
   5              		.attribute stack_align, 16
   6              		.text
   7              	.Ltext0:
   8              		.cfi_sections	.debug_frame
   9              		.section	.text.crc_deinit,"ax",@progbits
  10              		.align	1
  11              		.globl	crc_deinit
  13              	crc_deinit:
  14              	.LFB2:
  15              		.file 1 "../../firmware/GD32VF103_standard_peripheral/Source/gd32vf103_crc.c"
   1:../../firmware/GD32VF103_standard_peripheral/Source/gd32vf103_crc.c **** /*!
   2:../../firmware/GD32VF103_standard_peripheral/Source/gd32vf103_crc.c ****     \file    gd32vf103_crc.c
   3:../../firmware/GD32VF103_standard_peripheral/Source/gd32vf103_crc.c ****     \brief   CRC driver
   4:../../firmware/GD32VF103_standard_peripheral/Source/gd32vf103_crc.c **** 
   5:../../firmware/GD32VF103_standard_peripheral/Source/gd32vf103_crc.c ****     \version 2019-06-05, V1.0.0, firmware for GD32VF103
   6:../../firmware/GD32VF103_standard_peripheral/Source/gd32vf103_crc.c ****     \version 2020-08-04, V1.1.0, firmware for GD32VF103
   7:../../firmware/GD32VF103_standard_peripheral/Source/gd32vf103_crc.c **** */
   8:../../firmware/GD32VF103_standard_peripheral/Source/gd32vf103_crc.c **** 
   9:../../firmware/GD32VF103_standard_peripheral/Source/gd32vf103_crc.c **** /*
  10:../../firmware/GD32VF103_standard_peripheral/Source/gd32vf103_crc.c ****     Copyright (c) 2020, GigaDevice Semiconductor Inc.
  11:../../firmware/GD32VF103_standard_peripheral/Source/gd32vf103_crc.c **** 
  12:../../firmware/GD32VF103_standard_peripheral/Source/gd32vf103_crc.c ****     Redistribution and use in source and binary forms, with or without modification,
  13:../../firmware/GD32VF103_standard_peripheral/Source/gd32vf103_crc.c **** are permitted provided that the following conditions are met:
  14:../../firmware/GD32VF103_standard_peripheral/Source/gd32vf103_crc.c **** 
  15:../../firmware/GD32VF103_standard_peripheral/Source/gd32vf103_crc.c ****     1. Redistributions of source code must retain the above copyright notice, this
  16:../../firmware/GD32VF103_standard_peripheral/Source/gd32vf103_crc.c ****        list of conditions and the following disclaimer.
  17:../../firmware/GD32VF103_standard_peripheral/Source/gd32vf103_crc.c ****     2. Redistributions in binary form must reproduce the above copyright notice,
  18:../../firmware/GD32VF103_standard_peripheral/Source/gd32vf103_crc.c ****        this list of conditions and the following disclaimer in the documentation
  19:../../firmware/GD32VF103_standard_peripheral/Source/gd32vf103_crc.c ****        and/or other materials provided with the distribution.
  20:../../firmware/GD32VF103_standard_peripheral/Source/gd32vf103_crc.c ****     3. Neither the name of the copyright holder nor the names of its contributors
  21:../../firmware/GD32VF103_standard_peripheral/Source/gd32vf103_crc.c ****        may be used to endorse or promote products derived from this software without
  22:../../firmware/GD32VF103_standard_peripheral/Source/gd32vf103_crc.c ****        specific prior written permission.
  23:../../firmware/GD32VF103_standard_peripheral/Source/gd32vf103_crc.c **** 
  24:../../firmware/GD32VF103_standard_peripheral/Source/gd32vf103_crc.c ****     THIS SOFTWARE IS PROVIDED BY THE COPYRIGHT HOLDERS AND CONTRIBUTORS "AS IS"
  25:../../firmware/GD32VF103_standard_peripheral/Source/gd32vf103_crc.c **** AND ANY EXPRESS OR IMPLIED WARRANTIES, INCLUDING, BUT NOT LIMITED TO, THE IMPLIED
  26:../../firmware/GD32VF103_standard_peripheral/Source/gd32vf103_crc.c **** WARRANTIES OF MERCHANTABILITY AND FITNESS FOR A PARTICULAR PURPOSE ARE DISCLAIMED.
  27:../../firmware/GD32VF103_standard_peripheral/Source/gd32vf103_crc.c **** IN NO EVENT SHALL THE COPYRIGHT HOLDER OR CONTRIBUTORS BE LIABLE FOR ANY DIRECT,
  28:../../firmware/GD32VF103_standard_peripheral/Source/gd32vf103_crc.c **** INDIRECT, INCIDENTAL, SPECIAL, EXEMPLARY, OR CONSEQUENTIAL DAMAGES (INCLUDING, BUT
  29:../../firmware/GD32VF103_standard_peripheral/Source/gd32vf103_crc.c **** NOT LIMITED TO, PROCUREMENT OF SUBSTITUTE GOODS OR SERVICES; LOSS OF USE, DATA, OR
  30:../../firmware/GD32VF103_standard_peripheral/Source/gd32vf103_crc.c **** PROFITS; OR BUSINESS INTERRUPTION) HOWEVER CAUSED AND ON ANY THEORY OF LIABILITY,
  31:../../firmware/GD32VF103_standard_peripheral/Source/gd32vf103_crc.c **** WHETHER IN CONTRACT, STRICT LIABILITY, OR TORT (INCLUDING NEGLIGENCE OR OTHERWISE)
  32:../../firmware/GD32VF103_standard_peripheral/Source/gd32vf103_crc.c **** ARISING IN ANY WAY OUT OF THE USE OF THIS SOFTWARE, EVEN IF ADVISED OF THE POSSIBILITY
  33:../../firmware/GD32VF103_standard_peripheral/Source/gd32vf103_crc.c **** OF SUCH DAMAGE.
  34:../../firmware/GD32VF103_standard_peripheral/Source/gd32vf103_crc.c **** */
  35:../../firmware/GD32VF103_standard_peripheral/Source/gd32vf103_crc.c **** 
  36:../../firmware/GD32VF103_standard_peripheral/Source/gd32vf103_crc.c **** #include "gd32vf103_crc.h"
  37:../../firmware/GD32VF103_standard_peripheral/Source/gd32vf103_crc.c **** 
  38:../../firmware/GD32VF103_standard_peripheral/Source/gd32vf103_crc.c **** #define CRC_DATA_RESET_VALUE      ((uint32_t)0xFFFFFFFFU)
  39:../../firmware/GD32VF103_standard_peripheral/Source/gd32vf103_crc.c **** #define CRC_FDATA_RESET_VALUE     ((uint32_t)0x00000000U)
  40:../../firmware/GD32VF103_standard_peripheral/Source/gd32vf103_crc.c **** 
  41:../../firmware/GD32VF103_standard_peripheral/Source/gd32vf103_crc.c **** /*!
  42:../../firmware/GD32VF103_standard_peripheral/Source/gd32vf103_crc.c ****     \brief      deinit CRC calculation unit
  43:../../firmware/GD32VF103_standard_peripheral/Source/gd32vf103_crc.c ****     \param[in]  none
GAS LISTING /tmp/ccB3XmVG.s 			page 2


  44:../../firmware/GD32VF103_standard_peripheral/Source/gd32vf103_crc.c ****     \param[out] none
  45:../../firmware/GD32VF103_standard_peripheral/Source/gd32vf103_crc.c ****     \retval     none
  46:../../firmware/GD32VF103_standard_peripheral/Source/gd32vf103_crc.c **** */
  47:../../firmware/GD32VF103_standard_peripheral/Source/gd32vf103_crc.c **** void crc_deinit(void)
  48:../../firmware/GD32VF103_standard_peripheral/Source/gd32vf103_crc.c **** {
  16              		.loc 1 48 1
  17              		.cfi_startproc
  49:../../firmware/GD32VF103_standard_peripheral/Source/gd32vf103_crc.c ****     CRC_DATA = CRC_DATA_RESET_VALUE;
  18              		.loc 1 49 5
  19              		.loc 1 49 14 is_stmt 0
  20 0000 B7370240 		li	a5,1073885184
  21 0004 7D57     		li	a4,-1
  22 0006 98C3     		sw	a4,0(a5)
  50:../../firmware/GD32VF103_standard_peripheral/Source/gd32vf103_crc.c ****     CRC_FDATA = CRC_FDATA_RESET_VALUE;
  23              		.loc 1 50 5 is_stmt 1
  24              		.loc 1 50 15 is_stmt 0
  25 0008 23A20700 		sw	zero,4(a5)
  51:../../firmware/GD32VF103_standard_peripheral/Source/gd32vf103_crc.c ****     CRC_CTL = (uint32_t)CRC_CTL_RST;
  26              		.loc 1 51 5 is_stmt 1
  27              		.loc 1 51 13 is_stmt 0
  28 000c 0547     		li	a4,1
  29 000e 98C7     		sw	a4,8(a5)
  52:../../firmware/GD32VF103_standard_peripheral/Source/gd32vf103_crc.c **** }
  30              		.loc 1 52 1
  31 0010 8280     		ret
  32              		.cfi_endproc
  33              	.LFE2:
  35              		.section	.text.crc_data_register_reset,"ax",@progbits
  36              		.align	1
  37              		.globl	crc_data_register_reset
  39              	crc_data_register_reset:
  40              	.LFB3:
  53:../../firmware/GD32VF103_standard_peripheral/Source/gd32vf103_crc.c **** 
  54:../../firmware/GD32VF103_standard_peripheral/Source/gd32vf103_crc.c **** /*!
  55:../../firmware/GD32VF103_standard_peripheral/Source/gd32vf103_crc.c ****     \brief      reset data register(CRC_DATA) to the value of 0xFFFFFFFF
  56:../../firmware/GD32VF103_standard_peripheral/Source/gd32vf103_crc.c ****     \param[in]  none
  57:../../firmware/GD32VF103_standard_peripheral/Source/gd32vf103_crc.c ****     \param[out] none
  58:../../firmware/GD32VF103_standard_peripheral/Source/gd32vf103_crc.c ****     \retval     none
  59:../../firmware/GD32VF103_standard_peripheral/Source/gd32vf103_crc.c **** */
  60:../../firmware/GD32VF103_standard_peripheral/Source/gd32vf103_crc.c **** void crc_data_register_reset(void)
  61:../../firmware/GD32VF103_standard_peripheral/Source/gd32vf103_crc.c **** {
  41              		.loc 1 61 1 is_stmt 1
  42              		.cfi_startproc
  62:../../firmware/GD32VF103_standard_peripheral/Source/gd32vf103_crc.c ****     CRC_CTL |= (uint32_t)CRC_CTL_RST;
  43              		.loc 1 62 5
  44              		.loc 1 62 13 is_stmt 0
  45 0000 37370240 		li	a4,1073885184
  46 0004 1C47     		lw	a5,8(a4)
  47 0006 93E71700 		ori	a5,a5,1
  48 000a 1CC7     		sw	a5,8(a4)
  63:../../firmware/GD32VF103_standard_peripheral/Source/gd32vf103_crc.c **** }
  49              		.loc 1 63 1
  50 000c 8280     		ret
  51              		.cfi_endproc
  52              	.LFE3:
  54              		.section	.text.crc_data_register_read,"ax",@progbits
  55              		.align	1
GAS LISTING /tmp/ccB3XmVG.s 			page 3


  56              		.globl	crc_data_register_read
  58              	crc_data_register_read:
  59              	.LFB4:
  64:../../firmware/GD32VF103_standard_peripheral/Source/gd32vf103_crc.c **** 
  65:../../firmware/GD32VF103_standard_peripheral/Source/gd32vf103_crc.c **** /*!
  66:../../firmware/GD32VF103_standard_peripheral/Source/gd32vf103_crc.c ****     \brief      read the value of the data register
  67:../../firmware/GD32VF103_standard_peripheral/Source/gd32vf103_crc.c ****     \param[in]  none
  68:../../firmware/GD32VF103_standard_peripheral/Source/gd32vf103_crc.c ****     \param[out] none
  69:../../firmware/GD32VF103_standard_peripheral/Source/gd32vf103_crc.c ****     \retval     32-bit value of the data register
  70:../../firmware/GD32VF103_standard_peripheral/Source/gd32vf103_crc.c **** */
  71:../../firmware/GD32VF103_standard_peripheral/Source/gd32vf103_crc.c **** uint32_t crc_data_register_read(void)
  72:../../firmware/GD32VF103_standard_peripheral/Source/gd32vf103_crc.c **** {
  60              		.loc 1 72 1 is_stmt 1
  61              		.cfi_startproc
  73:../../firmware/GD32VF103_standard_peripheral/Source/gd32vf103_crc.c ****     uint32_t data;
  62              		.loc 1 73 5
  74:../../firmware/GD32VF103_standard_peripheral/Source/gd32vf103_crc.c ****     data = CRC_DATA;
  63              		.loc 1 74 5
  64              		.loc 1 74 10 is_stmt 0
  65 0000 B7370240 		li	a5,1073885184
  66 0004 8843     		lw	a0,0(a5)
  67              	.LVL0:
  75:../../firmware/GD32VF103_standard_peripheral/Source/gd32vf103_crc.c ****     return (data);
  68              		.loc 1 75 5 is_stmt 1
  76:../../firmware/GD32VF103_standard_peripheral/Source/gd32vf103_crc.c **** }
  69              		.loc 1 76 1 is_stmt 0
  70 0006 8280     		ret
  71              		.cfi_endproc
  72              	.LFE4:
  74              		.section	.text.crc_free_data_register_read,"ax",@progbits
  75              		.align	1
  76              		.globl	crc_free_data_register_read
  78              	crc_free_data_register_read:
  79              	.LFB5:
  77:../../firmware/GD32VF103_standard_peripheral/Source/gd32vf103_crc.c **** 
  78:../../firmware/GD32VF103_standard_peripheral/Source/gd32vf103_crc.c **** /*!
  79:../../firmware/GD32VF103_standard_peripheral/Source/gd32vf103_crc.c ****     \brief      read the value of the free data register
  80:../../firmware/GD32VF103_standard_peripheral/Source/gd32vf103_crc.c ****     \param[in]  none
  81:../../firmware/GD32VF103_standard_peripheral/Source/gd32vf103_crc.c ****     \param[out] none
  82:../../firmware/GD32VF103_standard_peripheral/Source/gd32vf103_crc.c ****     \retval     8-bit value of the free data register
  83:../../firmware/GD32VF103_standard_peripheral/Source/gd32vf103_crc.c **** */
  84:../../firmware/GD32VF103_standard_peripheral/Source/gd32vf103_crc.c **** uint8_t crc_free_data_register_read(void)
  85:../../firmware/GD32VF103_standard_peripheral/Source/gd32vf103_crc.c **** {
  80              		.loc 1 85 1 is_stmt 1
  81              		.cfi_startproc
  86:../../firmware/GD32VF103_standard_peripheral/Source/gd32vf103_crc.c ****     uint8_t fdata;
  82              		.loc 1 86 5
  87:../../firmware/GD32VF103_standard_peripheral/Source/gd32vf103_crc.c ****     fdata = (uint8_t)CRC_FDATA;
  83              		.loc 1 87 5
  84              		.loc 1 87 22 is_stmt 0
  85 0000 B7370240 		li	a5,1073885184
  86 0004 C843     		lw	a0,4(a5)
  87              	.LVL1:
  88:../../firmware/GD32VF103_standard_peripheral/Source/gd32vf103_crc.c ****     return (fdata);
  88              		.loc 1 88 5 is_stmt 1
  89:../../firmware/GD32VF103_standard_peripheral/Source/gd32vf103_crc.c **** }
  89              		.loc 1 89 1 is_stmt 0
GAS LISTING /tmp/ccB3XmVG.s 			page 4


  90 0006 1375F50F 		andi	a0,a0,0xff
  91 000a 8280     		ret
  92              		.cfi_endproc
  93              	.LFE5:
  95              		.section	.text.crc_free_data_register_write,"ax",@progbits
  96              		.align	1
  97              		.globl	crc_free_data_register_write
  99              	crc_free_data_register_write:
 100              	.LFB6:
  90:../../firmware/GD32VF103_standard_peripheral/Source/gd32vf103_crc.c **** 
  91:../../firmware/GD32VF103_standard_peripheral/Source/gd32vf103_crc.c **** /*!
  92:../../firmware/GD32VF103_standard_peripheral/Source/gd32vf103_crc.c ****     \brief      write data to the free data register
  93:../../firmware/GD32VF103_standard_peripheral/Source/gd32vf103_crc.c ****     \param[in]  free_data: specified 8-bit data
  94:../../firmware/GD32VF103_standard_peripheral/Source/gd32vf103_crc.c ****     \param[out] none
  95:../../firmware/GD32VF103_standard_peripheral/Source/gd32vf103_crc.c ****     \retval     none
  96:../../firmware/GD32VF103_standard_peripheral/Source/gd32vf103_crc.c **** */
  97:../../firmware/GD32VF103_standard_peripheral/Source/gd32vf103_crc.c **** void crc_free_data_register_write(uint8_t free_data)
  98:../../firmware/GD32VF103_standard_peripheral/Source/gd32vf103_crc.c **** {
 101              		.loc 1 98 1 is_stmt 1
 102              		.cfi_startproc
 103              	.LVL2:
  99:../../firmware/GD32VF103_standard_peripheral/Source/gd32vf103_crc.c ****     CRC_FDATA = (uint32_t)free_data;
 104              		.loc 1 99 5
 105              		.loc 1 99 15 is_stmt 0
 106 0000 B7370240 		li	a5,1073885184
 107 0004 C8C3     		sw	a0,4(a5)
 100:../../firmware/GD32VF103_standard_peripheral/Source/gd32vf103_crc.c **** }
 108              		.loc 1 100 1
 109 0006 8280     		ret
 110              		.cfi_endproc
 111              	.LFE6:
 113              		.section	.text.crc_single_data_calculate,"ax",@progbits
 114              		.align	1
 115              		.globl	crc_single_data_calculate
 117              	crc_single_data_calculate:
 118              	.LFB7:
 101:../../firmware/GD32VF103_standard_peripheral/Source/gd32vf103_crc.c **** 
 102:../../firmware/GD32VF103_standard_peripheral/Source/gd32vf103_crc.c **** /*!
 103:../../firmware/GD32VF103_standard_peripheral/Source/gd32vf103_crc.c ****     \brief      calculate the CRC value of a 32-bit data
 104:../../firmware/GD32VF103_standard_peripheral/Source/gd32vf103_crc.c ****     \param[in]  sdata: specified 32-bit data
 105:../../firmware/GD32VF103_standard_peripheral/Source/gd32vf103_crc.c ****     \param[out] none
 106:../../firmware/GD32VF103_standard_peripheral/Source/gd32vf103_crc.c ****     \retval     32-bit value calculated by CRC
 107:../../firmware/GD32VF103_standard_peripheral/Source/gd32vf103_crc.c **** */
 108:../../firmware/GD32VF103_standard_peripheral/Source/gd32vf103_crc.c **** uint32_t crc_single_data_calculate(uint32_t sdata)
 109:../../firmware/GD32VF103_standard_peripheral/Source/gd32vf103_crc.c **** {
 119              		.loc 1 109 1 is_stmt 1
 120              		.cfi_startproc
 121              	.LVL3:
 110:../../firmware/GD32VF103_standard_peripheral/Source/gd32vf103_crc.c ****     CRC_DATA = sdata;
 122              		.loc 1 110 5
 123              		.loc 1 110 14 is_stmt 0
 124 0000 B7370240 		li	a5,1073885184
 125 0004 88C3     		sw	a0,0(a5)
 111:../../firmware/GD32VF103_standard_peripheral/Source/gd32vf103_crc.c ****     return (CRC_DATA);
 126              		.loc 1 111 5 is_stmt 1
 127              		.loc 1 111 13 is_stmt 0
 128 0006 8843     		lw	a0,0(a5)
GAS LISTING /tmp/ccB3XmVG.s 			page 5


 129              	.LVL4:
 112:../../firmware/GD32VF103_standard_peripheral/Source/gd32vf103_crc.c **** }
 130              		.loc 1 112 1
 131 0008 8280     		ret
 132              		.cfi_endproc
 133              	.LFE7:
 135              		.section	.text.crc_block_data_calculate,"ax",@progbits
 136              		.align	1
 137              		.globl	crc_block_data_calculate
 139              	crc_block_data_calculate:
 140              	.LFB8:
 113:../../firmware/GD32VF103_standard_peripheral/Source/gd32vf103_crc.c **** 
 114:../../firmware/GD32VF103_standard_peripheral/Source/gd32vf103_crc.c **** /*!
 115:../../firmware/GD32VF103_standard_peripheral/Source/gd32vf103_crc.c ****     \brief      calculate the CRC value of an array of 32-bit values
 116:../../firmware/GD32VF103_standard_peripheral/Source/gd32vf103_crc.c ****     \param[in]  array: pointer to an array of 32-bit values
 117:../../firmware/GD32VF103_standard_peripheral/Source/gd32vf103_crc.c ****     \param[in]  size: size of the array
 118:../../firmware/GD32VF103_standard_peripheral/Source/gd32vf103_crc.c ****     \param[out] none
 119:../../firmware/GD32VF103_standard_peripheral/Source/gd32vf103_crc.c ****     \retval     32-bit value calculated by CRC
 120:../../firmware/GD32VF103_standard_peripheral/Source/gd32vf103_crc.c **** */
 121:../../firmware/GD32VF103_standard_peripheral/Source/gd32vf103_crc.c **** uint32_t crc_block_data_calculate(uint32_t array[], uint32_t size)
 122:../../firmware/GD32VF103_standard_peripheral/Source/gd32vf103_crc.c **** {
 141              		.loc 1 122 1 is_stmt 1
 142              		.cfi_startproc
 143              	.LVL5:
 123:../../firmware/GD32VF103_standard_peripheral/Source/gd32vf103_crc.c ****     uint32_t index;
 144              		.loc 1 123 5
 124:../../firmware/GD32VF103_standard_peripheral/Source/gd32vf103_crc.c ****     for(index = 0U; index < size; index++){
 145              		.loc 1 124 5
 146 0000 91C9     		beq	a1,zero,.L9
 147 0002 8A05     		slli	a1,a1,2
 148              	.LVL6:
 149 0004 AA95     		add	a1,a0,a1
 125:../../firmware/GD32VF103_standard_peripheral/Source/gd32vf103_crc.c ****         CRC_DATA = array[index];
 150              		.loc 1 125 18 is_stmt 0
 151 0006 37370240 		li	a4,1073885184
 152              	.LVL7:
 153              	.L10:
 154              		.loc 1 125 9 is_stmt 1 discriminator 3
 155              		.loc 1 125 25 is_stmt 0 discriminator 3
 156 000a 1C41     		lw	a5,0(a0)
 157 000c 1105     		addi	a0,a0,4
 158              		.loc 1 125 18 discriminator 3
 159 000e 1CC3     		sw	a5,0(a4)
 124:../../firmware/GD32VF103_standard_peripheral/Source/gd32vf103_crc.c ****     for(index = 0U; index < size; index++){
 160              		.loc 1 124 5 discriminator 3
 161 0010 E31DB5FE 		bne	a0,a1,.L10
 162              	.L9:
 126:../../firmware/GD32VF103_standard_peripheral/Source/gd32vf103_crc.c ****     }
 127:../../firmware/GD32VF103_standard_peripheral/Source/gd32vf103_crc.c ****     return (CRC_DATA);
 163              		.loc 1 127 5 is_stmt 1
 164              		.loc 1 127 13 is_stmt 0
 165 0014 B7370240 		li	a5,1073885184
 166 0018 8843     		lw	a0,0(a5)
 128:../../firmware/GD32VF103_standard_peripheral/Source/gd32vf103_crc.c **** }
 167              		.loc 1 128 1
 168 001a 8280     		ret
 169              		.cfi_endproc
GAS LISTING /tmp/ccB3XmVG.s 			page 6


 170              	.LFE8:
 172              		.text
 173              	.Letext0:
 174              		.file 2 "/home/remahl/toolchain-gd32v/toolchain-gd32v-linux/compiler/riscv64-unknown-elf/include/m
 175              		.file 3 "/home/remahl/toolchain-gd32v/toolchain-gd32v-linux/compiler/riscv64-unknown-elf/include/s
 176              		.file 4 "../../firmware/GD32VF103_standard_peripheral/system_gd32vf103.h"
GAS LISTING /tmp/ccB3XmVG.s 			page 7


DEFINED SYMBOLS
                            *ABS*:0000000000000000 gd32vf103_crc.c
     /tmp/ccB3XmVG.s:13     .text.crc_deinit:0000000000000000 crc_deinit
     /tmp/ccB3XmVG.s:17     .text.crc_deinit:0000000000000000 .L0 
     /tmp/ccB3XmVG.s:18     .text.crc_deinit:0000000000000000 .L0 
     /tmp/ccB3XmVG.s:19     .text.crc_deinit:0000000000000000 .L0 
     /tmp/ccB3XmVG.s:20     .text.crc_deinit:0000000000000000 .L0 
     /tmp/ccB3XmVG.s:24     .text.crc_deinit:0000000000000008 .L0 
     /tmp/ccB3XmVG.s:25     .text.crc_deinit:0000000000000008 .L0 
     /tmp/ccB3XmVG.s:27     .text.crc_deinit:000000000000000c .L0 
     /tmp/ccB3XmVG.s:28     .text.crc_deinit:000000000000000c .L0 
     /tmp/ccB3XmVG.s:31     .text.crc_deinit:0000000000000010 .L0 
     /tmp/ccB3XmVG.s:32     .text.crc_deinit:0000000000000012 .L0 
     /tmp/ccB3XmVG.s:39     .text.crc_data_register_reset:0000000000000000 crc_data_register_reset
     /tmp/ccB3XmVG.s:42     .text.crc_data_register_reset:0000000000000000 .L0 
     /tmp/ccB3XmVG.s:43     .text.crc_data_register_reset:0000000000000000 .L0 
     /tmp/ccB3XmVG.s:44     .text.crc_data_register_reset:0000000000000000 .L0 
     /tmp/ccB3XmVG.s:45     .text.crc_data_register_reset:0000000000000000 .L0 
     /tmp/ccB3XmVG.s:50     .text.crc_data_register_reset:000000000000000c .L0 
     /tmp/ccB3XmVG.s:51     .text.crc_data_register_reset:000000000000000e .L0 
     /tmp/ccB3XmVG.s:58     .text.crc_data_register_read:0000000000000000 crc_data_register_read
     /tmp/ccB3XmVG.s:61     .text.crc_data_register_read:0000000000000000 .L0 
     /tmp/ccB3XmVG.s:62     .text.crc_data_register_read:0000000000000000 .L0 
     /tmp/ccB3XmVG.s:63     .text.crc_data_register_read:0000000000000000 .L0 
     /tmp/ccB3XmVG.s:64     .text.crc_data_register_read:0000000000000000 .L0 
     /tmp/ccB3XmVG.s:65     .text.crc_data_register_read:0000000000000000 .L0 
     /tmp/ccB3XmVG.s:69     .text.crc_data_register_read:0000000000000006 .L0 
     /tmp/ccB3XmVG.s:70     .text.crc_data_register_read:0000000000000006 .L0 
     /tmp/ccB3XmVG.s:71     .text.crc_data_register_read:0000000000000008 .L0 
     /tmp/ccB3XmVG.s:78     .text.crc_free_data_register_read:0000000000000000 crc_free_data_register_read
     /tmp/ccB3XmVG.s:81     .text.crc_free_data_register_read:0000000000000000 .L0 
     /tmp/ccB3XmVG.s:82     .text.crc_free_data_register_read:0000000000000000 .L0 
     /tmp/ccB3XmVG.s:83     .text.crc_free_data_register_read:0000000000000000 .L0 
     /tmp/ccB3XmVG.s:84     .text.crc_free_data_register_read:0000000000000000 .L0 
     /tmp/ccB3XmVG.s:85     .text.crc_free_data_register_read:0000000000000000 .L0 
     /tmp/ccB3XmVG.s:89     .text.crc_free_data_register_read:0000000000000006 .L0 
     /tmp/ccB3XmVG.s:90     .text.crc_free_data_register_read:0000000000000006 .L0 
     /tmp/ccB3XmVG.s:92     .text.crc_free_data_register_read:000000000000000c .L0 
     /tmp/ccB3XmVG.s:99     .text.crc_free_data_register_write:0000000000000000 crc_free_data_register_write
     /tmp/ccB3XmVG.s:102    .text.crc_free_data_register_write:0000000000000000 .L0 
     /tmp/ccB3XmVG.s:104    .text.crc_free_data_register_write:0000000000000000 .L0 
     /tmp/ccB3XmVG.s:105    .text.crc_free_data_register_write:0000000000000000 .L0 
     /tmp/ccB3XmVG.s:106    .text.crc_free_data_register_write:0000000000000000 .L0 
     /tmp/ccB3XmVG.s:109    .text.crc_free_data_register_write:0000000000000006 .L0 
     /tmp/ccB3XmVG.s:110    .text.crc_free_data_register_write:0000000000000008 .L0 
     /tmp/ccB3XmVG.s:117    .text.crc_single_data_calculate:0000000000000000 crc_single_data_calculate
     /tmp/ccB3XmVG.s:120    .text.crc_single_data_calculate:0000000000000000 .L0 
     /tmp/ccB3XmVG.s:122    .text.crc_single_data_calculate:0000000000000000 .L0 
     /tmp/ccB3XmVG.s:123    .text.crc_single_data_calculate:0000000000000000 .L0 
     /tmp/ccB3XmVG.s:124    .text.crc_single_data_calculate:0000000000000000 .L0 
     /tmp/ccB3XmVG.s:127    .text.crc_single_data_calculate:0000000000000006 .L0 
     /tmp/ccB3XmVG.s:128    .text.crc_single_data_calculate:0000000000000006 .L0 
     /tmp/ccB3XmVG.s:131    .text.crc_single_data_calculate:0000000000000008 .L0 
     /tmp/ccB3XmVG.s:132    .text.crc_single_data_calculate:000000000000000a .L0 
     /tmp/ccB3XmVG.s:139    .text.crc_block_data_calculate:0000000000000000 crc_block_data_calculate
     /tmp/ccB3XmVG.s:142    .text.crc_block_data_calculate:0000000000000000 .L0 
     /tmp/ccB3XmVG.s:144    .text.crc_block_data_calculate:0000000000000000 .L0 
GAS LISTING /tmp/ccB3XmVG.s 			page 8


     /tmp/ccB3XmVG.s:145    .text.crc_block_data_calculate:0000000000000000 .L0 
     /tmp/ccB3XmVG.s:146    .text.crc_block_data_calculate:0000000000000000 .L0 
     /tmp/ccB3XmVG.s:151    .text.crc_block_data_calculate:0000000000000006 .L0 
     /tmp/ccB3XmVG.s:155    .text.crc_block_data_calculate:000000000000000a .L0 
     /tmp/ccB3XmVG.s:156    .text.crc_block_data_calculate:000000000000000a .L0 
     /tmp/ccB3XmVG.s:159    .text.crc_block_data_calculate:000000000000000e .L0 
     /tmp/ccB3XmVG.s:161    .text.crc_block_data_calculate:0000000000000010 .L0 
     /tmp/ccB3XmVG.s:164    .text.crc_block_data_calculate:0000000000000014 .L0 
     /tmp/ccB3XmVG.s:165    .text.crc_block_data_calculate:0000000000000014 .L0 
     /tmp/ccB3XmVG.s:168    .text.crc_block_data_calculate:000000000000001a .L0 
     /tmp/ccB3XmVG.s:169    .text.crc_block_data_calculate:000000000000001c .L0 
     /tmp/ccB3XmVG.s:35     .text.crc_deinit:0000000000000012 .L0 
     /tmp/ccB3XmVG.s:54     .text.crc_data_register_reset:000000000000000e .L0 
     /tmp/ccB3XmVG.s:74     .text.crc_data_register_read:0000000000000008 .L0 
     /tmp/ccB3XmVG.s:95     .text.crc_free_data_register_read:000000000000000c .L0 
     /tmp/ccB3XmVG.s:113    .text.crc_free_data_register_write:0000000000000008 .L0 
     /tmp/ccB3XmVG.s:135    .text.crc_single_data_calculate:000000000000000a .L0 
     /tmp/ccB3XmVG.s:172    .text.crc_block_data_calculate:000000000000001c .L0 
                     .debug_frame:0000000000000000 .L0 
     /tmp/ccB3XmVG.s:162    .text.crc_block_data_calculate:0000000000000014 .L9
     /tmp/ccB3XmVG.s:153    .text.crc_block_data_calculate:000000000000000a .L10
     /tmp/ccB3XmVG.s:430    .debug_abbrev:0000000000000000 .Ldebug_abbrev0
     /tmp/ccB3XmVG.s:762    .debug_str:0000000000000000 .LASF27
     /tmp/ccB3XmVG.s:766    .debug_str:0000000000000084 .LASF28
     /tmp/ccB3XmVG.s:778    .debug_str:0000000000000111 .LASF29
     /tmp/ccB3XmVG.s:742    .debug_ranges:0000000000000000 .Ldebug_ranges0
     /tmp/ccB3XmVG.s:760    .debug_line:0000000000000000 .Ldebug_line0
     /tmp/ccB3XmVG.s:788    .debug_str:0000000000000190 .LASF0
     /tmp/ccB3XmVG.s:820    .debug_str:0000000000000266 .LASF1
     /tmp/ccB3XmVG.s:764    .debug_str:000000000000007a .LASF6
     /tmp/ccB3XmVG.s:782    .debug_str:000000000000015b .LASF2
     /tmp/ccB3XmVG.s:812    .debug_str:000000000000023e .LASF3
     /tmp/ccB3XmVG.s:776    .debug_str:00000000000000fe .LASF4
     /tmp/ccB3XmVG.s:816    .debug_str:0000000000000251 .LASF5
     /tmp/ccB3XmVG.s:786    .debug_str:0000000000000185 .LASF7
     /tmp/ccB3XmVG.s:774    .debug_str:00000000000000ec .LASF8
     /tmp/ccB3XmVG.s:804    .debug_str:0000000000000202 .LASF9
     /tmp/ccB3XmVG.s:794    .debug_str:00000000000001ad .LASF10
     /tmp/ccB3XmVG.s:796    .debug_str:00000000000001c4 .LASF11
     /tmp/ccB3XmVG.s:814    .debug_str:0000000000000248 .LASF12
     /tmp/ccB3XmVG.s:806    .debug_str:0000000000000210 .LASF30
     /tmp/ccB3XmVG.s:818    .debug_str:000000000000025a .LASF13
     /tmp/ccB3XmVG.s:802    .debug_str:00000000000001e9 .LASF16
     /tmp/ccB3XmVG.s:140    .text.crc_block_data_calculate:0000000000000000 .LFB8
     /tmp/ccB3XmVG.s:170    .text.crc_block_data_calculate:000000000000001c .LFE8
     /tmp/ccB3XmVG.s:780    .debug_str:0000000000000155 .LASF14
     /tmp/ccB3XmVG.s:669    .debug_loc:0000000000000000 .LLST1
     /tmp/ccB3XmVG.s:772    .debug_str:00000000000000e7 .LASF15
     /tmp/ccB3XmVG.s:683    .debug_loc:0000000000000021 .LLST2
     /tmp/ccB3XmVG.s:808    .debug_str:0000000000000220 .LASF21
     /tmp/ccB3XmVG.s:697    .debug_loc:0000000000000042 .LLST3
     /tmp/ccB3XmVG.s:768    .debug_str:00000000000000c8 .LASF17
     /tmp/ccB3XmVG.s:118    .text.crc_single_data_calculate:0000000000000000 .LFB7
     /tmp/ccB3XmVG.s:133    .text.crc_single_data_calculate:000000000000000a .LFE7
     /tmp/ccB3XmVG.s:798    .debug_str:00000000000001cc .LASF18
     /tmp/ccB3XmVG.s:705    .debug_loc:0000000000000056 .LLST0
     /tmp/ccB3XmVG.s:824    .debug_str:000000000000027d .LASF31
GAS LISTING /tmp/ccB3XmVG.s 			page 9


     /tmp/ccB3XmVG.s:100    .text.crc_free_data_register_write:0000000000000000 .LFB6
     /tmp/ccB3XmVG.s:111    .text.crc_free_data_register_write:0000000000000008 .LFE6
     /tmp/ccB3XmVG.s:790    .debug_str:000000000000019d .LASF19
     /tmp/ccB3XmVG.s:784    .debug_str:0000000000000169 .LASF20
     /tmp/ccB3XmVG.s:79     .text.crc_free_data_register_read:0000000000000000 .LFB5
     /tmp/ccB3XmVG.s:93     .text.crc_free_data_register_read:000000000000000c .LFE5
     /tmp/ccB3XmVG.s:792    .debug_str:00000000000001a7 .LASF22
     /tmp/ccB3XmVG.s:800    .debug_str:00000000000001d2 .LASF23
     /tmp/ccB3XmVG.s:59     .text.crc_data_register_read:0000000000000000 .LFB4
     /tmp/ccB3XmVG.s:72     .text.crc_data_register_read:0000000000000008 .LFE4
     /tmp/ccB3XmVG.s:770    .debug_str:00000000000000e2 .LASF24
     /tmp/ccB3XmVG.s:810    .debug_str:0000000000000226 .LASF25
     /tmp/ccB3XmVG.s:40     .text.crc_data_register_reset:0000000000000000 .LFB3
     /tmp/ccB3XmVG.s:52     .text.crc_data_register_reset:000000000000000e .LFE3
     /tmp/ccB3XmVG.s:822    .debug_str:0000000000000272 .LASF26
     /tmp/ccB3XmVG.s:14     .text.crc_deinit:0000000000000000 .LFB2
     /tmp/ccB3XmVG.s:33     .text.crc_deinit:0000000000000012 .LFE2
     /tmp/ccB3XmVG.s:143    .text.crc_block_data_calculate:0000000000000000 .LVL5
     /tmp/ccB3XmVG.s:152    .text.crc_block_data_calculate:000000000000000a .LVL7
     /tmp/ccB3XmVG.s:148    .text.crc_block_data_calculate:0000000000000004 .LVL6
     /tmp/ccB3XmVG.s:121    .text.crc_single_data_calculate:0000000000000000 .LVL3
     /tmp/ccB3XmVG.s:129    .text.crc_single_data_calculate:0000000000000008 .LVL4
     /tmp/ccB3XmVG.s:178    .debug_info:0000000000000000 .Ldebug_info0

NO UNDEFINED SYMBOLS
