GAS LISTING /tmp/cc7w2G7Q.s 			page 1


   1              		.file	"gd32vf103_dac.c"
   2              		.option nopic
   3              		.attribute arch, "rv32i2p0_m2p0_a2p0_c2p0"
   4              		.attribute unaligned_access, 0
   5              		.attribute stack_align, 16
   6              		.text
   7              	.Ltext0:
   8              		.cfi_sections	.debug_frame
   9              		.section	.text.dac_deinit,"ax",@progbits
  10              		.align	1
  11              		.globl	dac_deinit
  13              	dac_deinit:
  14              	.LFB2:
  15              		.file 1 "../../firmware/GD32VF103_standard_peripheral/Source/gd32vf103_dac.c"
   1:../../firmware/GD32VF103_standard_peripheral/Source/gd32vf103_dac.c **** /*!
   2:../../firmware/GD32VF103_standard_peripheral/Source/gd32vf103_dac.c ****     \file    gd32vf103_dac.c
   3:../../firmware/GD32VF103_standard_peripheral/Source/gd32vf103_dac.c ****     \brief   DAC driver
   4:../../firmware/GD32VF103_standard_peripheral/Source/gd32vf103_dac.c **** 
   5:../../firmware/GD32VF103_standard_peripheral/Source/gd32vf103_dac.c ****     \version 2019-06-05, V1.0.0, firmware for GD32VF103
   6:../../firmware/GD32VF103_standard_peripheral/Source/gd32vf103_dac.c ****     \version 2020-08-04, V1.1.0, firmware for GD32VF103
   7:../../firmware/GD32VF103_standard_peripheral/Source/gd32vf103_dac.c **** */
   8:../../firmware/GD32VF103_standard_peripheral/Source/gd32vf103_dac.c **** 
   9:../../firmware/GD32VF103_standard_peripheral/Source/gd32vf103_dac.c **** /*
  10:../../firmware/GD32VF103_standard_peripheral/Source/gd32vf103_dac.c ****     Copyright (c) 2020, GigaDevice Semiconductor Inc.
  11:../../firmware/GD32VF103_standard_peripheral/Source/gd32vf103_dac.c **** 
  12:../../firmware/GD32VF103_standard_peripheral/Source/gd32vf103_dac.c ****     Redistribution and use in source and binary forms, with or without modification, 
  13:../../firmware/GD32VF103_standard_peripheral/Source/gd32vf103_dac.c **** are permitted provided that the following conditions are met:
  14:../../firmware/GD32VF103_standard_peripheral/Source/gd32vf103_dac.c **** 
  15:../../firmware/GD32VF103_standard_peripheral/Source/gd32vf103_dac.c ****     1. Redistributions of source code must retain the above copyright notice, this 
  16:../../firmware/GD32VF103_standard_peripheral/Source/gd32vf103_dac.c ****        list of conditions and the following disclaimer.
  17:../../firmware/GD32VF103_standard_peripheral/Source/gd32vf103_dac.c ****     2. Redistributions in binary form must reproduce the above copyright notice, 
  18:../../firmware/GD32VF103_standard_peripheral/Source/gd32vf103_dac.c ****        this list of conditions and the following disclaimer in the documentation 
  19:../../firmware/GD32VF103_standard_peripheral/Source/gd32vf103_dac.c ****        and/or other materials provided with the distribution.
  20:../../firmware/GD32VF103_standard_peripheral/Source/gd32vf103_dac.c ****     3. Neither the name of the copyright holder nor the names of its contributors 
  21:../../firmware/GD32VF103_standard_peripheral/Source/gd32vf103_dac.c ****        may be used to endorse or promote products derived from this software without 
  22:../../firmware/GD32VF103_standard_peripheral/Source/gd32vf103_dac.c ****        specific prior written permission.
  23:../../firmware/GD32VF103_standard_peripheral/Source/gd32vf103_dac.c **** 
  24:../../firmware/GD32VF103_standard_peripheral/Source/gd32vf103_dac.c ****     THIS SOFTWARE IS PROVIDED BY THE COPYRIGHT HOLDERS AND CONTRIBUTORS "AS IS" 
  25:../../firmware/GD32VF103_standard_peripheral/Source/gd32vf103_dac.c **** AND ANY EXPRESS OR IMPLIED WARRANTIES, INCLUDING, BUT NOT LIMITED TO, THE IMPLIED 
  26:../../firmware/GD32VF103_standard_peripheral/Source/gd32vf103_dac.c **** WARRANTIES OF MERCHANTABILITY AND FITNESS FOR A PARTICULAR PURPOSE ARE DISCLAIMED. 
  27:../../firmware/GD32VF103_standard_peripheral/Source/gd32vf103_dac.c **** IN NO EVENT SHALL THE COPYRIGHT HOLDER OR CONTRIBUTORS BE LIABLE FOR ANY DIRECT, 
  28:../../firmware/GD32VF103_standard_peripheral/Source/gd32vf103_dac.c **** INDIRECT, INCIDENTAL, SPECIAL, EXEMPLARY, OR CONSEQUENTIAL DAMAGES (INCLUDING, BUT 
  29:../../firmware/GD32VF103_standard_peripheral/Source/gd32vf103_dac.c **** NOT LIMITED TO, PROCUREMENT OF SUBSTITUTE GOODS OR SERVICES; LOSS OF USE, DATA, OR 
  30:../../firmware/GD32VF103_standard_peripheral/Source/gd32vf103_dac.c **** PROFITS; OR BUSINESS INTERRUPTION) HOWEVER CAUSED AND ON ANY THEORY OF LIABILITY, 
  31:../../firmware/GD32VF103_standard_peripheral/Source/gd32vf103_dac.c **** WHETHER IN CONTRACT, STRICT LIABILITY, OR TORT (INCLUDING NEGLIGENCE OR OTHERWISE) 
  32:../../firmware/GD32VF103_standard_peripheral/Source/gd32vf103_dac.c **** ARISING IN ANY WAY OUT OF THE USE OF THIS SOFTWARE, EVEN IF ADVISED OF THE POSSIBILITY 
  33:../../firmware/GD32VF103_standard_peripheral/Source/gd32vf103_dac.c **** OF SUCH DAMAGE.
  34:../../firmware/GD32VF103_standard_peripheral/Source/gd32vf103_dac.c **** */
  35:../../firmware/GD32VF103_standard_peripheral/Source/gd32vf103_dac.c **** 
  36:../../firmware/GD32VF103_standard_peripheral/Source/gd32vf103_dac.c **** #include "gd32vf103_dac.h"
  37:../../firmware/GD32VF103_standard_peripheral/Source/gd32vf103_dac.c **** 
  38:../../firmware/GD32VF103_standard_peripheral/Source/gd32vf103_dac.c **** /* DAC register bit offset */
  39:../../firmware/GD32VF103_standard_peripheral/Source/gd32vf103_dac.c **** #define DAC1_REG_OFFSET           ((uint32_t)16U)
  40:../../firmware/GD32VF103_standard_peripheral/Source/gd32vf103_dac.c **** #define DH_12BIT_OFFSET           ((uint32_t)16U)
  41:../../firmware/GD32VF103_standard_peripheral/Source/gd32vf103_dac.c **** #define DH_8BIT_OFFSET            ((uint32_t)8U)
  42:../../firmware/GD32VF103_standard_peripheral/Source/gd32vf103_dac.c **** 
  43:../../firmware/GD32VF103_standard_peripheral/Source/gd32vf103_dac.c **** /*!
GAS LISTING /tmp/cc7w2G7Q.s 			page 2


  44:../../firmware/GD32VF103_standard_peripheral/Source/gd32vf103_dac.c ****     \brief      deinitialize DAC
  45:../../firmware/GD32VF103_standard_peripheral/Source/gd32vf103_dac.c ****     \param[in]  none
  46:../../firmware/GD32VF103_standard_peripheral/Source/gd32vf103_dac.c ****     \param[out] none
  47:../../firmware/GD32VF103_standard_peripheral/Source/gd32vf103_dac.c ****     \retval     none
  48:../../firmware/GD32VF103_standard_peripheral/Source/gd32vf103_dac.c **** */
  49:../../firmware/GD32VF103_standard_peripheral/Source/gd32vf103_dac.c **** void dac_deinit(void)
  50:../../firmware/GD32VF103_standard_peripheral/Source/gd32vf103_dac.c **** {
  16              		.loc 1 50 1
  17              		.cfi_startproc
  51:../../firmware/GD32VF103_standard_peripheral/Source/gd32vf103_dac.c ****     rcu_periph_reset_enable(RCU_DACRST);
  18              		.loc 1 51 5
  50:../../firmware/GD32VF103_standard_peripheral/Source/gd32vf103_dac.c ****     rcu_periph_reset_enable(RCU_DACRST);
  19              		.loc 1 50 1 is_stmt 0
  20 0000 4111     		addi	sp,sp,-16
  21              	.LCFI0:
  22              		.cfi_def_cfa_offset 16
  23              		.loc 1 51 5
  24 0002 1305D041 		li	a0,1053
  50:../../firmware/GD32VF103_standard_peripheral/Source/gd32vf103_dac.c ****     rcu_periph_reset_enable(RCU_DACRST);
  25              		.loc 1 50 1
  26 0006 06C6     		sw	ra,12(sp)
  27              		.cfi_offset 1, -4
  28              		.loc 1 51 5
  29 0008 97000000 		call	rcu_periph_reset_enable
  29      E7800000 
  30              	.LVL0:
  52:../../firmware/GD32VF103_standard_peripheral/Source/gd32vf103_dac.c ****     rcu_periph_reset_disable(RCU_DACRST);
  31              		.loc 1 52 5 is_stmt 1
  53:../../firmware/GD32VF103_standard_peripheral/Source/gd32vf103_dac.c **** }
  32              		.loc 1 53 1 is_stmt 0
  33 0010 B240     		lw	ra,12(sp)
  34              		.cfi_restore 1
  52:../../firmware/GD32VF103_standard_peripheral/Source/gd32vf103_dac.c ****     rcu_periph_reset_disable(RCU_DACRST);
  35              		.loc 1 52 5
  36 0012 1305D041 		li	a0,1053
  37              		.loc 1 53 1
  38 0016 4101     		addi	sp,sp,16
  39              	.LCFI1:
  40              		.cfi_def_cfa_offset 0
  52:../../firmware/GD32VF103_standard_peripheral/Source/gd32vf103_dac.c ****     rcu_periph_reset_disable(RCU_DACRST);
  41              		.loc 1 52 5
  42 0018 17030000 		tail	rcu_periph_reset_disable
  42      67000300 
  43              	.LVL1:
  44              		.cfi_endproc
  45              	.LFE2:
  47              		.section	.text.dac_enable,"ax",@progbits
  48              		.align	1
  49              		.globl	dac_enable
  51              	dac_enable:
  52              	.LFB3:
  54:../../firmware/GD32VF103_standard_peripheral/Source/gd32vf103_dac.c **** 
  55:../../firmware/GD32VF103_standard_peripheral/Source/gd32vf103_dac.c **** /*!
  56:../../firmware/GD32VF103_standard_peripheral/Source/gd32vf103_dac.c ****     \brief      enable DAC
  57:../../firmware/GD32VF103_standard_peripheral/Source/gd32vf103_dac.c ****     \param[in]  dac_periph: DACx(x = 0,1)
  58:../../firmware/GD32VF103_standard_peripheral/Source/gd32vf103_dac.c ****     \param[out] none
  59:../../firmware/GD32VF103_standard_peripheral/Source/gd32vf103_dac.c ****     \retval     none
GAS LISTING /tmp/cc7w2G7Q.s 			page 3


  60:../../firmware/GD32VF103_standard_peripheral/Source/gd32vf103_dac.c **** */
  61:../../firmware/GD32VF103_standard_peripheral/Source/gd32vf103_dac.c **** void dac_enable(uint32_t dac_periph)
  62:../../firmware/GD32VF103_standard_peripheral/Source/gd32vf103_dac.c **** {
  53              		.loc 1 62 1 is_stmt 1
  54              		.cfi_startproc
  55              	.LVL2:
  63:../../firmware/GD32VF103_standard_peripheral/Source/gd32vf103_dac.c ****     if(DAC0 == dac_periph){
  56              		.loc 1 63 5
  64:../../firmware/GD32VF103_standard_peripheral/Source/gd32vf103_dac.c ****         DAC_CTL |= DAC_CTL_DEN0;
  57              		.loc 1 64 17 is_stmt 0
  58 0000 37770040 		li	a4,1073770496
  59 0004 83270740 		lw	a5,1024(a4)
  63:../../firmware/GD32VF103_standard_peripheral/Source/gd32vf103_dac.c ****     if(DAC0 == dac_periph){
  60              		.loc 1 63 7
  61 0008 11E5     		bne	a0,zero,.L5
  62              		.loc 1 64 9 is_stmt 1
  63              		.loc 1 64 17 is_stmt 0
  64 000a 93E71700 		ori	a5,a5,1
  65 000e 2320F740 		sw	a5,1024(a4)
  66 0012 8280     		ret
  67              	.L5:
  65:../../firmware/GD32VF103_standard_peripheral/Source/gd32vf103_dac.c ****     }else{
  66:../../firmware/GD32VF103_standard_peripheral/Source/gd32vf103_dac.c ****         DAC_CTL |= DAC_CTL_DEN1;
  68              		.loc 1 66 9 is_stmt 1
  69              		.loc 1 66 17 is_stmt 0
  70 0014 C166     		li	a3,65536
  71 0016 D58F     		or	a5,a5,a3
  72 0018 2320F740 		sw	a5,1024(a4)
  67:../../firmware/GD32VF103_standard_peripheral/Source/gd32vf103_dac.c ****     }
  68:../../firmware/GD32VF103_standard_peripheral/Source/gd32vf103_dac.c **** } 
  73              		.loc 1 68 1
  74 001c 8280     		ret
  75              		.cfi_endproc
  76              	.LFE3:
  78              		.section	.text.dac_disable,"ax",@progbits
  79              		.align	1
  80              		.globl	dac_disable
  82              	dac_disable:
  83              	.LFB4:
  69:../../firmware/GD32VF103_standard_peripheral/Source/gd32vf103_dac.c **** 
  70:../../firmware/GD32VF103_standard_peripheral/Source/gd32vf103_dac.c **** /*!
  71:../../firmware/GD32VF103_standard_peripheral/Source/gd32vf103_dac.c ****     \brief      disable DAC
  72:../../firmware/GD32VF103_standard_peripheral/Source/gd32vf103_dac.c ****     \param[in]  dac_periph: DACx(x = 0,1)
  73:../../firmware/GD32VF103_standard_peripheral/Source/gd32vf103_dac.c ****     \param[out] none
  74:../../firmware/GD32VF103_standard_peripheral/Source/gd32vf103_dac.c ****     \retval     none
  75:../../firmware/GD32VF103_standard_peripheral/Source/gd32vf103_dac.c **** */
  76:../../firmware/GD32VF103_standard_peripheral/Source/gd32vf103_dac.c **** void dac_disable(uint32_t dac_periph)
  77:../../firmware/GD32VF103_standard_peripheral/Source/gd32vf103_dac.c **** {
  84              		.loc 1 77 1 is_stmt 1
  85              		.cfi_startproc
  86              	.LVL3:
  78:../../firmware/GD32VF103_standard_peripheral/Source/gd32vf103_dac.c ****     if(DAC0 == dac_periph){
  87              		.loc 1 78 5
  88              		.loc 1 78 7 is_stmt 0
  89 0000 09E9     		bne	a0,zero,.L8
  79:../../firmware/GD32VF103_standard_peripheral/Source/gd32vf103_dac.c ****         DAC_CTL &= ~DAC_CTL_DEN0;
  90              		.loc 1 79 9 is_stmt 1
GAS LISTING /tmp/cc7w2G7Q.s 			page 4


  91              		.loc 1 79 17 is_stmt 0
  92 0002 37770040 		li	a4,1073770496
  93 0006 83270740 		lw	a5,1024(a4)
  94 000a F99B     		andi	a5,a5,-2
  95 000c 2320F740 		sw	a5,1024(a4)
  96 0010 8280     		ret
  97              	.L8:
  80:../../firmware/GD32VF103_standard_peripheral/Source/gd32vf103_dac.c ****     }else{
  81:../../firmware/GD32VF103_standard_peripheral/Source/gd32vf103_dac.c ****         DAC_CTL &= ~DAC_CTL_DEN1;
  98              		.loc 1 81 9 is_stmt 1
  99              		.loc 1 81 17 is_stmt 0
 100 0012 B7760040 		li	a3,1073770496
 101 0016 83A70640 		lw	a5,1024(a3)
 102 001a 4177     		li	a4,-65536
 103 001c 7D17     		addi	a4,a4,-1
 104 001e F98F     		and	a5,a5,a4
 105 0020 23A0F640 		sw	a5,1024(a3)
  82:../../firmware/GD32VF103_standard_peripheral/Source/gd32vf103_dac.c ****     }
  83:../../firmware/GD32VF103_standard_peripheral/Source/gd32vf103_dac.c **** }
 106              		.loc 1 83 1
 107 0024 8280     		ret
 108              		.cfi_endproc
 109              	.LFE4:
 111              		.section	.text.dac_dma_enable,"ax",@progbits
 112              		.align	1
 113              		.globl	dac_dma_enable
 115              	dac_dma_enable:
 116              	.LFB5:
  84:../../firmware/GD32VF103_standard_peripheral/Source/gd32vf103_dac.c **** 
  85:../../firmware/GD32VF103_standard_peripheral/Source/gd32vf103_dac.c **** /*!
  86:../../firmware/GD32VF103_standard_peripheral/Source/gd32vf103_dac.c ****     \brief      enable DAC DMA function
  87:../../firmware/GD32VF103_standard_peripheral/Source/gd32vf103_dac.c ****     \param[in]  dac_periph: DACx(x = 0,1)
  88:../../firmware/GD32VF103_standard_peripheral/Source/gd32vf103_dac.c ****     \param[out] none
  89:../../firmware/GD32VF103_standard_peripheral/Source/gd32vf103_dac.c ****     \retval     none
  90:../../firmware/GD32VF103_standard_peripheral/Source/gd32vf103_dac.c **** */
  91:../../firmware/GD32VF103_standard_peripheral/Source/gd32vf103_dac.c **** void dac_dma_enable(uint32_t dac_periph)
  92:../../firmware/GD32VF103_standard_peripheral/Source/gd32vf103_dac.c **** {
 117              		.loc 1 92 1 is_stmt 1
 118              		.cfi_startproc
 119              	.LVL4:
  93:../../firmware/GD32VF103_standard_peripheral/Source/gd32vf103_dac.c ****     if(DAC0 == dac_periph){
 120              		.loc 1 93 5
  94:../../firmware/GD32VF103_standard_peripheral/Source/gd32vf103_dac.c ****         DAC_CTL |= DAC_CTL_DDMAEN0;
 121              		.loc 1 94 17 is_stmt 0
 122 0000 37770040 		li	a4,1073770496
 123 0004 83270740 		lw	a5,1024(a4)
  93:../../firmware/GD32VF103_standard_peripheral/Source/gd32vf103_dac.c ****     if(DAC0 == dac_periph){
 124              		.loc 1 93 7
 125 0008 11E5     		bne	a0,zero,.L11
 126              		.loc 1 94 9 is_stmt 1
 127              		.loc 1 94 17 is_stmt 0
 128 000a 8566     		li	a3,4096
 129 000c D58F     		or	a5,a5,a3
 130 000e 2320F740 		sw	a5,1024(a4)
 131 0012 8280     		ret
 132              	.L11:
  95:../../firmware/GD32VF103_standard_peripheral/Source/gd32vf103_dac.c ****     }else{
GAS LISTING /tmp/cc7w2G7Q.s 			page 5


  96:../../firmware/GD32VF103_standard_peripheral/Source/gd32vf103_dac.c ****         DAC_CTL |= DAC_CTL_DDMAEN1;
 133              		.loc 1 96 9 is_stmt 1
 134              		.loc 1 96 17 is_stmt 0
 135 0014 B7060010 		li	a3,268435456
 136 0018 D58F     		or	a5,a5,a3
 137 001a 2320F740 		sw	a5,1024(a4)
  97:../../firmware/GD32VF103_standard_peripheral/Source/gd32vf103_dac.c ****     }
  98:../../firmware/GD32VF103_standard_peripheral/Source/gd32vf103_dac.c **** }
 138              		.loc 1 98 1
 139 001e 8280     		ret
 140              		.cfi_endproc
 141              	.LFE5:
 143              		.section	.text.dac_dma_disable,"ax",@progbits
 144              		.align	1
 145              		.globl	dac_dma_disable
 147              	dac_dma_disable:
 148              	.LFB6:
  99:../../firmware/GD32VF103_standard_peripheral/Source/gd32vf103_dac.c **** 
 100:../../firmware/GD32VF103_standard_peripheral/Source/gd32vf103_dac.c **** /*!
 101:../../firmware/GD32VF103_standard_peripheral/Source/gd32vf103_dac.c ****     \brief      disable DAC DMA function
 102:../../firmware/GD32VF103_standard_peripheral/Source/gd32vf103_dac.c ****     \param[in]  dac_periph: DACx(x = 0,1)
 103:../../firmware/GD32VF103_standard_peripheral/Source/gd32vf103_dac.c ****     \param[out] none
 104:../../firmware/GD32VF103_standard_peripheral/Source/gd32vf103_dac.c ****     \retval     none
 105:../../firmware/GD32VF103_standard_peripheral/Source/gd32vf103_dac.c **** */
 106:../../firmware/GD32VF103_standard_peripheral/Source/gd32vf103_dac.c **** void dac_dma_disable(uint32_t dac_periph)
 107:../../firmware/GD32VF103_standard_peripheral/Source/gd32vf103_dac.c **** {
 149              		.loc 1 107 1 is_stmt 1
 150              		.cfi_startproc
 151              	.LVL5:
 108:../../firmware/GD32VF103_standard_peripheral/Source/gd32vf103_dac.c ****     if(DAC0 == dac_periph){
 152              		.loc 1 108 5
 109:../../firmware/GD32VF103_standard_peripheral/Source/gd32vf103_dac.c ****         DAC_CTL &= ~DAC_CTL_DDMAEN0;
 153              		.loc 1 109 17 is_stmt 0
 154 0000 B7760040 		li	a3,1073770496
 155 0004 83A70640 		lw	a5,1024(a3)
 108:../../firmware/GD32VF103_standard_peripheral/Source/gd32vf103_dac.c ****     if(DAC0 == dac_periph){
 156              		.loc 1 108 7
 157 0008 19E5     		bne	a0,zero,.L14
 158              		.loc 1 109 9 is_stmt 1
 159              		.loc 1 109 17 is_stmt 0
 160 000a 7D77     		li	a4,-4096
 161 000c 7D17     		addi	a4,a4,-1
 162 000e F98F     		and	a5,a5,a4
 163 0010 23A0F640 		sw	a5,1024(a3)
 164 0014 8280     		ret
 165              	.L14:
 110:../../firmware/GD32VF103_standard_peripheral/Source/gd32vf103_dac.c ****     }else{
 111:../../firmware/GD32VF103_standard_peripheral/Source/gd32vf103_dac.c ****         DAC_CTL &= ~DAC_CTL_DDMAEN1;
 166              		.loc 1 111 9 is_stmt 1
 167              		.loc 1 111 17 is_stmt 0
 168 0016 370700F0 		li	a4,-268435456
 169 001a 7D17     		addi	a4,a4,-1
 170 001c F98F     		and	a5,a5,a4
 171 001e 23A0F640 		sw	a5,1024(a3)
 112:../../firmware/GD32VF103_standard_peripheral/Source/gd32vf103_dac.c ****     }
 113:../../firmware/GD32VF103_standard_peripheral/Source/gd32vf103_dac.c **** }
 172              		.loc 1 113 1
GAS LISTING /tmp/cc7w2G7Q.s 			page 6


 173 0022 8280     		ret
 174              		.cfi_endproc
 175              	.LFE6:
 177              		.section	.text.dac_output_buffer_enable,"ax",@progbits
 178              		.align	1
 179              		.globl	dac_output_buffer_enable
 181              	dac_output_buffer_enable:
 182              	.LFB7:
 114:../../firmware/GD32VF103_standard_peripheral/Source/gd32vf103_dac.c **** 
 115:../../firmware/GD32VF103_standard_peripheral/Source/gd32vf103_dac.c **** /*!
 116:../../firmware/GD32VF103_standard_peripheral/Source/gd32vf103_dac.c ****     \brief      enable DAC output buffer
 117:../../firmware/GD32VF103_standard_peripheral/Source/gd32vf103_dac.c ****     \param[in]  dac_periph: DACx(x = 0,1)
 118:../../firmware/GD32VF103_standard_peripheral/Source/gd32vf103_dac.c ****     \param[out] none
 119:../../firmware/GD32VF103_standard_peripheral/Source/gd32vf103_dac.c ****     \retval     none
 120:../../firmware/GD32VF103_standard_peripheral/Source/gd32vf103_dac.c **** */
 121:../../firmware/GD32VF103_standard_peripheral/Source/gd32vf103_dac.c **** void dac_output_buffer_enable(uint32_t dac_periph)
 122:../../firmware/GD32VF103_standard_peripheral/Source/gd32vf103_dac.c **** {
 183              		.loc 1 122 1 is_stmt 1
 184              		.cfi_startproc
 185              	.LVL6:
 123:../../firmware/GD32VF103_standard_peripheral/Source/gd32vf103_dac.c ****     if(DAC0 == dac_periph){
 186              		.loc 1 123 5
 187              		.loc 1 123 7 is_stmt 0
 188 0000 09E9     		bne	a0,zero,.L17
 124:../../firmware/GD32VF103_standard_peripheral/Source/gd32vf103_dac.c ****         DAC_CTL &= ~DAC_CTL_DBOFF0;
 189              		.loc 1 124 9 is_stmt 1
 190              		.loc 1 124 17 is_stmt 0
 191 0002 37770040 		li	a4,1073770496
 192 0006 83270740 		lw	a5,1024(a4)
 193 000a F59B     		andi	a5,a5,-3
 194 000c 2320F740 		sw	a5,1024(a4)
 195 0010 8280     		ret
 196              	.L17:
 125:../../firmware/GD32VF103_standard_peripheral/Source/gd32vf103_dac.c ****     }else{
 126:../../firmware/GD32VF103_standard_peripheral/Source/gd32vf103_dac.c ****         DAC_CTL &= ~DAC_CTL_DBOFF1;
 197              		.loc 1 126 9 is_stmt 1
 198              		.loc 1 126 17 is_stmt 0
 199 0012 B7760040 		li	a3,1073770496
 200 0016 83A70640 		lw	a5,1024(a3)
 201 001a 0177     		li	a4,-131072
 202 001c 7D17     		addi	a4,a4,-1
 203 001e F98F     		and	a5,a5,a4
 204 0020 23A0F640 		sw	a5,1024(a3)
 127:../../firmware/GD32VF103_standard_peripheral/Source/gd32vf103_dac.c ****     }
 128:../../firmware/GD32VF103_standard_peripheral/Source/gd32vf103_dac.c **** }
 205              		.loc 1 128 1
 206 0024 8280     		ret
 207              		.cfi_endproc
 208              	.LFE7:
 210              		.section	.text.dac_output_buffer_disable,"ax",@progbits
 211              		.align	1
 212              		.globl	dac_output_buffer_disable
 214              	dac_output_buffer_disable:
 215              	.LFB8:
 129:../../firmware/GD32VF103_standard_peripheral/Source/gd32vf103_dac.c **** 
 130:../../firmware/GD32VF103_standard_peripheral/Source/gd32vf103_dac.c **** /*!
 131:../../firmware/GD32VF103_standard_peripheral/Source/gd32vf103_dac.c ****     \brief      disable DAC output buffer
GAS LISTING /tmp/cc7w2G7Q.s 			page 7


 132:../../firmware/GD32VF103_standard_peripheral/Source/gd32vf103_dac.c ****     \param[in]  dac_periph: DACx(x = 0,1)
 133:../../firmware/GD32VF103_standard_peripheral/Source/gd32vf103_dac.c ****     \param[out] none
 134:../../firmware/GD32VF103_standard_peripheral/Source/gd32vf103_dac.c ****     \retval     none
 135:../../firmware/GD32VF103_standard_peripheral/Source/gd32vf103_dac.c **** */
 136:../../firmware/GD32VF103_standard_peripheral/Source/gd32vf103_dac.c **** void dac_output_buffer_disable(uint32_t dac_periph)
 137:../../firmware/GD32VF103_standard_peripheral/Source/gd32vf103_dac.c **** {
 216              		.loc 1 137 1 is_stmt 1
 217              		.cfi_startproc
 218              	.LVL7:
 138:../../firmware/GD32VF103_standard_peripheral/Source/gd32vf103_dac.c ****     if(DAC0 == dac_periph){
 219              		.loc 1 138 5
 139:../../firmware/GD32VF103_standard_peripheral/Source/gd32vf103_dac.c ****         DAC_CTL |= DAC_CTL_DBOFF0;
 220              		.loc 1 139 17 is_stmt 0
 221 0000 37770040 		li	a4,1073770496
 222 0004 83270740 		lw	a5,1024(a4)
 138:../../firmware/GD32VF103_standard_peripheral/Source/gd32vf103_dac.c ****     if(DAC0 == dac_periph){
 223              		.loc 1 138 7
 224 0008 11E5     		bne	a0,zero,.L20
 225              		.loc 1 139 9 is_stmt 1
 226              		.loc 1 139 17 is_stmt 0
 227 000a 93E72700 		ori	a5,a5,2
 228 000e 2320F740 		sw	a5,1024(a4)
 229 0012 8280     		ret
 230              	.L20:
 140:../../firmware/GD32VF103_standard_peripheral/Source/gd32vf103_dac.c ****     }else{
 141:../../firmware/GD32VF103_standard_peripheral/Source/gd32vf103_dac.c ****         DAC_CTL |= DAC_CTL_DBOFF1;
 231              		.loc 1 141 9 is_stmt 1
 232              		.loc 1 141 17 is_stmt 0
 233 0014 B7060200 		li	a3,131072
 234 0018 D58F     		or	a5,a5,a3
 235 001a 2320F740 		sw	a5,1024(a4)
 142:../../firmware/GD32VF103_standard_peripheral/Source/gd32vf103_dac.c ****     }
 143:../../firmware/GD32VF103_standard_peripheral/Source/gd32vf103_dac.c **** }
 236              		.loc 1 143 1
 237 001e 8280     		ret
 238              		.cfi_endproc
 239              	.LFE8:
 241              		.section	.text.dac_output_value_get,"ax",@progbits
 242              		.align	1
 243              		.globl	dac_output_value_get
 245              	dac_output_value_get:
 246              	.LFB9:
 144:../../firmware/GD32VF103_standard_peripheral/Source/gd32vf103_dac.c **** 
 145:../../firmware/GD32VF103_standard_peripheral/Source/gd32vf103_dac.c **** /*!
 146:../../firmware/GD32VF103_standard_peripheral/Source/gd32vf103_dac.c ****     \brief      get DAC output value
 147:../../firmware/GD32VF103_standard_peripheral/Source/gd32vf103_dac.c ****     \param[in]  dac_periph: DACx(x = 0,1)
 148:../../firmware/GD32VF103_standard_peripheral/Source/gd32vf103_dac.c ****     \param[out] none
 149:../../firmware/GD32VF103_standard_peripheral/Source/gd32vf103_dac.c ****     \retval     DAC output data
 150:../../firmware/GD32VF103_standard_peripheral/Source/gd32vf103_dac.c **** */
 151:../../firmware/GD32VF103_standard_peripheral/Source/gd32vf103_dac.c **** uint16_t dac_output_value_get(uint32_t dac_periph)
 152:../../firmware/GD32VF103_standard_peripheral/Source/gd32vf103_dac.c **** {
 247              		.loc 1 152 1 is_stmt 1
 248              		.cfi_startproc
 249              	.LVL8:
 153:../../firmware/GD32VF103_standard_peripheral/Source/gd32vf103_dac.c ****     uint16_t data = 0U;
 250              		.loc 1 153 5
 154:../../firmware/GD32VF103_standard_peripheral/Source/gd32vf103_dac.c ****     if(DAC0 == dac_periph){
GAS LISTING /tmp/cc7w2G7Q.s 			page 8


 251              		.loc 1 154 5
 155:../../firmware/GD32VF103_standard_peripheral/Source/gd32vf103_dac.c ****         /* store the DAC0 output value */
 156:../../firmware/GD32VF103_standard_peripheral/Source/gd32vf103_dac.c ****         data = (uint16_t)DAC0_DO;
 252              		.loc 1 156 26 is_stmt 0
 253 0000 B7770040 		li	a5,1073770496
 154:../../firmware/GD32VF103_standard_peripheral/Source/gd32vf103_dac.c ****     if(DAC0 == dac_periph){
 254              		.loc 1 154 7
 255 0004 11E5     		bne	a0,zero,.L23
 256              		.loc 1 156 9 is_stmt 1
 257              		.loc 1 156 26 is_stmt 0
 258 0006 03A5C742 		lw	a0,1068(a5)
 259              	.LVL9:
 260              		.loc 1 156 14
 261 000a 4205     		slli	a0,a0,16
 262 000c 4181     		srli	a0,a0,16
 263              	.LVL10:
 264 000e 8280     		ret
 265              	.LVL11:
 266              	.L23:
 157:../../firmware/GD32VF103_standard_peripheral/Source/gd32vf103_dac.c ****     }else{
 158:../../firmware/GD32VF103_standard_peripheral/Source/gd32vf103_dac.c ****         /* store the DAC1 output value */
 159:../../firmware/GD32VF103_standard_peripheral/Source/gd32vf103_dac.c ****         data = (uint16_t)DAC1_DO;
 267              		.loc 1 159 9 is_stmt 1
 268              		.loc 1 159 26 is_stmt 0
 269 0010 03A50743 		lw	a0,1072(a5)
 270              	.LVL12:
 271              		.loc 1 159 14
 272 0014 4205     		slli	a0,a0,16
 273 0016 4181     		srli	a0,a0,16
 274              	.LVL13:
 160:../../firmware/GD32VF103_standard_peripheral/Source/gd32vf103_dac.c ****     }
 161:../../firmware/GD32VF103_standard_peripheral/Source/gd32vf103_dac.c ****     return data;
 275              		.loc 1 161 5 is_stmt 1
 162:../../firmware/GD32VF103_standard_peripheral/Source/gd32vf103_dac.c **** }
 276              		.loc 1 162 1 is_stmt 0
 277 0018 8280     		ret
 278              		.cfi_endproc
 279              	.LFE9:
 281              		.section	.text.dac_data_set,"ax",@progbits
 282              		.align	1
 283              		.globl	dac_data_set
 285              	dac_data_set:
 286              	.LFB10:
 163:../../firmware/GD32VF103_standard_peripheral/Source/gd32vf103_dac.c **** 
 164:../../firmware/GD32VF103_standard_peripheral/Source/gd32vf103_dac.c **** /*!
 165:../../firmware/GD32VF103_standard_peripheral/Source/gd32vf103_dac.c ****     \brief      set the DAC specified data holding register value
 166:../../firmware/GD32VF103_standard_peripheral/Source/gd32vf103_dac.c ****     \param[in]  dac_periph: DACx(x = 0,1)
 167:../../firmware/GD32VF103_standard_peripheral/Source/gd32vf103_dac.c ****     \param[in]  dac_align: data alignment
 168:../../firmware/GD32VF103_standard_peripheral/Source/gd32vf103_dac.c ****                 only one parameter can be selected which is shown as below:
 169:../../firmware/GD32VF103_standard_peripheral/Source/gd32vf103_dac.c ****       \arg        DAC_ALIGN_8B_R: data right 8 bit alignment
 170:../../firmware/GD32VF103_standard_peripheral/Source/gd32vf103_dac.c ****       \arg        DAC_ALIGN_12B_R: data right 12 bit alignment
 171:../../firmware/GD32VF103_standard_peripheral/Source/gd32vf103_dac.c ****       \arg        DAC_ALIGN_12B_L: data left 12 bit alignment
 172:../../firmware/GD32VF103_standard_peripheral/Source/gd32vf103_dac.c ****     \param[in]  data: data to be loaded
 173:../../firmware/GD32VF103_standard_peripheral/Source/gd32vf103_dac.c ****     \param[out] none
 174:../../firmware/GD32VF103_standard_peripheral/Source/gd32vf103_dac.c ****     \retval     none
 175:../../firmware/GD32VF103_standard_peripheral/Source/gd32vf103_dac.c **** */
 176:../../firmware/GD32VF103_standard_peripheral/Source/gd32vf103_dac.c **** void dac_data_set(uint32_t dac_periph, uint32_t dac_align, uint16_t data)
GAS LISTING /tmp/cc7w2G7Q.s 			page 9


 177:../../firmware/GD32VF103_standard_peripheral/Source/gd32vf103_dac.c **** {
 287              		.loc 1 177 1 is_stmt 1
 288              		.cfi_startproc
 289              	.LVL14:
 178:../../firmware/GD32VF103_standard_peripheral/Source/gd32vf103_dac.c ****     if(DAC0 == dac_periph){
 290              		.loc 1 178 5
 179:../../firmware/GD32VF103_standard_peripheral/Source/gd32vf103_dac.c ****         switch(dac_align){
 291              		.loc 1 179 9 is_stmt 0
 292 0000 8547     		li	a5,1
 178:../../firmware/GD32VF103_standard_peripheral/Source/gd32vf103_dac.c ****     if(DAC0 == dac_periph){
 293              		.loc 1 178 7
 294 0002 01ED     		bne	a0,zero,.L26
 295              		.loc 1 179 9 is_stmt 1
 296 0004 6388F502 		beq	a1,a5,.L27
 297 0008 9DC9     		beq	a1,zero,.L28
 298 000a 8947     		li	a5,2
 299 000c 6392F502 		bne	a1,a5,.L34
 180:../../firmware/GD32VF103_standard_peripheral/Source/gd32vf103_dac.c ****         /* data right 12 bit alignment */
 181:../../firmware/GD32VF103_standard_peripheral/Source/gd32vf103_dac.c ****         case DAC_ALIGN_12B_R:
 182:../../firmware/GD32VF103_standard_peripheral/Source/gd32vf103_dac.c ****             DAC0_R12DH = data;
 183:../../firmware/GD32VF103_standard_peripheral/Source/gd32vf103_dac.c ****             break;
 184:../../firmware/GD32VF103_standard_peripheral/Source/gd32vf103_dac.c ****         /* data left 12 bit alignment */
 185:../../firmware/GD32VF103_standard_peripheral/Source/gd32vf103_dac.c ****         case DAC_ALIGN_12B_L:
 186:../../firmware/GD32VF103_standard_peripheral/Source/gd32vf103_dac.c ****             DAC0_L12DH = data;
 187:../../firmware/GD32VF103_standard_peripheral/Source/gd32vf103_dac.c ****             break;
 188:../../firmware/GD32VF103_standard_peripheral/Source/gd32vf103_dac.c ****         /* data right 8 bit alignment */
 189:../../firmware/GD32VF103_standard_peripheral/Source/gd32vf103_dac.c ****         case DAC_ALIGN_8B_R:
 190:../../firmware/GD32VF103_standard_peripheral/Source/gd32vf103_dac.c ****             DAC0_R8DH = data;
 300              		.loc 1 190 13
 301              		.loc 1 190 23 is_stmt 0
 302 0010 B7770040 		li	a5,1073770496
 303 0014 23A8C740 		sw	a2,1040(a5)
 191:../../firmware/GD32VF103_standard_peripheral/Source/gd32vf103_dac.c ****             break;
 304              		.loc 1 191 13 is_stmt 1
 305 0018 8280     		ret
 306              	.L26:
 192:../../firmware/GD32VF103_standard_peripheral/Source/gd32vf103_dac.c ****         default:
 193:../../firmware/GD32VF103_standard_peripheral/Source/gd32vf103_dac.c ****             break;
 194:../../firmware/GD32VF103_standard_peripheral/Source/gd32vf103_dac.c ****         }
 195:../../firmware/GD32VF103_standard_peripheral/Source/gd32vf103_dac.c ****     }else{
 196:../../firmware/GD32VF103_standard_peripheral/Source/gd32vf103_dac.c ****         switch(dac_align){
 307              		.loc 1 196 9
 308 001a 638CF502 		beq	a1,a5,.L31
 309 001e 8DC5     		beq	a1,zero,.L32
 310 0020 8947     		li	a5,2
 311 0022 6398F500 		bne	a1,a5,.L35
 197:../../firmware/GD32VF103_standard_peripheral/Source/gd32vf103_dac.c ****         /* data right 12 bit alignment */
 198:../../firmware/GD32VF103_standard_peripheral/Source/gd32vf103_dac.c ****         case DAC_ALIGN_12B_R:
 199:../../firmware/GD32VF103_standard_peripheral/Source/gd32vf103_dac.c ****             DAC1_R12DH = data;
 200:../../firmware/GD32VF103_standard_peripheral/Source/gd32vf103_dac.c ****             break;
 201:../../firmware/GD32VF103_standard_peripheral/Source/gd32vf103_dac.c ****         /* data left 12 bit alignment */
 202:../../firmware/GD32VF103_standard_peripheral/Source/gd32vf103_dac.c ****         case DAC_ALIGN_12B_L:
 203:../../firmware/GD32VF103_standard_peripheral/Source/gd32vf103_dac.c ****             DAC1_L12DH = data;
 204:../../firmware/GD32VF103_standard_peripheral/Source/gd32vf103_dac.c ****             break;
 205:../../firmware/GD32VF103_standard_peripheral/Source/gd32vf103_dac.c ****         /* data right 8 bit alignment */
 206:../../firmware/GD32VF103_standard_peripheral/Source/gd32vf103_dac.c ****         case DAC_ALIGN_8B_R:
 207:../../firmware/GD32VF103_standard_peripheral/Source/gd32vf103_dac.c ****             DAC1_R8DH = data;
GAS LISTING /tmp/cc7w2G7Q.s 			page 10


 312              		.loc 1 207 13
 313              		.loc 1 207 23 is_stmt 0
 314 0026 B7770040 		li	a5,1073770496
 315 002a 23AEC740 		sw	a2,1052(a5)
 208:../../firmware/GD32VF103_standard_peripheral/Source/gd32vf103_dac.c ****             break;
 316              		.loc 1 208 13 is_stmt 1
 209:../../firmware/GD32VF103_standard_peripheral/Source/gd32vf103_dac.c ****         default:
 210:../../firmware/GD32VF103_standard_peripheral/Source/gd32vf103_dac.c ****             break;
 211:../../firmware/GD32VF103_standard_peripheral/Source/gd32vf103_dac.c ****         }
 212:../../firmware/GD32VF103_standard_peripheral/Source/gd32vf103_dac.c ****     }
 213:../../firmware/GD32VF103_standard_peripheral/Source/gd32vf103_dac.c **** }
 317              		.loc 1 213 1 is_stmt 0
 318 002e 8280     		ret
 319              	.L34:
 320 0030 8280     		ret
 321              	.L35:
 322 0032 8280     		ret
 323              	.L27:
 186:../../firmware/GD32VF103_standard_peripheral/Source/gd32vf103_dac.c ****             break;
 324              		.loc 1 186 13 is_stmt 1
 186:../../firmware/GD32VF103_standard_peripheral/Source/gd32vf103_dac.c ****             break;
 325              		.loc 1 186 24 is_stmt 0
 326 0034 B7770040 		li	a5,1073770496
 327 0038 23A6C740 		sw	a2,1036(a5)
 187:../../firmware/GD32VF103_standard_peripheral/Source/gd32vf103_dac.c ****         /* data right 8 bit alignment */
 328              		.loc 1 187 13 is_stmt 1
 329 003c 8280     		ret
 330              	.L28:
 182:../../firmware/GD32VF103_standard_peripheral/Source/gd32vf103_dac.c ****             break;
 331              		.loc 1 182 13
 182:../../firmware/GD32VF103_standard_peripheral/Source/gd32vf103_dac.c ****             break;
 332              		.loc 1 182 24 is_stmt 0
 333 003e B7770040 		li	a5,1073770496
 334 0042 23A4C740 		sw	a2,1032(a5)
 183:../../firmware/GD32VF103_standard_peripheral/Source/gd32vf103_dac.c ****         /* data left 12 bit alignment */
 335              		.loc 1 183 13 is_stmt 1
 336 0046 8280     		ret
 337              	.L32:
 199:../../firmware/GD32VF103_standard_peripheral/Source/gd32vf103_dac.c ****             break;
 338              		.loc 1 199 13
 199:../../firmware/GD32VF103_standard_peripheral/Source/gd32vf103_dac.c ****             break;
 339              		.loc 1 199 24 is_stmt 0
 340 0048 B7770040 		li	a5,1073770496
 341 004c 23AAC740 		sw	a2,1044(a5)
 200:../../firmware/GD32VF103_standard_peripheral/Source/gd32vf103_dac.c ****         /* data left 12 bit alignment */
 342              		.loc 1 200 13 is_stmt 1
 343 0050 8280     		ret
 344              	.L31:
 203:../../firmware/GD32VF103_standard_peripheral/Source/gd32vf103_dac.c ****             break;
 345              		.loc 1 203 13
 203:../../firmware/GD32VF103_standard_peripheral/Source/gd32vf103_dac.c ****             break;
 346              		.loc 1 203 24 is_stmt 0
 347 0052 B7770040 		li	a5,1073770496
 348 0056 23ACC740 		sw	a2,1048(a5)
 204:../../firmware/GD32VF103_standard_peripheral/Source/gd32vf103_dac.c ****         /* data right 8 bit alignment */
 349              		.loc 1 204 13 is_stmt 1
 350 005a 8280     		ret
GAS LISTING /tmp/cc7w2G7Q.s 			page 11


 351              		.cfi_endproc
 352              	.LFE10:
 354              		.section	.text.dac_trigger_enable,"ax",@progbits
 355              		.align	1
 356              		.globl	dac_trigger_enable
 358              	dac_trigger_enable:
 359              	.LFB11:
 214:../../firmware/GD32VF103_standard_peripheral/Source/gd32vf103_dac.c **** 
 215:../../firmware/GD32VF103_standard_peripheral/Source/gd32vf103_dac.c **** /*!
 216:../../firmware/GD32VF103_standard_peripheral/Source/gd32vf103_dac.c ****     \brief      enable DAC trigger
 217:../../firmware/GD32VF103_standard_peripheral/Source/gd32vf103_dac.c ****     \param[in]  dac_periph: DACx(x = 0,1)
 218:../../firmware/GD32VF103_standard_peripheral/Source/gd32vf103_dac.c ****     \param[out] none
 219:../../firmware/GD32VF103_standard_peripheral/Source/gd32vf103_dac.c ****     \retval     none
 220:../../firmware/GD32VF103_standard_peripheral/Source/gd32vf103_dac.c **** */
 221:../../firmware/GD32VF103_standard_peripheral/Source/gd32vf103_dac.c **** void dac_trigger_enable(uint32_t dac_periph)
 222:../../firmware/GD32VF103_standard_peripheral/Source/gd32vf103_dac.c **** {
 360              		.loc 1 222 1
 361              		.cfi_startproc
 362              	.LVL15:
 223:../../firmware/GD32VF103_standard_peripheral/Source/gd32vf103_dac.c ****     if(DAC0 == dac_periph){
 363              		.loc 1 223 5
 224:../../firmware/GD32VF103_standard_peripheral/Source/gd32vf103_dac.c ****         DAC_CTL |= DAC_CTL_DTEN0;
 364              		.loc 1 224 17 is_stmt 0
 365 0000 37770040 		li	a4,1073770496
 366 0004 83270740 		lw	a5,1024(a4)
 223:../../firmware/GD32VF103_standard_peripheral/Source/gd32vf103_dac.c ****     if(DAC0 == dac_periph){
 367              		.loc 1 223 7
 368 0008 11E5     		bne	a0,zero,.L37
 369              		.loc 1 224 9 is_stmt 1
 370              		.loc 1 224 17 is_stmt 0
 371 000a 93E74700 		ori	a5,a5,4
 372 000e 2320F740 		sw	a5,1024(a4)
 373 0012 8280     		ret
 374              	.L37:
 225:../../firmware/GD32VF103_standard_peripheral/Source/gd32vf103_dac.c ****     }else{
 226:../../firmware/GD32VF103_standard_peripheral/Source/gd32vf103_dac.c ****         DAC_CTL |= DAC_CTL_DTEN1;
 375              		.loc 1 226 9 is_stmt 1
 376              		.loc 1 226 17 is_stmt 0
 377 0014 B7060400 		li	a3,262144
 378 0018 D58F     		or	a5,a5,a3
 379 001a 2320F740 		sw	a5,1024(a4)
 227:../../firmware/GD32VF103_standard_peripheral/Source/gd32vf103_dac.c ****     }
 228:../../firmware/GD32VF103_standard_peripheral/Source/gd32vf103_dac.c **** }
 380              		.loc 1 228 1
 381 001e 8280     		ret
 382              		.cfi_endproc
 383              	.LFE11:
 385              		.section	.text.dac_trigger_disable,"ax",@progbits
 386              		.align	1
 387              		.globl	dac_trigger_disable
 389              	dac_trigger_disable:
 390              	.LFB12:
 229:../../firmware/GD32VF103_standard_peripheral/Source/gd32vf103_dac.c **** 
 230:../../firmware/GD32VF103_standard_peripheral/Source/gd32vf103_dac.c **** /*!
 231:../../firmware/GD32VF103_standard_peripheral/Source/gd32vf103_dac.c ****     \brief      disable DAC trigger
 232:../../firmware/GD32VF103_standard_peripheral/Source/gd32vf103_dac.c ****     \param[in]  dac_periph: DACx(x = 0,1)
 233:../../firmware/GD32VF103_standard_peripheral/Source/gd32vf103_dac.c ****     \param[out] none
GAS LISTING /tmp/cc7w2G7Q.s 			page 12


 234:../../firmware/GD32VF103_standard_peripheral/Source/gd32vf103_dac.c ****     \retval     none
 235:../../firmware/GD32VF103_standard_peripheral/Source/gd32vf103_dac.c **** */
 236:../../firmware/GD32VF103_standard_peripheral/Source/gd32vf103_dac.c **** void dac_trigger_disable(uint32_t dac_periph)
 237:../../firmware/GD32VF103_standard_peripheral/Source/gd32vf103_dac.c **** {
 391              		.loc 1 237 1 is_stmt 1
 392              		.cfi_startproc
 393              	.LVL16:
 238:../../firmware/GD32VF103_standard_peripheral/Source/gd32vf103_dac.c ****     if(DAC0 == dac_periph){
 394              		.loc 1 238 5
 395              		.loc 1 238 7 is_stmt 0
 396 0000 09E9     		bne	a0,zero,.L40
 239:../../firmware/GD32VF103_standard_peripheral/Source/gd32vf103_dac.c ****         DAC_CTL &= ~DAC_CTL_DTEN0;
 397              		.loc 1 239 9 is_stmt 1
 398              		.loc 1 239 17 is_stmt 0
 399 0002 37770040 		li	a4,1073770496
 400 0006 83270740 		lw	a5,1024(a4)
 401 000a ED9B     		andi	a5,a5,-5
 402 000c 2320F740 		sw	a5,1024(a4)
 403 0010 8280     		ret
 404              	.L40:
 240:../../firmware/GD32VF103_standard_peripheral/Source/gd32vf103_dac.c ****     }else{
 241:../../firmware/GD32VF103_standard_peripheral/Source/gd32vf103_dac.c ****         DAC_CTL &= ~DAC_CTL_DTEN1;
 405              		.loc 1 241 9 is_stmt 1
 406              		.loc 1 241 17 is_stmt 0
 407 0012 B7760040 		li	a3,1073770496
 408 0016 83A70640 		lw	a5,1024(a3)
 409 001a 3707FCFF 		li	a4,-262144
 410 001e 7D17     		addi	a4,a4,-1
 411 0020 F98F     		and	a5,a5,a4
 412 0022 23A0F640 		sw	a5,1024(a3)
 242:../../firmware/GD32VF103_standard_peripheral/Source/gd32vf103_dac.c ****     }
 243:../../firmware/GD32VF103_standard_peripheral/Source/gd32vf103_dac.c **** }
 413              		.loc 1 243 1
 414 0026 8280     		ret
 415              		.cfi_endproc
 416              	.LFE12:
 418              		.section	.text.dac_trigger_source_config,"ax",@progbits
 419              		.align	1
 420              		.globl	dac_trigger_source_config
 422              	dac_trigger_source_config:
 423              	.LFB13:
 244:../../firmware/GD32VF103_standard_peripheral/Source/gd32vf103_dac.c **** 
 245:../../firmware/GD32VF103_standard_peripheral/Source/gd32vf103_dac.c **** /*!
 246:../../firmware/GD32VF103_standard_peripheral/Source/gd32vf103_dac.c ****     \brief      set DAC trigger source
 247:../../firmware/GD32VF103_standard_peripheral/Source/gd32vf103_dac.c ****     \param[in]  dac_periph: DACx(x = 0,1)
 248:../../firmware/GD32VF103_standard_peripheral/Source/gd32vf103_dac.c ****     \param[in]  triggersource: external triggers of DAC
 249:../../firmware/GD32VF103_standard_peripheral/Source/gd32vf103_dac.c ****                 only one parameter can be selected which is shown as below:
 250:../../firmware/GD32VF103_standard_peripheral/Source/gd32vf103_dac.c ****       \arg        DAC_TRIGGER_T1_TRGO: TIMER1 TRGO
 251:../../firmware/GD32VF103_standard_peripheral/Source/gd32vf103_dac.c ****       \arg        DAC_TRIGGER_T2_TRGO: TIMER2 TRGO
 252:../../firmware/GD32VF103_standard_peripheral/Source/gd32vf103_dac.c ****       \arg        DAC_TRIGGER_T3_TRGO: TIMER3 TRGO
 253:../../firmware/GD32VF103_standard_peripheral/Source/gd32vf103_dac.c ****       \arg        DAC_TRIGGER_T4_TRGO: TIMER4 TRGO
 254:../../firmware/GD32VF103_standard_peripheral/Source/gd32vf103_dac.c ****       \arg        DAC_TRIGGER_T5_TRGO: TIMER5 TRGO
 255:../../firmware/GD32VF103_standard_peripheral/Source/gd32vf103_dac.c ****       \arg        DAC_TRIGGER_T6_TRGO: TIMER6 TRGO
 256:../../firmware/GD32VF103_standard_peripheral/Source/gd32vf103_dac.c ****       \arg        DAC_TRIGGER_EXTI_9: EXTI interrupt line9 event
 257:../../firmware/GD32VF103_standard_peripheral/Source/gd32vf103_dac.c ****       \arg        DAC_TRIGGER_SOFTWARE: software trigger
 258:../../firmware/GD32VF103_standard_peripheral/Source/gd32vf103_dac.c ****     \param[out] none
 259:../../firmware/GD32VF103_standard_peripheral/Source/gd32vf103_dac.c ****     \retval     none
GAS LISTING /tmp/cc7w2G7Q.s 			page 13


 260:../../firmware/GD32VF103_standard_peripheral/Source/gd32vf103_dac.c **** */
 261:../../firmware/GD32VF103_standard_peripheral/Source/gd32vf103_dac.c **** void dac_trigger_source_config(uint32_t dac_periph,uint32_t triggersource)
 262:../../firmware/GD32VF103_standard_peripheral/Source/gd32vf103_dac.c **** {
 424              		.loc 1 262 1 is_stmt 1
 425              		.cfi_startproc
 426              	.LVL17:
 263:../../firmware/GD32VF103_standard_peripheral/Source/gd32vf103_dac.c ****     if(DAC0 == dac_periph){
 427              		.loc 1 263 5
 264:../../firmware/GD32VF103_standard_peripheral/Source/gd32vf103_dac.c ****         /* configure DAC0 trigger source */
 265:../../firmware/GD32VF103_standard_peripheral/Source/gd32vf103_dac.c ****         DAC_CTL &= ~DAC_CTL_DTSEL0;
 428              		.loc 1 265 17 is_stmt 0
 429 0000 B7770040 		li	a5,1073770496
 430 0004 03A70740 		lw	a4,1024(a5)
 263:../../firmware/GD32VF103_standard_peripheral/Source/gd32vf103_dac.c ****     if(DAC0 == dac_periph){
 431              		.loc 1 263 7
 432 0008 19E9     		bne	a0,zero,.L43
 433              		.loc 1 265 9 is_stmt 1
 434              		.loc 1 265 17 is_stmt 0
 435 000a 137777FC 		andi	a4,a4,-57
 436 000e 23A0E740 		sw	a4,1024(a5)
 266:../../firmware/GD32VF103_standard_peripheral/Source/gd32vf103_dac.c ****         DAC_CTL |= triggersource;
 437              		.loc 1 266 9 is_stmt 1
 438              		.loc 1 266 17 is_stmt 0
 439 0012 03A70740 		lw	a4,1024(a5)
 440 0016 D98D     		or	a1,a4,a1
 441              	.LVL18:
 442 0018 23A0B740 		sw	a1,1024(a5)
 443 001c 8280     		ret
 444              	.LVL19:
 445              	.L43:
 267:../../firmware/GD32VF103_standard_peripheral/Source/gd32vf103_dac.c ****     }else{
 268:../../firmware/GD32VF103_standard_peripheral/Source/gd32vf103_dac.c ****         /* configure DAC1 trigger source */
 269:../../firmware/GD32VF103_standard_peripheral/Source/gd32vf103_dac.c ****         DAC_CTL &= ~DAC_CTL_DTSEL1;
 446              		.loc 1 269 9 is_stmt 1
 447              		.loc 1 269 17 is_stmt 0
 448 001e B706C8FF 		li	a3,-3670016
 449 0022 FD16     		addi	a3,a3,-1
 450 0024 758F     		and	a4,a4,a3
 451 0026 23A0E740 		sw	a4,1024(a5)
 270:../../firmware/GD32VF103_standard_peripheral/Source/gd32vf103_dac.c ****         DAC_CTL |= (triggersource << DAC1_REG_OFFSET);
 452              		.loc 1 270 9 is_stmt 1
 453              		.loc 1 270 17 is_stmt 0
 454 002a 03A70740 		lw	a4,1024(a5)
 455              		.loc 1 270 35
 456 002e C205     		slli	a1,a1,16
 457              	.LVL20:
 458              		.loc 1 270 17
 459 0030 D98D     		or	a1,a1,a4
 460 0032 23A0B740 		sw	a1,1024(a5)
 271:../../firmware/GD32VF103_standard_peripheral/Source/gd32vf103_dac.c ****     }
 272:../../firmware/GD32VF103_standard_peripheral/Source/gd32vf103_dac.c **** }
 461              		.loc 1 272 1
 462 0036 8280     		ret
 463              		.cfi_endproc
 464              	.LFE13:
 466              		.section	.text.dac_software_trigger_enable,"ax",@progbits
 467              		.align	1
GAS LISTING /tmp/cc7w2G7Q.s 			page 14


 468              		.globl	dac_software_trigger_enable
 470              	dac_software_trigger_enable:
 471              	.LFB14:
 273:../../firmware/GD32VF103_standard_peripheral/Source/gd32vf103_dac.c **** 
 274:../../firmware/GD32VF103_standard_peripheral/Source/gd32vf103_dac.c **** /*!
 275:../../firmware/GD32VF103_standard_peripheral/Source/gd32vf103_dac.c ****     \brief      enable DAC software trigger
 276:../../firmware/GD32VF103_standard_peripheral/Source/gd32vf103_dac.c ****     \param[in]  dac_periph: DACx(x = 0,1)
 277:../../firmware/GD32VF103_standard_peripheral/Source/gd32vf103_dac.c ****     \retval     none
 278:../../firmware/GD32VF103_standard_peripheral/Source/gd32vf103_dac.c **** */
 279:../../firmware/GD32VF103_standard_peripheral/Source/gd32vf103_dac.c **** void dac_software_trigger_enable(uint32_t dac_periph)
 280:../../firmware/GD32VF103_standard_peripheral/Source/gd32vf103_dac.c **** {
 472              		.loc 1 280 1 is_stmt 1
 473              		.cfi_startproc
 474              	.LVL21:
 281:../../firmware/GD32VF103_standard_peripheral/Source/gd32vf103_dac.c ****     if(DAC0 == dac_periph){
 475              		.loc 1 281 5
 282:../../firmware/GD32VF103_standard_peripheral/Source/gd32vf103_dac.c ****         DAC_SWT |= DAC_SWT_SWTR0;
 476              		.loc 1 282 17 is_stmt 0
 477 0000 37770040 		li	a4,1073770496
 478 0004 83274740 		lw	a5,1028(a4)
 281:../../firmware/GD32VF103_standard_peripheral/Source/gd32vf103_dac.c ****     if(DAC0 == dac_periph){
 479              		.loc 1 281 7
 480 0008 11E5     		bne	a0,zero,.L46
 481              		.loc 1 282 9 is_stmt 1
 482              		.loc 1 282 17 is_stmt 0
 483 000a 93E71700 		ori	a5,a5,1
 484 000e 2322F740 		sw	a5,1028(a4)
 485 0012 8280     		ret
 486              	.L46:
 283:../../firmware/GD32VF103_standard_peripheral/Source/gd32vf103_dac.c ****     }else{
 284:../../firmware/GD32VF103_standard_peripheral/Source/gd32vf103_dac.c ****         DAC_SWT |= DAC_SWT_SWTR1;
 487              		.loc 1 284 9 is_stmt 1
 488              		.loc 1 284 17 is_stmt 0
 489 0014 93E72700 		ori	a5,a5,2
 490 0018 2322F740 		sw	a5,1028(a4)
 285:../../firmware/GD32VF103_standard_peripheral/Source/gd32vf103_dac.c ****     }
 286:../../firmware/GD32VF103_standard_peripheral/Source/gd32vf103_dac.c **** }
 491              		.loc 1 286 1
 492 001c 8280     		ret
 493              		.cfi_endproc
 494              	.LFE14:
 496              		.section	.text.dac_software_trigger_disable,"ax",@progbits
 497              		.align	1
 498              		.globl	dac_software_trigger_disable
 500              	dac_software_trigger_disable:
 501              	.LFB15:
 287:../../firmware/GD32VF103_standard_peripheral/Source/gd32vf103_dac.c **** 
 288:../../firmware/GD32VF103_standard_peripheral/Source/gd32vf103_dac.c **** /*!
 289:../../firmware/GD32VF103_standard_peripheral/Source/gd32vf103_dac.c ****     \brief      disable DAC software trigger
 290:../../firmware/GD32VF103_standard_peripheral/Source/gd32vf103_dac.c ****     \param[in]  dac_periph: DACx(x = 0,1)
 291:../../firmware/GD32VF103_standard_peripheral/Source/gd32vf103_dac.c ****     \param[out] none
 292:../../firmware/GD32VF103_standard_peripheral/Source/gd32vf103_dac.c ****     \retval     none
 293:../../firmware/GD32VF103_standard_peripheral/Source/gd32vf103_dac.c **** */
 294:../../firmware/GD32VF103_standard_peripheral/Source/gd32vf103_dac.c **** void dac_software_trigger_disable(uint32_t dac_periph)
 295:../../firmware/GD32VF103_standard_peripheral/Source/gd32vf103_dac.c **** {
 502              		.loc 1 295 1 is_stmt 1
 503              		.cfi_startproc
GAS LISTING /tmp/cc7w2G7Q.s 			page 15


 504              	.LVL22:
 296:../../firmware/GD32VF103_standard_peripheral/Source/gd32vf103_dac.c ****     if(DAC0 == dac_periph){
 505              		.loc 1 296 5
 297:../../firmware/GD32VF103_standard_peripheral/Source/gd32vf103_dac.c ****         DAC_SWT &= ~DAC_SWT_SWTR0;
 506              		.loc 1 297 17 is_stmt 0
 507 0000 37770040 		li	a4,1073770496
 508 0004 83274740 		lw	a5,1028(a4)
 296:../../firmware/GD32VF103_standard_peripheral/Source/gd32vf103_dac.c ****     if(DAC0 == dac_periph){
 509              		.loc 1 296 7
 510 0008 09E5     		bne	a0,zero,.L49
 511              		.loc 1 297 9 is_stmt 1
 512              		.loc 1 297 17 is_stmt 0
 513 000a F99B     		andi	a5,a5,-2
 514 000c 2322F740 		sw	a5,1028(a4)
 515 0010 8280     		ret
 516              	.L49:
 298:../../firmware/GD32VF103_standard_peripheral/Source/gd32vf103_dac.c ****     }else{
 299:../../firmware/GD32VF103_standard_peripheral/Source/gd32vf103_dac.c ****         DAC_SWT &= ~DAC_SWT_SWTR1;
 517              		.loc 1 299 9 is_stmt 1
 518              		.loc 1 299 17 is_stmt 0
 519 0012 F59B     		andi	a5,a5,-3
 520 0014 2322F740 		sw	a5,1028(a4)
 300:../../firmware/GD32VF103_standard_peripheral/Source/gd32vf103_dac.c ****     }
 301:../../firmware/GD32VF103_standard_peripheral/Source/gd32vf103_dac.c **** }
 521              		.loc 1 301 1
 522 0018 8280     		ret
 523              		.cfi_endproc
 524              	.LFE15:
 526              		.section	.text.dac_wave_mode_config,"ax",@progbits
 527              		.align	1
 528              		.globl	dac_wave_mode_config
 530              	dac_wave_mode_config:
 531              	.LFB16:
 302:../../firmware/GD32VF103_standard_peripheral/Source/gd32vf103_dac.c **** 
 303:../../firmware/GD32VF103_standard_peripheral/Source/gd32vf103_dac.c **** /*!
 304:../../firmware/GD32VF103_standard_peripheral/Source/gd32vf103_dac.c ****     \brief      configure DAC wave mode
 305:../../firmware/GD32VF103_standard_peripheral/Source/gd32vf103_dac.c ****     \param[in]  dac_periph: DACx(x = 0,1)
 306:../../firmware/GD32VF103_standard_peripheral/Source/gd32vf103_dac.c ****     \param[in]  wave_mode: noise wave mode
 307:../../firmware/GD32VF103_standard_peripheral/Source/gd32vf103_dac.c ****                 only one parameter can be selected which is shown as below:
 308:../../firmware/GD32VF103_standard_peripheral/Source/gd32vf103_dac.c ****       \arg        DAC_WAVE_DISABLE: wave disable
 309:../../firmware/GD32VF103_standard_peripheral/Source/gd32vf103_dac.c ****       \arg        DAC_WAVE_MODE_LFSR: LFSR noise mode
 310:../../firmware/GD32VF103_standard_peripheral/Source/gd32vf103_dac.c ****       \arg        DAC_WAVE_MODE_TRIANGLE: triangle noise mode
 311:../../firmware/GD32VF103_standard_peripheral/Source/gd32vf103_dac.c ****     \param[out] none
 312:../../firmware/GD32VF103_standard_peripheral/Source/gd32vf103_dac.c ****     \retval     none
 313:../../firmware/GD32VF103_standard_peripheral/Source/gd32vf103_dac.c **** */
 314:../../firmware/GD32VF103_standard_peripheral/Source/gd32vf103_dac.c **** void dac_wave_mode_config(uint32_t dac_periph, uint32_t wave_mode)
 315:../../firmware/GD32VF103_standard_peripheral/Source/gd32vf103_dac.c **** {
 532              		.loc 1 315 1 is_stmt 1
 533              		.cfi_startproc
 534              	.LVL23:
 316:../../firmware/GD32VF103_standard_peripheral/Source/gd32vf103_dac.c ****     if(DAC0 == dac_periph){
 535              		.loc 1 316 5
 317:../../firmware/GD32VF103_standard_peripheral/Source/gd32vf103_dac.c ****         /* configure DAC0 wave mode */
 318:../../firmware/GD32VF103_standard_peripheral/Source/gd32vf103_dac.c ****         DAC_CTL &= ~DAC_CTL_DWM0;
 536              		.loc 1 318 17 is_stmt 0
 537 0000 B7770040 		li	a5,1073770496
 538 0004 03A70740 		lw	a4,1024(a5)
GAS LISTING /tmp/cc7w2G7Q.s 			page 16


 316:../../firmware/GD32VF103_standard_peripheral/Source/gd32vf103_dac.c ****     if(DAC0 == dac_periph){
 539              		.loc 1 316 7
 540 0008 19E9     		bne	a0,zero,.L52
 541              		.loc 1 318 9 is_stmt 1
 542              		.loc 1 318 17 is_stmt 0
 543 000a 1377F7F3 		andi	a4,a4,-193
 544 000e 23A0E740 		sw	a4,1024(a5)
 319:../../firmware/GD32VF103_standard_peripheral/Source/gd32vf103_dac.c ****         DAC_CTL |= wave_mode;
 545              		.loc 1 319 9 is_stmt 1
 546              		.loc 1 319 17 is_stmt 0
 547 0012 03A70740 		lw	a4,1024(a5)
 548 0016 D98D     		or	a1,a4,a1
 549              	.LVL24:
 550 0018 23A0B740 		sw	a1,1024(a5)
 551 001c 8280     		ret
 552              	.LVL25:
 553              	.L52:
 320:../../firmware/GD32VF103_standard_peripheral/Source/gd32vf103_dac.c ****     }else{
 321:../../firmware/GD32VF103_standard_peripheral/Source/gd32vf103_dac.c ****         /* configure DAC1 wave mode */
 322:../../firmware/GD32VF103_standard_peripheral/Source/gd32vf103_dac.c ****         DAC_CTL &= ~DAC_CTL_DWM1;
 554              		.loc 1 322 9 is_stmt 1
 555              		.loc 1 322 17 is_stmt 0
 556 001e B70640FF 		li	a3,-12582912
 557 0022 FD16     		addi	a3,a3,-1
 558 0024 758F     		and	a4,a4,a3
 559 0026 23A0E740 		sw	a4,1024(a5)
 323:../../firmware/GD32VF103_standard_peripheral/Source/gd32vf103_dac.c ****         DAC_CTL |= (wave_mode << DAC1_REG_OFFSET);
 560              		.loc 1 323 9 is_stmt 1
 561              		.loc 1 323 17 is_stmt 0
 562 002a 03A70740 		lw	a4,1024(a5)
 563              		.loc 1 323 31
 564 002e C205     		slli	a1,a1,16
 565              	.LVL26:
 566              		.loc 1 323 17
 567 0030 D98D     		or	a1,a1,a4
 568 0032 23A0B740 		sw	a1,1024(a5)
 324:../../firmware/GD32VF103_standard_peripheral/Source/gd32vf103_dac.c ****     }
 325:../../firmware/GD32VF103_standard_peripheral/Source/gd32vf103_dac.c **** }
 569              		.loc 1 325 1
 570 0036 8280     		ret
 571              		.cfi_endproc
 572              	.LFE16:
 574              		.section	.text.dac_wave_bit_width_config,"ax",@progbits
 575              		.align	1
 576              		.globl	dac_wave_bit_width_config
 578              	dac_wave_bit_width_config:
 579              	.LFB17:
 326:../../firmware/GD32VF103_standard_peripheral/Source/gd32vf103_dac.c **** 
 327:../../firmware/GD32VF103_standard_peripheral/Source/gd32vf103_dac.c **** /*!
 328:../../firmware/GD32VF103_standard_peripheral/Source/gd32vf103_dac.c ****     \brief      configure DAC wave bit width
 329:../../firmware/GD32VF103_standard_peripheral/Source/gd32vf103_dac.c ****     \param[in]  dac_periph: DACx(x = 0,1)
 330:../../firmware/GD32VF103_standard_peripheral/Source/gd32vf103_dac.c ****     \param[in]  bit_width: noise wave bit width
 331:../../firmware/GD32VF103_standard_peripheral/Source/gd32vf103_dac.c ****                 only one parameter can be selected which is shown as below:
 332:../../firmware/GD32VF103_standard_peripheral/Source/gd32vf103_dac.c ****       \arg        DAC_WAVE_BIT_WIDTH_1: bit width of the wave signal is 1
 333:../../firmware/GD32VF103_standard_peripheral/Source/gd32vf103_dac.c ****       \arg        DAC_WAVE_BIT_WIDTH_2: bit width of the wave signal is 2
 334:../../firmware/GD32VF103_standard_peripheral/Source/gd32vf103_dac.c ****       \arg        DAC_WAVE_BIT_WIDTH_3: bit width of the wave signal is 3
 335:../../firmware/GD32VF103_standard_peripheral/Source/gd32vf103_dac.c ****       \arg        DAC_WAVE_BIT_WIDTH_4: bit width of the wave signal is 4
GAS LISTING /tmp/cc7w2G7Q.s 			page 17


 336:../../firmware/GD32VF103_standard_peripheral/Source/gd32vf103_dac.c ****       \arg        DAC_WAVE_BIT_WIDTH_5: bit width of the wave signal is 5
 337:../../firmware/GD32VF103_standard_peripheral/Source/gd32vf103_dac.c ****       \arg        DAC_WAVE_BIT_WIDTH_6: bit width of the wave signal is 6
 338:../../firmware/GD32VF103_standard_peripheral/Source/gd32vf103_dac.c ****       \arg        DAC_WAVE_BIT_WIDTH_7: bit width of the wave signal is 7
 339:../../firmware/GD32VF103_standard_peripheral/Source/gd32vf103_dac.c ****       \arg        DAC_WAVE_BIT_WIDTH_8: bit width of the wave signal is 8
 340:../../firmware/GD32VF103_standard_peripheral/Source/gd32vf103_dac.c ****       \arg        DAC_WAVE_BIT_WIDTH_9: bit width of the wave signal is 9
 341:../../firmware/GD32VF103_standard_peripheral/Source/gd32vf103_dac.c ****       \arg        DAC_WAVE_BIT_WIDTH_10: bit width of the wave signal is 10
 342:../../firmware/GD32VF103_standard_peripheral/Source/gd32vf103_dac.c ****       \arg        DAC_WAVE_BIT_WIDTH_11: bit width of the wave signal is 11
 343:../../firmware/GD32VF103_standard_peripheral/Source/gd32vf103_dac.c ****       \arg        DAC_WAVE_BIT_WIDTH_12: bit width of the wave signal is 12
 344:../../firmware/GD32VF103_standard_peripheral/Source/gd32vf103_dac.c ****     \param[out] none
 345:../../firmware/GD32VF103_standard_peripheral/Source/gd32vf103_dac.c ****     \retval     none
 346:../../firmware/GD32VF103_standard_peripheral/Source/gd32vf103_dac.c **** */
 347:../../firmware/GD32VF103_standard_peripheral/Source/gd32vf103_dac.c **** void dac_wave_bit_width_config(uint32_t dac_periph, uint32_t bit_width)
 348:../../firmware/GD32VF103_standard_peripheral/Source/gd32vf103_dac.c **** {
 580              		.loc 1 348 1 is_stmt 1
 581              		.cfi_startproc
 582              	.LVL27:
 349:../../firmware/GD32VF103_standard_peripheral/Source/gd32vf103_dac.c ****     if(DAC0 == dac_periph){
 583              		.loc 1 349 5
 350:../../firmware/GD32VF103_standard_peripheral/Source/gd32vf103_dac.c ****         /* configure DAC0 wave bit width */
 351:../../firmware/GD32VF103_standard_peripheral/Source/gd32vf103_dac.c ****         DAC_CTL &= ~DAC_CTL_DWBW0;
 584              		.loc 1 351 17 is_stmt 0
 585 0000 B7770040 		li	a5,1073770496
 586 0004 03A70740 		lw	a4,1024(a5)
 349:../../firmware/GD32VF103_standard_peripheral/Source/gd32vf103_dac.c ****     if(DAC0 == dac_periph){
 587              		.loc 1 349 7
 588 0008 09ED     		bne	a0,zero,.L55
 589              		.loc 1 351 9 is_stmt 1
 590              		.loc 1 351 17 is_stmt 0
 591 000a FD76     		li	a3,-4096
 592 000c 9386F60F 		addi	a3,a3,255
 593 0010 758F     		and	a4,a4,a3
 594 0012 23A0E740 		sw	a4,1024(a5)
 352:../../firmware/GD32VF103_standard_peripheral/Source/gd32vf103_dac.c ****         DAC_CTL |= bit_width;
 595              		.loc 1 352 9 is_stmt 1
 596              		.loc 1 352 17 is_stmt 0
 597 0016 03A70740 		lw	a4,1024(a5)
 598 001a D98D     		or	a1,a4,a1
 599              	.LVL28:
 600 001c 23A0B740 		sw	a1,1024(a5)
 601 0020 8280     		ret
 602              	.LVL29:
 603              	.L55:
 353:../../firmware/GD32VF103_standard_peripheral/Source/gd32vf103_dac.c ****     }else{
 354:../../firmware/GD32VF103_standard_peripheral/Source/gd32vf103_dac.c ****         /* configure DAC1 wave bit width */
 355:../../firmware/GD32VF103_standard_peripheral/Source/gd32vf103_dac.c ****         DAC_CTL &= ~DAC_CTL_DWBW1;
 604              		.loc 1 355 9 is_stmt 1
 605              		.loc 1 355 17 is_stmt 0
 606 0022 B70600F1 		li	a3,-251658240
 607 0026 FD16     		addi	a3,a3,-1
 608 0028 758F     		and	a4,a4,a3
 609 002a 23A0E740 		sw	a4,1024(a5)
 356:../../firmware/GD32VF103_standard_peripheral/Source/gd32vf103_dac.c ****         DAC_CTL |= (bit_width << DAC1_REG_OFFSET);
 610              		.loc 1 356 9 is_stmt 1
 611              		.loc 1 356 17 is_stmt 0
 612 002e 03A70740 		lw	a4,1024(a5)
 613              		.loc 1 356 31
 614 0032 C205     		slli	a1,a1,16
GAS LISTING /tmp/cc7w2G7Q.s 			page 18


 615              	.LVL30:
 616              		.loc 1 356 17
 617 0034 D98D     		or	a1,a1,a4
 618 0036 23A0B740 		sw	a1,1024(a5)
 357:../../firmware/GD32VF103_standard_peripheral/Source/gd32vf103_dac.c ****     }
 358:../../firmware/GD32VF103_standard_peripheral/Source/gd32vf103_dac.c **** }
 619              		.loc 1 358 1
 620 003a 8280     		ret
 621              		.cfi_endproc
 622              	.LFE17:
 624              		.section	.text.dac_lfsr_noise_config,"ax",@progbits
 625              		.align	1
 626              		.globl	dac_lfsr_noise_config
 628              	dac_lfsr_noise_config:
 629              	.LFB28:
 630              		.cfi_startproc
 631 0000 17030000 		tail	dac_wave_bit_width_config
 631      67000300 
 632              		.cfi_endproc
 633              	.LFE28:
 635              		.section	.text.dac_triangle_noise_config,"ax",@progbits
 636              		.align	1
 637              		.globl	dac_triangle_noise_config
 639              	dac_triangle_noise_config:
 640              	.LFB30:
 641              		.cfi_startproc
 642 0000 17030000 		tail	dac_wave_bit_width_config
 642      67000300 
 643              		.cfi_endproc
 644              	.LFE30:
 646              		.section	.text.dac_concurrent_enable,"ax",@progbits
 647              		.align	1
 648              		.globl	dac_concurrent_enable
 650              	dac_concurrent_enable:
 651              	.LFB20:
 359:../../firmware/GD32VF103_standard_peripheral/Source/gd32vf103_dac.c **** 
 360:../../firmware/GD32VF103_standard_peripheral/Source/gd32vf103_dac.c **** /*!
 361:../../firmware/GD32VF103_standard_peripheral/Source/gd32vf103_dac.c ****     \brief      configure DAC LFSR noise mode
 362:../../firmware/GD32VF103_standard_peripheral/Source/gd32vf103_dac.c ****     \param[in]  dac_periph: DACx(x = 0,1)
 363:../../firmware/GD32VF103_standard_peripheral/Source/gd32vf103_dac.c ****     \param[in]  unmask_bits: unmask LFSR bits in DAC LFSR noise mode
 364:../../firmware/GD32VF103_standard_peripheral/Source/gd32vf103_dac.c ****                 only one parameter can be selected which is shown as below:
 365:../../firmware/GD32VF103_standard_peripheral/Source/gd32vf103_dac.c ****       \arg        DAC_LFSR_BIT0: unmask the LFSR bit0
 366:../../firmware/GD32VF103_standard_peripheral/Source/gd32vf103_dac.c ****       \arg        DAC_LFSR_BITS1_0: unmask the LFSR bits[1:0]
 367:../../firmware/GD32VF103_standard_peripheral/Source/gd32vf103_dac.c ****       \arg        DAC_LFSR_BITS2_0: unmask the LFSR bits[2:0]
 368:../../firmware/GD32VF103_standard_peripheral/Source/gd32vf103_dac.c ****       \arg        DAC_LFSR_BITS3_0: unmask the LFSR bits[3:0]
 369:../../firmware/GD32VF103_standard_peripheral/Source/gd32vf103_dac.c ****       \arg        DAC_LFSR_BITS4_0: unmask the LFSR bits[4:0]
 370:../../firmware/GD32VF103_standard_peripheral/Source/gd32vf103_dac.c ****       \arg        DAC_LFSR_BITS5_0: unmask the LFSR bits[5:0]
 371:../../firmware/GD32VF103_standard_peripheral/Source/gd32vf103_dac.c ****       \arg        DAC_LFSR_BITS6_0: unmask the LFSR bits[6:0]
 372:../../firmware/GD32VF103_standard_peripheral/Source/gd32vf103_dac.c ****       \arg        DAC_LFSR_BITS7_0: unmask the LFSR bits[7:0]
 373:../../firmware/GD32VF103_standard_peripheral/Source/gd32vf103_dac.c ****       \arg        DAC_LFSR_BITS8_0: unmask the LFSR bits[8:0]
 374:../../firmware/GD32VF103_standard_peripheral/Source/gd32vf103_dac.c ****       \arg        DAC_LFSR_BITS9_0: unmask the LFSR bits[9:0]
 375:../../firmware/GD32VF103_standard_peripheral/Source/gd32vf103_dac.c ****       \arg        DAC_LFSR_BITS10_0: unmask the LFSR bits[10:0]
 376:../../firmware/GD32VF103_standard_peripheral/Source/gd32vf103_dac.c ****       \arg        DAC_LFSR_BITS11_0: unmask the LFSR bits[11:0]
 377:../../firmware/GD32VF103_standard_peripheral/Source/gd32vf103_dac.c ****     \param[out] none
 378:../../firmware/GD32VF103_standard_peripheral/Source/gd32vf103_dac.c ****     \retval     none
 379:../../firmware/GD32VF103_standard_peripheral/Source/gd32vf103_dac.c **** */
 380:../../firmware/GD32VF103_standard_peripheral/Source/gd32vf103_dac.c **** void dac_lfsr_noise_config(uint32_t dac_periph, uint32_t unmask_bits)
GAS LISTING /tmp/cc7w2G7Q.s 			page 19


 381:../../firmware/GD32VF103_standard_peripheral/Source/gd32vf103_dac.c **** {
 382:../../firmware/GD32VF103_standard_peripheral/Source/gd32vf103_dac.c ****     if(DAC0 == dac_periph){
 383:../../firmware/GD32VF103_standard_peripheral/Source/gd32vf103_dac.c ****         /* configure DAC0 LFSR noise mode */
 384:../../firmware/GD32VF103_standard_peripheral/Source/gd32vf103_dac.c ****         DAC_CTL &= ~DAC_CTL_DWBW0;
 385:../../firmware/GD32VF103_standard_peripheral/Source/gd32vf103_dac.c ****         DAC_CTL |= unmask_bits;
 386:../../firmware/GD32VF103_standard_peripheral/Source/gd32vf103_dac.c ****     }else{
 387:../../firmware/GD32VF103_standard_peripheral/Source/gd32vf103_dac.c ****         /* configure DAC1 LFSR noise mode */
 388:../../firmware/GD32VF103_standard_peripheral/Source/gd32vf103_dac.c ****         DAC_CTL &= ~DAC_CTL_DWBW1;
 389:../../firmware/GD32VF103_standard_peripheral/Source/gd32vf103_dac.c ****         DAC_CTL |= (unmask_bits << DAC1_REG_OFFSET);
 390:../../firmware/GD32VF103_standard_peripheral/Source/gd32vf103_dac.c ****     }
 391:../../firmware/GD32VF103_standard_peripheral/Source/gd32vf103_dac.c **** }
 392:../../firmware/GD32VF103_standard_peripheral/Source/gd32vf103_dac.c **** 
 393:../../firmware/GD32VF103_standard_peripheral/Source/gd32vf103_dac.c **** /*!
 394:../../firmware/GD32VF103_standard_peripheral/Source/gd32vf103_dac.c ****     \brief      configure DAC triangle noise mode
 395:../../firmware/GD32VF103_standard_peripheral/Source/gd32vf103_dac.c ****     \param[in]  dac_periph: DACx(x = 0,1)
 396:../../firmware/GD32VF103_standard_peripheral/Source/gd32vf103_dac.c ****     \param[in]  amplitude: triangle amplitude in DAC triangle noise mode
 397:../../firmware/GD32VF103_standard_peripheral/Source/gd32vf103_dac.c ****                 only one parameter can be selected which is shown as below:
 398:../../firmware/GD32VF103_standard_peripheral/Source/gd32vf103_dac.c ****       \arg        DAC_TRIANGLE_AMPLITUDE_1: triangle amplitude is 1
 399:../../firmware/GD32VF103_standard_peripheral/Source/gd32vf103_dac.c ****       \arg        DAC_TRIANGLE_AMPLITUDE_3: triangle amplitude is 3
 400:../../firmware/GD32VF103_standard_peripheral/Source/gd32vf103_dac.c ****       \arg        DAC_TRIANGLE_AMPLITUDE_7: triangle amplitude is 7
 401:../../firmware/GD32VF103_standard_peripheral/Source/gd32vf103_dac.c ****       \arg        DAC_TRIANGLE_AMPLITUDE_15: triangle amplitude is 15
 402:../../firmware/GD32VF103_standard_peripheral/Source/gd32vf103_dac.c ****       \arg        DAC_TRIANGLE_AMPLITUDE_31: triangle amplitude is 31
 403:../../firmware/GD32VF103_standard_peripheral/Source/gd32vf103_dac.c ****       \arg        DAC_TRIANGLE_AMPLITUDE_63: triangle amplitude is 63
 404:../../firmware/GD32VF103_standard_peripheral/Source/gd32vf103_dac.c ****       \arg        DAC_TRIANGLE_AMPLITUDE_127: triangle amplitude is 127
 405:../../firmware/GD32VF103_standard_peripheral/Source/gd32vf103_dac.c ****       \arg        DAC_TRIANGLE_AMPLITUDE_255: triangle amplitude is 255
 406:../../firmware/GD32VF103_standard_peripheral/Source/gd32vf103_dac.c ****       \arg        DAC_TRIANGLE_AMPLITUDE_511: triangle amplitude is 511
 407:../../firmware/GD32VF103_standard_peripheral/Source/gd32vf103_dac.c ****       \arg        DAC_TRIANGLE_AMPLITUDE_1023: triangle amplitude is 1023
 408:../../firmware/GD32VF103_standard_peripheral/Source/gd32vf103_dac.c ****       \arg        DAC_TRIANGLE_AMPLITUDE_2047: triangle amplitude is 2047
 409:../../firmware/GD32VF103_standard_peripheral/Source/gd32vf103_dac.c ****       \arg        DAC_TRIANGLE_AMPLITUDE_4095: triangle amplitude is 4095
 410:../../firmware/GD32VF103_standard_peripheral/Source/gd32vf103_dac.c ****     \param[out] none
 411:../../firmware/GD32VF103_standard_peripheral/Source/gd32vf103_dac.c ****     \retval     none
 412:../../firmware/GD32VF103_standard_peripheral/Source/gd32vf103_dac.c **** */
 413:../../firmware/GD32VF103_standard_peripheral/Source/gd32vf103_dac.c **** void dac_triangle_noise_config(uint32_t dac_periph, uint32_t amplitude)
 414:../../firmware/GD32VF103_standard_peripheral/Source/gd32vf103_dac.c **** {
 415:../../firmware/GD32VF103_standard_peripheral/Source/gd32vf103_dac.c ****     if(DAC0 == dac_periph){
 416:../../firmware/GD32VF103_standard_peripheral/Source/gd32vf103_dac.c ****         /* configure DAC0 triangle noise mode */
 417:../../firmware/GD32VF103_standard_peripheral/Source/gd32vf103_dac.c ****         DAC_CTL &= ~DAC_CTL_DWBW0;
 418:../../firmware/GD32VF103_standard_peripheral/Source/gd32vf103_dac.c ****         DAC_CTL |= amplitude;
 419:../../firmware/GD32VF103_standard_peripheral/Source/gd32vf103_dac.c ****     }else{
 420:../../firmware/GD32VF103_standard_peripheral/Source/gd32vf103_dac.c ****         /* configure DAC1 triangle noise mode */
 421:../../firmware/GD32VF103_standard_peripheral/Source/gd32vf103_dac.c ****         DAC_CTL &= ~DAC_CTL_DWBW1;
 422:../../firmware/GD32VF103_standard_peripheral/Source/gd32vf103_dac.c ****         DAC_CTL |= (amplitude << DAC1_REG_OFFSET);
 423:../../firmware/GD32VF103_standard_peripheral/Source/gd32vf103_dac.c ****     }
 424:../../firmware/GD32VF103_standard_peripheral/Source/gd32vf103_dac.c **** }
 425:../../firmware/GD32VF103_standard_peripheral/Source/gd32vf103_dac.c **** 
 426:../../firmware/GD32VF103_standard_peripheral/Source/gd32vf103_dac.c **** /*!
 427:../../firmware/GD32VF103_standard_peripheral/Source/gd32vf103_dac.c ****     \brief      enable DAC concurrent mode
 428:../../firmware/GD32VF103_standard_peripheral/Source/gd32vf103_dac.c ****     \param[in]  none
 429:../../firmware/GD32VF103_standard_peripheral/Source/gd32vf103_dac.c ****     \param[out] none
 430:../../firmware/GD32VF103_standard_peripheral/Source/gd32vf103_dac.c ****     \retval     none
 431:../../firmware/GD32VF103_standard_peripheral/Source/gd32vf103_dac.c **** */
 432:../../firmware/GD32VF103_standard_peripheral/Source/gd32vf103_dac.c **** void dac_concurrent_enable(void)
 433:../../firmware/GD32VF103_standard_peripheral/Source/gd32vf103_dac.c **** {
 652              		.loc 1 433 1 is_stmt 1
 653              		.cfi_startproc
 434:../../firmware/GD32VF103_standard_peripheral/Source/gd32vf103_dac.c ****     uint32_t ctl = 0U;
 654              		.loc 1 434 5
GAS LISTING /tmp/cc7w2G7Q.s 			page 20


 655              	.LVL31:
 435:../../firmware/GD32VF103_standard_peripheral/Source/gd32vf103_dac.c ****     ctl = DAC_CTL_DEN0 | DAC_CTL_DEN1;
 656              		.loc 1 435 5
 436:../../firmware/GD32VF103_standard_peripheral/Source/gd32vf103_dac.c ****     DAC_CTL |= (ctl);
 657              		.loc 1 436 5
 658              		.loc 1 436 13 is_stmt 0
 659 0000 B7760040 		li	a3,1073770496
 660 0004 83A70640 		lw	a5,1024(a3)
 661 0008 4167     		li	a4,65536
 662 000a 0507     		addi	a4,a4,1
 663 000c D98F     		or	a5,a5,a4
 664 000e 23A0F640 		sw	a5,1024(a3)
 437:../../firmware/GD32VF103_standard_peripheral/Source/gd32vf103_dac.c **** }
 665              		.loc 1 437 1
 666 0012 8280     		ret
 667              		.cfi_endproc
 668              	.LFE20:
 670              		.section	.text.dac_concurrent_disable,"ax",@progbits
 671              		.align	1
 672              		.globl	dac_concurrent_disable
 674              	dac_concurrent_disable:
 675              	.LFB21:
 438:../../firmware/GD32VF103_standard_peripheral/Source/gd32vf103_dac.c **** 
 439:../../firmware/GD32VF103_standard_peripheral/Source/gd32vf103_dac.c **** /*!
 440:../../firmware/GD32VF103_standard_peripheral/Source/gd32vf103_dac.c ****     \brief      disable DAC concurrent mode
 441:../../firmware/GD32VF103_standard_peripheral/Source/gd32vf103_dac.c ****     \param[in]  none
 442:../../firmware/GD32VF103_standard_peripheral/Source/gd32vf103_dac.c ****     \param[out] none
 443:../../firmware/GD32VF103_standard_peripheral/Source/gd32vf103_dac.c ****     \retval     none
 444:../../firmware/GD32VF103_standard_peripheral/Source/gd32vf103_dac.c **** */
 445:../../firmware/GD32VF103_standard_peripheral/Source/gd32vf103_dac.c **** void dac_concurrent_disable(void)
 446:../../firmware/GD32VF103_standard_peripheral/Source/gd32vf103_dac.c **** {
 676              		.loc 1 446 1 is_stmt 1
 677              		.cfi_startproc
 447:../../firmware/GD32VF103_standard_peripheral/Source/gd32vf103_dac.c ****     uint32_t ctl = 0U;
 678              		.loc 1 447 5
 679              	.LVL32:
 448:../../firmware/GD32VF103_standard_peripheral/Source/gd32vf103_dac.c ****     ctl = DAC_CTL_DEN0 | DAC_CTL_DEN1;
 680              		.loc 1 448 5
 449:../../firmware/GD32VF103_standard_peripheral/Source/gd32vf103_dac.c ****     DAC_CTL &= (~ctl);
 681              		.loc 1 449 5
 682              		.loc 1 449 13 is_stmt 0
 683 0000 B7760040 		li	a3,1073770496
 684 0004 83A70640 		lw	a5,1024(a3)
 685 0008 4177     		li	a4,-65536
 686 000a 7917     		addi	a4,a4,-2
 687 000c F98F     		and	a5,a5,a4
 688 000e 23A0F640 		sw	a5,1024(a3)
 450:../../firmware/GD32VF103_standard_peripheral/Source/gd32vf103_dac.c **** }
 689              		.loc 1 450 1
 690 0012 8280     		ret
 691              		.cfi_endproc
 692              	.LFE21:
 694              		.section	.text.dac_concurrent_software_trigger_enable,"ax",@progbits
 695              		.align	1
 696              		.globl	dac_concurrent_software_trigger_enable
 698              	dac_concurrent_software_trigger_enable:
 699              	.LFB22:
GAS LISTING /tmp/cc7w2G7Q.s 			page 21


 451:../../firmware/GD32VF103_standard_peripheral/Source/gd32vf103_dac.c **** 
 452:../../firmware/GD32VF103_standard_peripheral/Source/gd32vf103_dac.c **** /*!
 453:../../firmware/GD32VF103_standard_peripheral/Source/gd32vf103_dac.c ****     \brief      enable DAC concurrent software trigger function
 454:../../firmware/GD32VF103_standard_peripheral/Source/gd32vf103_dac.c ****     \param[in]  none
 455:../../firmware/GD32VF103_standard_peripheral/Source/gd32vf103_dac.c ****     \param[out] none
 456:../../firmware/GD32VF103_standard_peripheral/Source/gd32vf103_dac.c ****     \retval     none
 457:../../firmware/GD32VF103_standard_peripheral/Source/gd32vf103_dac.c **** */
 458:../../firmware/GD32VF103_standard_peripheral/Source/gd32vf103_dac.c **** void dac_concurrent_software_trigger_enable(void)
 459:../../firmware/GD32VF103_standard_peripheral/Source/gd32vf103_dac.c **** {
 700              		.loc 1 459 1 is_stmt 1
 701              		.cfi_startproc
 460:../../firmware/GD32VF103_standard_peripheral/Source/gd32vf103_dac.c ****     uint32_t swt = 0U;
 702              		.loc 1 460 5
 703              	.LVL33:
 461:../../firmware/GD32VF103_standard_peripheral/Source/gd32vf103_dac.c ****     swt = DAC_SWT_SWTR0 | DAC_SWT_SWTR1;
 704              		.loc 1 461 5
 462:../../firmware/GD32VF103_standard_peripheral/Source/gd32vf103_dac.c ****     DAC_SWT |= (swt); 
 705              		.loc 1 462 5
 706              		.loc 1 462 13 is_stmt 0
 707 0000 37770040 		li	a4,1073770496
 708 0004 83274740 		lw	a5,1028(a4)
 709 0008 93E73700 		ori	a5,a5,3
 710 000c 2322F740 		sw	a5,1028(a4)
 463:../../firmware/GD32VF103_standard_peripheral/Source/gd32vf103_dac.c **** }
 711              		.loc 1 463 1
 712 0010 8280     		ret
 713              		.cfi_endproc
 714              	.LFE22:
 716              		.section	.text.dac_concurrent_software_trigger_disable,"ax",@progbits
 717              		.align	1
 718              		.globl	dac_concurrent_software_trigger_disable
 720              	dac_concurrent_software_trigger_disable:
 721              	.LFB23:
 464:../../firmware/GD32VF103_standard_peripheral/Source/gd32vf103_dac.c **** 
 465:../../firmware/GD32VF103_standard_peripheral/Source/gd32vf103_dac.c **** /*!
 466:../../firmware/GD32VF103_standard_peripheral/Source/gd32vf103_dac.c ****     \brief      disable DAC concurrent software trigger function
 467:../../firmware/GD32VF103_standard_peripheral/Source/gd32vf103_dac.c ****     \param[in]  none
 468:../../firmware/GD32VF103_standard_peripheral/Source/gd32vf103_dac.c ****     \param[out] none
 469:../../firmware/GD32VF103_standard_peripheral/Source/gd32vf103_dac.c ****     \retval     none
 470:../../firmware/GD32VF103_standard_peripheral/Source/gd32vf103_dac.c **** */
 471:../../firmware/GD32VF103_standard_peripheral/Source/gd32vf103_dac.c **** void dac_concurrent_software_trigger_disable(void)
 472:../../firmware/GD32VF103_standard_peripheral/Source/gd32vf103_dac.c **** {
 722              		.loc 1 472 1 is_stmt 1
 723              		.cfi_startproc
 473:../../firmware/GD32VF103_standard_peripheral/Source/gd32vf103_dac.c ****     uint32_t swt = 0U;
 724              		.loc 1 473 5
 725              	.LVL34:
 474:../../firmware/GD32VF103_standard_peripheral/Source/gd32vf103_dac.c ****     swt = DAC_SWT_SWTR0 | DAC_SWT_SWTR1;
 726              		.loc 1 474 5
 475:../../firmware/GD32VF103_standard_peripheral/Source/gd32vf103_dac.c ****     DAC_SWT &= (~swt);
 727              		.loc 1 475 5
 728              		.loc 1 475 13 is_stmt 0
 729 0000 37770040 		li	a4,1073770496
 730 0004 83274740 		lw	a5,1028(a4)
 731 0008 F19B     		andi	a5,a5,-4
 732 000a 2322F740 		sw	a5,1028(a4)
 476:../../firmware/GD32VF103_standard_peripheral/Source/gd32vf103_dac.c **** }
GAS LISTING /tmp/cc7w2G7Q.s 			page 22


 733              		.loc 1 476 1
 734 000e 8280     		ret
 735              		.cfi_endproc
 736              	.LFE23:
 738              		.section	.text.dac_concurrent_output_buffer_enable,"ax",@progbits
 739              		.align	1
 740              		.globl	dac_concurrent_output_buffer_enable
 742              	dac_concurrent_output_buffer_enable:
 743              	.LFB24:
 477:../../firmware/GD32VF103_standard_peripheral/Source/gd32vf103_dac.c **** 
 478:../../firmware/GD32VF103_standard_peripheral/Source/gd32vf103_dac.c **** /*!
 479:../../firmware/GD32VF103_standard_peripheral/Source/gd32vf103_dac.c ****     \brief      enable DAC concurrent buffer function
 480:../../firmware/GD32VF103_standard_peripheral/Source/gd32vf103_dac.c ****     \param[in]  none
 481:../../firmware/GD32VF103_standard_peripheral/Source/gd32vf103_dac.c ****     \param[out] none
 482:../../firmware/GD32VF103_standard_peripheral/Source/gd32vf103_dac.c ****     \retval     none
 483:../../firmware/GD32VF103_standard_peripheral/Source/gd32vf103_dac.c **** */
 484:../../firmware/GD32VF103_standard_peripheral/Source/gd32vf103_dac.c **** void dac_concurrent_output_buffer_enable(void)
 485:../../firmware/GD32VF103_standard_peripheral/Source/gd32vf103_dac.c **** {
 744              		.loc 1 485 1 is_stmt 1
 745              		.cfi_startproc
 486:../../firmware/GD32VF103_standard_peripheral/Source/gd32vf103_dac.c ****     uint32_t ctl = 0U;
 746              		.loc 1 486 5
 747              	.LVL35:
 487:../../firmware/GD32VF103_standard_peripheral/Source/gd32vf103_dac.c ****     ctl = DAC_CTL_DBOFF0 | DAC_CTL_DBOFF1;
 748              		.loc 1 487 5
 488:../../firmware/GD32VF103_standard_peripheral/Source/gd32vf103_dac.c ****     DAC_CTL &= (~ctl);
 749              		.loc 1 488 5
 750              		.loc 1 488 13 is_stmt 0
 751 0000 B7760040 		li	a3,1073770496
 752 0004 83A70640 		lw	a5,1024(a3)
 753 0008 0177     		li	a4,-131072
 754 000a 7517     		addi	a4,a4,-3
 755 000c F98F     		and	a5,a5,a4
 756 000e 23A0F640 		sw	a5,1024(a3)
 489:../../firmware/GD32VF103_standard_peripheral/Source/gd32vf103_dac.c **** }
 757              		.loc 1 489 1
 758 0012 8280     		ret
 759              		.cfi_endproc
 760              	.LFE24:
 762              		.section	.text.dac_concurrent_output_buffer_disable,"ax",@progbits
 763              		.align	1
 764              		.globl	dac_concurrent_output_buffer_disable
 766              	dac_concurrent_output_buffer_disable:
 767              	.LFB25:
 490:../../firmware/GD32VF103_standard_peripheral/Source/gd32vf103_dac.c **** 
 491:../../firmware/GD32VF103_standard_peripheral/Source/gd32vf103_dac.c **** /*!
 492:../../firmware/GD32VF103_standard_peripheral/Source/gd32vf103_dac.c ****     \brief      disable DAC concurrent buffer function
 493:../../firmware/GD32VF103_standard_peripheral/Source/gd32vf103_dac.c ****     \param[in]  none
 494:../../firmware/GD32VF103_standard_peripheral/Source/gd32vf103_dac.c ****     \param[out] none
 495:../../firmware/GD32VF103_standard_peripheral/Source/gd32vf103_dac.c ****     \retval     none
 496:../../firmware/GD32VF103_standard_peripheral/Source/gd32vf103_dac.c **** */
 497:../../firmware/GD32VF103_standard_peripheral/Source/gd32vf103_dac.c **** void dac_concurrent_output_buffer_disable(void)
 498:../../firmware/GD32VF103_standard_peripheral/Source/gd32vf103_dac.c **** {
 768              		.loc 1 498 1 is_stmt 1
 769              		.cfi_startproc
 499:../../firmware/GD32VF103_standard_peripheral/Source/gd32vf103_dac.c ****     uint32_t ctl = 0U;
 770              		.loc 1 499 5
GAS LISTING /tmp/cc7w2G7Q.s 			page 23


 771              	.LVL36:
 500:../../firmware/GD32VF103_standard_peripheral/Source/gd32vf103_dac.c ****     ctl = DAC_CTL_DBOFF0 | DAC_CTL_DBOFF1;
 772              		.loc 1 500 5
 501:../../firmware/GD32VF103_standard_peripheral/Source/gd32vf103_dac.c ****     DAC_CTL |= (ctl);
 773              		.loc 1 501 5
 774              		.loc 1 501 13 is_stmt 0
 775 0000 B7760040 		li	a3,1073770496
 776 0004 83A70640 		lw	a5,1024(a3)
 777 0008 37070200 		li	a4,131072
 778 000c 0907     		addi	a4,a4,2
 779 000e D98F     		or	a5,a5,a4
 780 0010 23A0F640 		sw	a5,1024(a3)
 502:../../firmware/GD32VF103_standard_peripheral/Source/gd32vf103_dac.c **** }
 781              		.loc 1 502 1
 782 0014 8280     		ret
 783              		.cfi_endproc
 784              	.LFE25:
 786              		.section	.text.dac_concurrent_data_set,"ax",@progbits
 787              		.align	1
 788              		.globl	dac_concurrent_data_set
 790              	dac_concurrent_data_set:
 791              	.LFB26:
 503:../../firmware/GD32VF103_standard_peripheral/Source/gd32vf103_dac.c **** 
 504:../../firmware/GD32VF103_standard_peripheral/Source/gd32vf103_dac.c **** /*!
 505:../../firmware/GD32VF103_standard_peripheral/Source/gd32vf103_dac.c ****     \brief      set DAC concurrent mode data holding register value
 506:../../firmware/GD32VF103_standard_peripheral/Source/gd32vf103_dac.c ****     \param[in]  dac_align: data alignment
 507:../../firmware/GD32VF103_standard_peripheral/Source/gd32vf103_dac.c ****                 only one parameter can be selected which is shown as below:
 508:../../firmware/GD32VF103_standard_peripheral/Source/gd32vf103_dac.c ****       \arg        DAC_ALIGN_8B_R: data right 8b alignment
 509:../../firmware/GD32VF103_standard_peripheral/Source/gd32vf103_dac.c ****       \arg        DAC_ALIGN_12B_R: data right 12b alignment
 510:../../firmware/GD32VF103_standard_peripheral/Source/gd32vf103_dac.c ****       \arg        DAC_ALIGN_12B_L: data left 12b alignment
 511:../../firmware/GD32VF103_standard_peripheral/Source/gd32vf103_dac.c ****     \param[in]  data0: data to be loaded
 512:../../firmware/GD32VF103_standard_peripheral/Source/gd32vf103_dac.c ****     \param[in]  data1: data to be loaded
 513:../../firmware/GD32VF103_standard_peripheral/Source/gd32vf103_dac.c ****     \param[out] none
 514:../../firmware/GD32VF103_standard_peripheral/Source/gd32vf103_dac.c ****     \retval     none
 515:../../firmware/GD32VF103_standard_peripheral/Source/gd32vf103_dac.c **** */
 516:../../firmware/GD32VF103_standard_peripheral/Source/gd32vf103_dac.c **** void dac_concurrent_data_set(uint32_t dac_align, uint16_t data0, uint16_t data1)
 517:../../firmware/GD32VF103_standard_peripheral/Source/gd32vf103_dac.c **** {
 792              		.loc 1 517 1 is_stmt 1
 793              		.cfi_startproc
 794              	.LVL37:
 518:../../firmware/GD32VF103_standard_peripheral/Source/gd32vf103_dac.c ****     uint32_t data = 0U;
 795              		.loc 1 518 5
 519:../../firmware/GD32VF103_standard_peripheral/Source/gd32vf103_dac.c ****     switch(dac_align){
 796              		.loc 1 519 5
 797 0000 8547     		li	a5,1
 798 0002 630EF500 		beq	a0,a5,.L66
 799 0006 1DC1     		beq	a0,zero,.L67
 800 0008 8947     		li	a5,2
 801 000a 6319F500 		bne	a0,a5,.L70
 520:../../firmware/GD32VF103_standard_peripheral/Source/gd32vf103_dac.c ****     /* data right 12b alignment */
 521:../../firmware/GD32VF103_standard_peripheral/Source/gd32vf103_dac.c ****     case DAC_ALIGN_12B_R:
 522:../../firmware/GD32VF103_standard_peripheral/Source/gd32vf103_dac.c ****         data = ((uint32_t)data1 << DH_12BIT_OFFSET) | data0;
 523:../../firmware/GD32VF103_standard_peripheral/Source/gd32vf103_dac.c ****         DACC_R12DH = data;
 524:../../firmware/GD32VF103_standard_peripheral/Source/gd32vf103_dac.c ****         break;
 525:../../firmware/GD32VF103_standard_peripheral/Source/gd32vf103_dac.c ****     /* data left 12b alignment */
 526:../../firmware/GD32VF103_standard_peripheral/Source/gd32vf103_dac.c ****     case DAC_ALIGN_12B_L:
 527:../../firmware/GD32VF103_standard_peripheral/Source/gd32vf103_dac.c ****         data = ((uint32_t)data1 << DH_12BIT_OFFSET) | data0;
GAS LISTING /tmp/cc7w2G7Q.s 			page 24


 528:../../firmware/GD32VF103_standard_peripheral/Source/gd32vf103_dac.c ****         DACC_L12DH = data;
 529:../../firmware/GD32VF103_standard_peripheral/Source/gd32vf103_dac.c ****         break;
 530:../../firmware/GD32VF103_standard_peripheral/Source/gd32vf103_dac.c ****     /* data right 8b alignment */
 531:../../firmware/GD32VF103_standard_peripheral/Source/gd32vf103_dac.c ****     case DAC_ALIGN_8B_R:
 532:../../firmware/GD32VF103_standard_peripheral/Source/gd32vf103_dac.c ****         data = ((uint32_t)data1 << DH_8BIT_OFFSET) | data0;
 802              		.loc 1 532 9
 803              		.loc 1 532 33 is_stmt 0
 804 000e 2206     		slli	a2,a2,8
 805              	.LVL38:
 806              		.loc 1 532 14
 807 0010 4D8E     		or	a2,a2,a1
 808              	.LVL39:
 533:../../firmware/GD32VF103_standard_peripheral/Source/gd32vf103_dac.c ****         DACC_R8DH = data;
 809              		.loc 1 533 9 is_stmt 1
 810              		.loc 1 533 19 is_stmt 0
 811 0012 B7770040 		li	a5,1073770496
 812 0016 23A4C742 		sw	a2,1064(a5)
 534:../../firmware/GD32VF103_standard_peripheral/Source/gd32vf103_dac.c ****         break;
 813              		.loc 1 534 9 is_stmt 1
 535:../../firmware/GD32VF103_standard_peripheral/Source/gd32vf103_dac.c ****     default:
 536:../../firmware/GD32VF103_standard_peripheral/Source/gd32vf103_dac.c ****         break;
 537:../../firmware/GD32VF103_standard_peripheral/Source/gd32vf103_dac.c ****     }
 538:../../firmware/GD32VF103_standard_peripheral/Source/gd32vf103_dac.c **** }
 814              		.loc 1 538 1 is_stmt 0
 815 001a 8280     		ret
 816              	.LVL40:
 817              	.L70:
 818 001c 8280     		ret
 819              	.L66:
 527:../../firmware/GD32VF103_standard_peripheral/Source/gd32vf103_dac.c ****         DACC_L12DH = data;
 820              		.loc 1 527 9 is_stmt 1
 527:../../firmware/GD32VF103_standard_peripheral/Source/gd32vf103_dac.c ****         DACC_L12DH = data;
 821              		.loc 1 527 33 is_stmt 0
 822 001e 4206     		slli	a2,a2,16
 823              	.LVL41:
 527:../../firmware/GD32VF103_standard_peripheral/Source/gd32vf103_dac.c ****         DACC_L12DH = data;
 824              		.loc 1 527 14
 825 0020 4D8E     		or	a2,a2,a1
 826              	.LVL42:
 528:../../firmware/GD32VF103_standard_peripheral/Source/gd32vf103_dac.c ****         break;
 827              		.loc 1 528 9 is_stmt 1
 528:../../firmware/GD32VF103_standard_peripheral/Source/gd32vf103_dac.c ****         break;
 828              		.loc 1 528 20 is_stmt 0
 829 0022 B7770040 		li	a5,1073770496
 830 0026 23A2C742 		sw	a2,1060(a5)
 529:../../firmware/GD32VF103_standard_peripheral/Source/gd32vf103_dac.c ****     /* data right 8b alignment */
 831              		.loc 1 529 9 is_stmt 1
 832 002a 8280     		ret
 833              	.LVL43:
 834              	.L67:
 522:../../firmware/GD32VF103_standard_peripheral/Source/gd32vf103_dac.c ****         DACC_R12DH = data;
 835              		.loc 1 522 9
 522:../../firmware/GD32VF103_standard_peripheral/Source/gd32vf103_dac.c ****         DACC_R12DH = data;
 836              		.loc 1 522 33 is_stmt 0
 837 002c 4206     		slli	a2,a2,16
 838              	.LVL44:
 522:../../firmware/GD32VF103_standard_peripheral/Source/gd32vf103_dac.c ****         DACC_R12DH = data;
GAS LISTING /tmp/cc7w2G7Q.s 			page 25


 839              		.loc 1 522 14
 840 002e 4D8E     		or	a2,a2,a1
 841              	.LVL45:
 523:../../firmware/GD32VF103_standard_peripheral/Source/gd32vf103_dac.c ****         break;
 842              		.loc 1 523 9 is_stmt 1
 523:../../firmware/GD32VF103_standard_peripheral/Source/gd32vf103_dac.c ****         break;
 843              		.loc 1 523 20 is_stmt 0
 844 0030 B7770040 		li	a5,1073770496
 845 0034 23A0C742 		sw	a2,1056(a5)
 524:../../firmware/GD32VF103_standard_peripheral/Source/gd32vf103_dac.c ****     /* data left 12b alignment */
 846              		.loc 1 524 9 is_stmt 1
 847 0038 8280     		ret
 848              		.cfi_endproc
 849              	.LFE26:
 851              		.text
 852              	.Letext0:
 853              		.file 2 "/home/remahl/toolchain-gd32v/toolchain-gd32v-linux/compiler/riscv64-unknown-elf/include/m
 854              		.file 3 "/home/remahl/toolchain-gd32v/toolchain-gd32v-linux/compiler/riscv64-unknown-elf/include/s
 855              		.file 4 "../../firmware/GD32VF103_standard_peripheral/Include/gd32vf103_rcu.h"
 856              		.file 5 "../../firmware/GD32VF103_standard_peripheral/system_gd32vf103.h"
GAS LISTING /tmp/cc7w2G7Q.s 			page 26


DEFINED SYMBOLS
                            *ABS*:0000000000000000 gd32vf103_dac.c
     /tmp/cc7w2G7Q.s:13     .text.dac_deinit:0000000000000000 dac_deinit
     /tmp/cc7w2G7Q.s:17     .text.dac_deinit:0000000000000000 .L0 
     /tmp/cc7w2G7Q.s:18     .text.dac_deinit:0000000000000000 .L0 
     /tmp/cc7w2G7Q.s:19     .text.dac_deinit:0000000000000000 .L0 
     /tmp/cc7w2G7Q.s:20     .text.dac_deinit:0000000000000000 .L0 
     /tmp/cc7w2G7Q.s:22     .text.dac_deinit:0000000000000002 .L0 
     /tmp/cc7w2G7Q.s:24     .text.dac_deinit:0000000000000002 .L0 
     /tmp/cc7w2G7Q.s:26     .text.dac_deinit:0000000000000006 .L0 
     /tmp/cc7w2G7Q.s:27     .text.dac_deinit:0000000000000008 .L0 
     /tmp/cc7w2G7Q.s:29     .text.dac_deinit:0000000000000008 .L0 
     /tmp/cc7w2G7Q.s:32     .text.dac_deinit:0000000000000010 .L0 
     /tmp/cc7w2G7Q.s:33     .text.dac_deinit:0000000000000010 .L0 
     /tmp/cc7w2G7Q.s:34     .text.dac_deinit:0000000000000012 .L0 
     /tmp/cc7w2G7Q.s:36     .text.dac_deinit:0000000000000012 .L0 
     /tmp/cc7w2G7Q.s:38     .text.dac_deinit:0000000000000016 .L0 
     /tmp/cc7w2G7Q.s:40     .text.dac_deinit:0000000000000018 .L0 
     /tmp/cc7w2G7Q.s:42     .text.dac_deinit:0000000000000018 .L0 
     /tmp/cc7w2G7Q.s:44     .text.dac_deinit:0000000000000020 .L0 
     /tmp/cc7w2G7Q.s:51     .text.dac_enable:0000000000000000 dac_enable
     /tmp/cc7w2G7Q.s:54     .text.dac_enable:0000000000000000 .L0 
     /tmp/cc7w2G7Q.s:56     .text.dac_enable:0000000000000000 .L0 
     /tmp/cc7w2G7Q.s:57     .text.dac_enable:0000000000000000 .L0 
     /tmp/cc7w2G7Q.s:58     .text.dac_enable:0000000000000000 .L0 
     /tmp/cc7w2G7Q.s:61     .text.dac_enable:0000000000000008 .L0 
     /tmp/cc7w2G7Q.s:63     .text.dac_enable:000000000000000a .L0 
     /tmp/cc7w2G7Q.s:64     .text.dac_enable:000000000000000a .L0 
     /tmp/cc7w2G7Q.s:69     .text.dac_enable:0000000000000014 .L0 
     /tmp/cc7w2G7Q.s:70     .text.dac_enable:0000000000000014 .L0 
     /tmp/cc7w2G7Q.s:74     .text.dac_enable:000000000000001c .L0 
     /tmp/cc7w2G7Q.s:75     .text.dac_enable:000000000000001e .L0 
     /tmp/cc7w2G7Q.s:82     .text.dac_disable:0000000000000000 dac_disable
     /tmp/cc7w2G7Q.s:85     .text.dac_disable:0000000000000000 .L0 
     /tmp/cc7w2G7Q.s:87     .text.dac_disable:0000000000000000 .L0 
     /tmp/cc7w2G7Q.s:88     .text.dac_disable:0000000000000000 .L0 
     /tmp/cc7w2G7Q.s:89     .text.dac_disable:0000000000000000 .L0 
     /tmp/cc7w2G7Q.s:91     .text.dac_disable:0000000000000002 .L0 
     /tmp/cc7w2G7Q.s:92     .text.dac_disable:0000000000000002 .L0 
     /tmp/cc7w2G7Q.s:99     .text.dac_disable:0000000000000012 .L0 
     /tmp/cc7w2G7Q.s:100    .text.dac_disable:0000000000000012 .L0 
     /tmp/cc7w2G7Q.s:107    .text.dac_disable:0000000000000024 .L0 
     /tmp/cc7w2G7Q.s:108    .text.dac_disable:0000000000000026 .L0 
     /tmp/cc7w2G7Q.s:115    .text.dac_dma_enable:0000000000000000 dac_dma_enable
     /tmp/cc7w2G7Q.s:118    .text.dac_dma_enable:0000000000000000 .L0 
     /tmp/cc7w2G7Q.s:120    .text.dac_dma_enable:0000000000000000 .L0 
     /tmp/cc7w2G7Q.s:121    .text.dac_dma_enable:0000000000000000 .L0 
     /tmp/cc7w2G7Q.s:122    .text.dac_dma_enable:0000000000000000 .L0 
     /tmp/cc7w2G7Q.s:125    .text.dac_dma_enable:0000000000000008 .L0 
     /tmp/cc7w2G7Q.s:127    .text.dac_dma_enable:000000000000000a .L0 
     /tmp/cc7w2G7Q.s:128    .text.dac_dma_enable:000000000000000a .L0 
     /tmp/cc7w2G7Q.s:134    .text.dac_dma_enable:0000000000000014 .L0 
     /tmp/cc7w2G7Q.s:135    .text.dac_dma_enable:0000000000000014 .L0 
     /tmp/cc7w2G7Q.s:139    .text.dac_dma_enable:000000000000001e .L0 
     /tmp/cc7w2G7Q.s:140    .text.dac_dma_enable:0000000000000020 .L0 
     /tmp/cc7w2G7Q.s:147    .text.dac_dma_disable:0000000000000000 dac_dma_disable
     /tmp/cc7w2G7Q.s:150    .text.dac_dma_disable:0000000000000000 .L0 
GAS LISTING /tmp/cc7w2G7Q.s 			page 27


     /tmp/cc7w2G7Q.s:152    .text.dac_dma_disable:0000000000000000 .L0 
     /tmp/cc7w2G7Q.s:153    .text.dac_dma_disable:0000000000000000 .L0 
     /tmp/cc7w2G7Q.s:154    .text.dac_dma_disable:0000000000000000 .L0 
     /tmp/cc7w2G7Q.s:157    .text.dac_dma_disable:0000000000000008 .L0 
     /tmp/cc7w2G7Q.s:159    .text.dac_dma_disable:000000000000000a .L0 
     /tmp/cc7w2G7Q.s:160    .text.dac_dma_disable:000000000000000a .L0 
     /tmp/cc7w2G7Q.s:167    .text.dac_dma_disable:0000000000000016 .L0 
     /tmp/cc7w2G7Q.s:168    .text.dac_dma_disable:0000000000000016 .L0 
     /tmp/cc7w2G7Q.s:173    .text.dac_dma_disable:0000000000000022 .L0 
     /tmp/cc7w2G7Q.s:174    .text.dac_dma_disable:0000000000000024 .L0 
     /tmp/cc7w2G7Q.s:181    .text.dac_output_buffer_enable:0000000000000000 dac_output_buffer_enable
     /tmp/cc7w2G7Q.s:184    .text.dac_output_buffer_enable:0000000000000000 .L0 
     /tmp/cc7w2G7Q.s:186    .text.dac_output_buffer_enable:0000000000000000 .L0 
     /tmp/cc7w2G7Q.s:187    .text.dac_output_buffer_enable:0000000000000000 .L0 
     /tmp/cc7w2G7Q.s:188    .text.dac_output_buffer_enable:0000000000000000 .L0 
     /tmp/cc7w2G7Q.s:190    .text.dac_output_buffer_enable:0000000000000002 .L0 
     /tmp/cc7w2G7Q.s:191    .text.dac_output_buffer_enable:0000000000000002 .L0 
     /tmp/cc7w2G7Q.s:198    .text.dac_output_buffer_enable:0000000000000012 .L0 
     /tmp/cc7w2G7Q.s:199    .text.dac_output_buffer_enable:0000000000000012 .L0 
     /tmp/cc7w2G7Q.s:206    .text.dac_output_buffer_enable:0000000000000024 .L0 
     /tmp/cc7w2G7Q.s:207    .text.dac_output_buffer_enable:0000000000000026 .L0 
     /tmp/cc7w2G7Q.s:214    .text.dac_output_buffer_disable:0000000000000000 dac_output_buffer_disable
     /tmp/cc7w2G7Q.s:217    .text.dac_output_buffer_disable:0000000000000000 .L0 
     /tmp/cc7w2G7Q.s:219    .text.dac_output_buffer_disable:0000000000000000 .L0 
     /tmp/cc7w2G7Q.s:220    .text.dac_output_buffer_disable:0000000000000000 .L0 
     /tmp/cc7w2G7Q.s:221    .text.dac_output_buffer_disable:0000000000000000 .L0 
     /tmp/cc7w2G7Q.s:224    .text.dac_output_buffer_disable:0000000000000008 .L0 
     /tmp/cc7w2G7Q.s:226    .text.dac_output_buffer_disable:000000000000000a .L0 
     /tmp/cc7w2G7Q.s:227    .text.dac_output_buffer_disable:000000000000000a .L0 
     /tmp/cc7w2G7Q.s:232    .text.dac_output_buffer_disable:0000000000000014 .L0 
     /tmp/cc7w2G7Q.s:233    .text.dac_output_buffer_disable:0000000000000014 .L0 
     /tmp/cc7w2G7Q.s:237    .text.dac_output_buffer_disable:000000000000001e .L0 
     /tmp/cc7w2G7Q.s:238    .text.dac_output_buffer_disable:0000000000000020 .L0 
     /tmp/cc7w2G7Q.s:245    .text.dac_output_value_get:0000000000000000 dac_output_value_get
     /tmp/cc7w2G7Q.s:248    .text.dac_output_value_get:0000000000000000 .L0 
     /tmp/cc7w2G7Q.s:250    .text.dac_output_value_get:0000000000000000 .L0 
     /tmp/cc7w2G7Q.s:251    .text.dac_output_value_get:0000000000000000 .L0 
     /tmp/cc7w2G7Q.s:252    .text.dac_output_value_get:0000000000000000 .L0 
     /tmp/cc7w2G7Q.s:253    .text.dac_output_value_get:0000000000000000 .L0 
     /tmp/cc7w2G7Q.s:255    .text.dac_output_value_get:0000000000000004 .L0 
     /tmp/cc7w2G7Q.s:257    .text.dac_output_value_get:0000000000000006 .L0 
     /tmp/cc7w2G7Q.s:258    .text.dac_output_value_get:0000000000000006 .L0 
     /tmp/cc7w2G7Q.s:261    .text.dac_output_value_get:000000000000000a .L0 
     /tmp/cc7w2G7Q.s:268    .text.dac_output_value_get:0000000000000010 .L0 
     /tmp/cc7w2G7Q.s:269    .text.dac_output_value_get:0000000000000010 .L0 
     /tmp/cc7w2G7Q.s:272    .text.dac_output_value_get:0000000000000014 .L0 
     /tmp/cc7w2G7Q.s:276    .text.dac_output_value_get:0000000000000018 .L0 
     /tmp/cc7w2G7Q.s:277    .text.dac_output_value_get:0000000000000018 .L0 
     /tmp/cc7w2G7Q.s:278    .text.dac_output_value_get:000000000000001a .L0 
     /tmp/cc7w2G7Q.s:285    .text.dac_data_set:0000000000000000 dac_data_set
     /tmp/cc7w2G7Q.s:288    .text.dac_data_set:0000000000000000 .L0 
     /tmp/cc7w2G7Q.s:290    .text.dac_data_set:0000000000000000 .L0 
     /tmp/cc7w2G7Q.s:291    .text.dac_data_set:0000000000000000 .L0 
     /tmp/cc7w2G7Q.s:292    .text.dac_data_set:0000000000000000 .L0 
     /tmp/cc7w2G7Q.s:294    .text.dac_data_set:0000000000000002 .L0 
     /tmp/cc7w2G7Q.s:296    .text.dac_data_set:0000000000000004 .L0 
     /tmp/cc7w2G7Q.s:301    .text.dac_data_set:0000000000000010 .L0 
GAS LISTING /tmp/cc7w2G7Q.s 			page 28


     /tmp/cc7w2G7Q.s:302    .text.dac_data_set:0000000000000010 .L0 
     /tmp/cc7w2G7Q.s:305    .text.dac_data_set:0000000000000018 .L0 
     /tmp/cc7w2G7Q.s:308    .text.dac_data_set:000000000000001a .L0 
     /tmp/cc7w2G7Q.s:313    .text.dac_data_set:0000000000000026 .L0 
     /tmp/cc7w2G7Q.s:314    .text.dac_data_set:0000000000000026 .L0 
     /tmp/cc7w2G7Q.s:317    .text.dac_data_set:000000000000002e .L0 
     /tmp/cc7w2G7Q.s:318    .text.dac_data_set:000000000000002e .L0 
     /tmp/cc7w2G7Q.s:325    .text.dac_data_set:0000000000000034 .L0 
     /tmp/cc7w2G7Q.s:326    .text.dac_data_set:0000000000000034 .L0 
     /tmp/cc7w2G7Q.s:329    .text.dac_data_set:000000000000003c .L0 
     /tmp/cc7w2G7Q.s:332    .text.dac_data_set:000000000000003e .L0 
     /tmp/cc7w2G7Q.s:333    .text.dac_data_set:000000000000003e .L0 
     /tmp/cc7w2G7Q.s:336    .text.dac_data_set:0000000000000046 .L0 
     /tmp/cc7w2G7Q.s:339    .text.dac_data_set:0000000000000048 .L0 
     /tmp/cc7w2G7Q.s:340    .text.dac_data_set:0000000000000048 .L0 
     /tmp/cc7w2G7Q.s:343    .text.dac_data_set:0000000000000050 .L0 
     /tmp/cc7w2G7Q.s:346    .text.dac_data_set:0000000000000052 .L0 
     /tmp/cc7w2G7Q.s:347    .text.dac_data_set:0000000000000052 .L0 
     /tmp/cc7w2G7Q.s:350    .text.dac_data_set:000000000000005a .L0 
     /tmp/cc7w2G7Q.s:351    .text.dac_data_set:000000000000005c .L0 
     /tmp/cc7w2G7Q.s:358    .text.dac_trigger_enable:0000000000000000 dac_trigger_enable
     /tmp/cc7w2G7Q.s:361    .text.dac_trigger_enable:0000000000000000 .L0 
     /tmp/cc7w2G7Q.s:363    .text.dac_trigger_enable:0000000000000000 .L0 
     /tmp/cc7w2G7Q.s:364    .text.dac_trigger_enable:0000000000000000 .L0 
     /tmp/cc7w2G7Q.s:365    .text.dac_trigger_enable:0000000000000000 .L0 
     /tmp/cc7w2G7Q.s:368    .text.dac_trigger_enable:0000000000000008 .L0 
     /tmp/cc7w2G7Q.s:370    .text.dac_trigger_enable:000000000000000a .L0 
     /tmp/cc7w2G7Q.s:371    .text.dac_trigger_enable:000000000000000a .L0 
     /tmp/cc7w2G7Q.s:376    .text.dac_trigger_enable:0000000000000014 .L0 
     /tmp/cc7w2G7Q.s:377    .text.dac_trigger_enable:0000000000000014 .L0 
     /tmp/cc7w2G7Q.s:381    .text.dac_trigger_enable:000000000000001e .L0 
     /tmp/cc7w2G7Q.s:382    .text.dac_trigger_enable:0000000000000020 .L0 
     /tmp/cc7w2G7Q.s:389    .text.dac_trigger_disable:0000000000000000 dac_trigger_disable
     /tmp/cc7w2G7Q.s:392    .text.dac_trigger_disable:0000000000000000 .L0 
     /tmp/cc7w2G7Q.s:394    .text.dac_trigger_disable:0000000000000000 .L0 
     /tmp/cc7w2G7Q.s:395    .text.dac_trigger_disable:0000000000000000 .L0 
     /tmp/cc7w2G7Q.s:396    .text.dac_trigger_disable:0000000000000000 .L0 
     /tmp/cc7w2G7Q.s:398    .text.dac_trigger_disable:0000000000000002 .L0 
     /tmp/cc7w2G7Q.s:399    .text.dac_trigger_disable:0000000000000002 .L0 
     /tmp/cc7w2G7Q.s:406    .text.dac_trigger_disable:0000000000000012 .L0 
     /tmp/cc7w2G7Q.s:407    .text.dac_trigger_disable:0000000000000012 .L0 
     /tmp/cc7w2G7Q.s:414    .text.dac_trigger_disable:0000000000000026 .L0 
     /tmp/cc7w2G7Q.s:415    .text.dac_trigger_disable:0000000000000028 .L0 
     /tmp/cc7w2G7Q.s:422    .text.dac_trigger_source_config:0000000000000000 dac_trigger_source_config
     /tmp/cc7w2G7Q.s:425    .text.dac_trigger_source_config:0000000000000000 .L0 
     /tmp/cc7w2G7Q.s:427    .text.dac_trigger_source_config:0000000000000000 .L0 
     /tmp/cc7w2G7Q.s:428    .text.dac_trigger_source_config:0000000000000000 .L0 
     /tmp/cc7w2G7Q.s:429    .text.dac_trigger_source_config:0000000000000000 .L0 
     /tmp/cc7w2G7Q.s:432    .text.dac_trigger_source_config:0000000000000008 .L0 
     /tmp/cc7w2G7Q.s:434    .text.dac_trigger_source_config:000000000000000a .L0 
     /tmp/cc7w2G7Q.s:435    .text.dac_trigger_source_config:000000000000000a .L0 
     /tmp/cc7w2G7Q.s:438    .text.dac_trigger_source_config:0000000000000012 .L0 
     /tmp/cc7w2G7Q.s:439    .text.dac_trigger_source_config:0000000000000012 .L0 
     /tmp/cc7w2G7Q.s:447    .text.dac_trigger_source_config:000000000000001e .L0 
     /tmp/cc7w2G7Q.s:448    .text.dac_trigger_source_config:000000000000001e .L0 
     /tmp/cc7w2G7Q.s:453    .text.dac_trigger_source_config:000000000000002a .L0 
     /tmp/cc7w2G7Q.s:454    .text.dac_trigger_source_config:000000000000002a .L0 
GAS LISTING /tmp/cc7w2G7Q.s 			page 29


     /tmp/cc7w2G7Q.s:456    .text.dac_trigger_source_config:000000000000002e .L0 
     /tmp/cc7w2G7Q.s:459    .text.dac_trigger_source_config:0000000000000030 .L0 
     /tmp/cc7w2G7Q.s:462    .text.dac_trigger_source_config:0000000000000036 .L0 
     /tmp/cc7w2G7Q.s:463    .text.dac_trigger_source_config:0000000000000038 .L0 
     /tmp/cc7w2G7Q.s:470    .text.dac_software_trigger_enable:0000000000000000 dac_software_trigger_enable
     /tmp/cc7w2G7Q.s:473    .text.dac_software_trigger_enable:0000000000000000 .L0 
     /tmp/cc7w2G7Q.s:475    .text.dac_software_trigger_enable:0000000000000000 .L0 
     /tmp/cc7w2G7Q.s:476    .text.dac_software_trigger_enable:0000000000000000 .L0 
     /tmp/cc7w2G7Q.s:477    .text.dac_software_trigger_enable:0000000000000000 .L0 
     /tmp/cc7w2G7Q.s:480    .text.dac_software_trigger_enable:0000000000000008 .L0 
     /tmp/cc7w2G7Q.s:482    .text.dac_software_trigger_enable:000000000000000a .L0 
     /tmp/cc7w2G7Q.s:483    .text.dac_software_trigger_enable:000000000000000a .L0 
     /tmp/cc7w2G7Q.s:488    .text.dac_software_trigger_enable:0000000000000014 .L0 
     /tmp/cc7w2G7Q.s:489    .text.dac_software_trigger_enable:0000000000000014 .L0 
     /tmp/cc7w2G7Q.s:492    .text.dac_software_trigger_enable:000000000000001c .L0 
     /tmp/cc7w2G7Q.s:493    .text.dac_software_trigger_enable:000000000000001e .L0 
     /tmp/cc7w2G7Q.s:500    .text.dac_software_trigger_disable:0000000000000000 dac_software_trigger_disable
     /tmp/cc7w2G7Q.s:503    .text.dac_software_trigger_disable:0000000000000000 .L0 
     /tmp/cc7w2G7Q.s:505    .text.dac_software_trigger_disable:0000000000000000 .L0 
     /tmp/cc7w2G7Q.s:506    .text.dac_software_trigger_disable:0000000000000000 .L0 
     /tmp/cc7w2G7Q.s:507    .text.dac_software_trigger_disable:0000000000000000 .L0 
     /tmp/cc7w2G7Q.s:510    .text.dac_software_trigger_disable:0000000000000008 .L0 
     /tmp/cc7w2G7Q.s:512    .text.dac_software_trigger_disable:000000000000000a .L0 
     /tmp/cc7w2G7Q.s:513    .text.dac_software_trigger_disable:000000000000000a .L0 
     /tmp/cc7w2G7Q.s:518    .text.dac_software_trigger_disable:0000000000000012 .L0 
     /tmp/cc7w2G7Q.s:519    .text.dac_software_trigger_disable:0000000000000012 .L0 
     /tmp/cc7w2G7Q.s:522    .text.dac_software_trigger_disable:0000000000000018 .L0 
     /tmp/cc7w2G7Q.s:523    .text.dac_software_trigger_disable:000000000000001a .L0 
     /tmp/cc7w2G7Q.s:530    .text.dac_wave_mode_config:0000000000000000 dac_wave_mode_config
     /tmp/cc7w2G7Q.s:533    .text.dac_wave_mode_config:0000000000000000 .L0 
     /tmp/cc7w2G7Q.s:535    .text.dac_wave_mode_config:0000000000000000 .L0 
     /tmp/cc7w2G7Q.s:536    .text.dac_wave_mode_config:0000000000000000 .L0 
     /tmp/cc7w2G7Q.s:537    .text.dac_wave_mode_config:0000000000000000 .L0 
     /tmp/cc7w2G7Q.s:540    .text.dac_wave_mode_config:0000000000000008 .L0 
     /tmp/cc7w2G7Q.s:542    .text.dac_wave_mode_config:000000000000000a .L0 
     /tmp/cc7w2G7Q.s:543    .text.dac_wave_mode_config:000000000000000a .L0 
     /tmp/cc7w2G7Q.s:546    .text.dac_wave_mode_config:0000000000000012 .L0 
     /tmp/cc7w2G7Q.s:547    .text.dac_wave_mode_config:0000000000000012 .L0 
     /tmp/cc7w2G7Q.s:555    .text.dac_wave_mode_config:000000000000001e .L0 
     /tmp/cc7w2G7Q.s:556    .text.dac_wave_mode_config:000000000000001e .L0 
     /tmp/cc7w2G7Q.s:561    .text.dac_wave_mode_config:000000000000002a .L0 
     /tmp/cc7w2G7Q.s:562    .text.dac_wave_mode_config:000000000000002a .L0 
     /tmp/cc7w2G7Q.s:564    .text.dac_wave_mode_config:000000000000002e .L0 
     /tmp/cc7w2G7Q.s:567    .text.dac_wave_mode_config:0000000000000030 .L0 
     /tmp/cc7w2G7Q.s:570    .text.dac_wave_mode_config:0000000000000036 .L0 
     /tmp/cc7w2G7Q.s:571    .text.dac_wave_mode_config:0000000000000038 .L0 
     /tmp/cc7w2G7Q.s:578    .text.dac_wave_bit_width_config:0000000000000000 dac_wave_bit_width_config
     /tmp/cc7w2G7Q.s:581    .text.dac_wave_bit_width_config:0000000000000000 .L0 
     /tmp/cc7w2G7Q.s:583    .text.dac_wave_bit_width_config:0000000000000000 .L0 
     /tmp/cc7w2G7Q.s:584    .text.dac_wave_bit_width_config:0000000000000000 .L0 
     /tmp/cc7w2G7Q.s:585    .text.dac_wave_bit_width_config:0000000000000000 .L0 
     /tmp/cc7w2G7Q.s:588    .text.dac_wave_bit_width_config:0000000000000008 .L0 
     /tmp/cc7w2G7Q.s:590    .text.dac_wave_bit_width_config:000000000000000a .L0 
     /tmp/cc7w2G7Q.s:591    .text.dac_wave_bit_width_config:000000000000000a .L0 
     /tmp/cc7w2G7Q.s:596    .text.dac_wave_bit_width_config:0000000000000016 .L0 
     /tmp/cc7w2G7Q.s:597    .text.dac_wave_bit_width_config:0000000000000016 .L0 
     /tmp/cc7w2G7Q.s:605    .text.dac_wave_bit_width_config:0000000000000022 .L0 
GAS LISTING /tmp/cc7w2G7Q.s 			page 30


     /tmp/cc7w2G7Q.s:606    .text.dac_wave_bit_width_config:0000000000000022 .L0 
     /tmp/cc7w2G7Q.s:611    .text.dac_wave_bit_width_config:000000000000002e .L0 
     /tmp/cc7w2G7Q.s:612    .text.dac_wave_bit_width_config:000000000000002e .L0 
     /tmp/cc7w2G7Q.s:614    .text.dac_wave_bit_width_config:0000000000000032 .L0 
     /tmp/cc7w2G7Q.s:617    .text.dac_wave_bit_width_config:0000000000000034 .L0 
     /tmp/cc7w2G7Q.s:620    .text.dac_wave_bit_width_config:000000000000003a .L0 
     /tmp/cc7w2G7Q.s:621    .text.dac_wave_bit_width_config:000000000000003c .L0 
     /tmp/cc7w2G7Q.s:628    .text.dac_lfsr_noise_config:0000000000000000 dac_lfsr_noise_config
     /tmp/cc7w2G7Q.s:630    .text.dac_lfsr_noise_config:0000000000000000 .L0 
     /tmp/cc7w2G7Q.s:632    .text.dac_lfsr_noise_config:0000000000000008 .L0 
     /tmp/cc7w2G7Q.s:639    .text.dac_triangle_noise_config:0000000000000000 dac_triangle_noise_config
     /tmp/cc7w2G7Q.s:641    .text.dac_triangle_noise_config:0000000000000000 .L0 
     /tmp/cc7w2G7Q.s:643    .text.dac_triangle_noise_config:0000000000000008 .L0 
     /tmp/cc7w2G7Q.s:650    .text.dac_concurrent_enable:0000000000000000 dac_concurrent_enable
     /tmp/cc7w2G7Q.s:653    .text.dac_concurrent_enable:0000000000000000 .L0 
     /tmp/cc7w2G7Q.s:654    .text.dac_concurrent_enable:0000000000000000 .L0 
     /tmp/cc7w2G7Q.s:656    .text.dac_concurrent_enable:0000000000000000 .L0 
     /tmp/cc7w2G7Q.s:657    .text.dac_concurrent_enable:0000000000000000 .L0 
     /tmp/cc7w2G7Q.s:658    .text.dac_concurrent_enable:0000000000000000 .L0 
     /tmp/cc7w2G7Q.s:659    .text.dac_concurrent_enable:0000000000000000 .L0 
     /tmp/cc7w2G7Q.s:666    .text.dac_concurrent_enable:0000000000000012 .L0 
     /tmp/cc7w2G7Q.s:667    .text.dac_concurrent_enable:0000000000000014 .L0 
     /tmp/cc7w2G7Q.s:674    .text.dac_concurrent_disable:0000000000000000 dac_concurrent_disable
     /tmp/cc7w2G7Q.s:677    .text.dac_concurrent_disable:0000000000000000 .L0 
     /tmp/cc7w2G7Q.s:678    .text.dac_concurrent_disable:0000000000000000 .L0 
     /tmp/cc7w2G7Q.s:680    .text.dac_concurrent_disable:0000000000000000 .L0 
     /tmp/cc7w2G7Q.s:681    .text.dac_concurrent_disable:0000000000000000 .L0 
     /tmp/cc7w2G7Q.s:682    .text.dac_concurrent_disable:0000000000000000 .L0 
     /tmp/cc7w2G7Q.s:683    .text.dac_concurrent_disable:0000000000000000 .L0 
     /tmp/cc7w2G7Q.s:690    .text.dac_concurrent_disable:0000000000000012 .L0 
     /tmp/cc7w2G7Q.s:691    .text.dac_concurrent_disable:0000000000000014 .L0 
     /tmp/cc7w2G7Q.s:698    .text.dac_concurrent_software_trigger_enable:0000000000000000 dac_concurrent_software_trigger_enable
     /tmp/cc7w2G7Q.s:701    .text.dac_concurrent_software_trigger_enable:0000000000000000 .L0 
     /tmp/cc7w2G7Q.s:702    .text.dac_concurrent_software_trigger_enable:0000000000000000 .L0 
     /tmp/cc7w2G7Q.s:704    .text.dac_concurrent_software_trigger_enable:0000000000000000 .L0 
     /tmp/cc7w2G7Q.s:705    .text.dac_concurrent_software_trigger_enable:0000000000000000 .L0 
     /tmp/cc7w2G7Q.s:706    .text.dac_concurrent_software_trigger_enable:0000000000000000 .L0 
     /tmp/cc7w2G7Q.s:707    .text.dac_concurrent_software_trigger_enable:0000000000000000 .L0 
     /tmp/cc7w2G7Q.s:712    .text.dac_concurrent_software_trigger_enable:0000000000000010 .L0 
     /tmp/cc7w2G7Q.s:713    .text.dac_concurrent_software_trigger_enable:0000000000000012 .L0 
     /tmp/cc7w2G7Q.s:720    .text.dac_concurrent_software_trigger_disable:0000000000000000 dac_concurrent_software_trigger_disable
     /tmp/cc7w2G7Q.s:723    .text.dac_concurrent_software_trigger_disable:0000000000000000 .L0 
     /tmp/cc7w2G7Q.s:724    .text.dac_concurrent_software_trigger_disable:0000000000000000 .L0 
     /tmp/cc7w2G7Q.s:726    .text.dac_concurrent_software_trigger_disable:0000000000000000 .L0 
     /tmp/cc7w2G7Q.s:727    .text.dac_concurrent_software_trigger_disable:0000000000000000 .L0 
     /tmp/cc7w2G7Q.s:728    .text.dac_concurrent_software_trigger_disable:0000000000000000 .L0 
     /tmp/cc7w2G7Q.s:729    .text.dac_concurrent_software_trigger_disable:0000000000000000 .L0 
     /tmp/cc7w2G7Q.s:734    .text.dac_concurrent_software_trigger_disable:000000000000000e .L0 
     /tmp/cc7w2G7Q.s:735    .text.dac_concurrent_software_trigger_disable:0000000000000010 .L0 
     /tmp/cc7w2G7Q.s:742    .text.dac_concurrent_output_buffer_enable:0000000000000000 dac_concurrent_output_buffer_enable
     /tmp/cc7w2G7Q.s:745    .text.dac_concurrent_output_buffer_enable:0000000000000000 .L0 
     /tmp/cc7w2G7Q.s:746    .text.dac_concurrent_output_buffer_enable:0000000000000000 .L0 
     /tmp/cc7w2G7Q.s:748    .text.dac_concurrent_output_buffer_enable:0000000000000000 .L0 
     /tmp/cc7w2G7Q.s:749    .text.dac_concurrent_output_buffer_enable:0000000000000000 .L0 
     /tmp/cc7w2G7Q.s:750    .text.dac_concurrent_output_buffer_enable:0000000000000000 .L0 
     /tmp/cc7w2G7Q.s:751    .text.dac_concurrent_output_buffer_enable:0000000000000000 .L0 
     /tmp/cc7w2G7Q.s:758    .text.dac_concurrent_output_buffer_enable:0000000000000012 .L0 
GAS LISTING /tmp/cc7w2G7Q.s 			page 31


     /tmp/cc7w2G7Q.s:759    .text.dac_concurrent_output_buffer_enable:0000000000000014 .L0 
     /tmp/cc7w2G7Q.s:766    .text.dac_concurrent_output_buffer_disable:0000000000000000 dac_concurrent_output_buffer_disable
     /tmp/cc7w2G7Q.s:769    .text.dac_concurrent_output_buffer_disable:0000000000000000 .L0 
     /tmp/cc7w2G7Q.s:770    .text.dac_concurrent_output_buffer_disable:0000000000000000 .L0 
     /tmp/cc7w2G7Q.s:772    .text.dac_concurrent_output_buffer_disable:0000000000000000 .L0 
     /tmp/cc7w2G7Q.s:773    .text.dac_concurrent_output_buffer_disable:0000000000000000 .L0 
     /tmp/cc7w2G7Q.s:774    .text.dac_concurrent_output_buffer_disable:0000000000000000 .L0 
     /tmp/cc7w2G7Q.s:775    .text.dac_concurrent_output_buffer_disable:0000000000000000 .L0 
     /tmp/cc7w2G7Q.s:782    .text.dac_concurrent_output_buffer_disable:0000000000000014 .L0 
     /tmp/cc7w2G7Q.s:783    .text.dac_concurrent_output_buffer_disable:0000000000000016 .L0 
     /tmp/cc7w2G7Q.s:790    .text.dac_concurrent_data_set:0000000000000000 dac_concurrent_data_set
     /tmp/cc7w2G7Q.s:793    .text.dac_concurrent_data_set:0000000000000000 .L0 
     /tmp/cc7w2G7Q.s:795    .text.dac_concurrent_data_set:0000000000000000 .L0 
     /tmp/cc7w2G7Q.s:796    .text.dac_concurrent_data_set:0000000000000000 .L0 
     /tmp/cc7w2G7Q.s:797    .text.dac_concurrent_data_set:0000000000000000 .L0 
     /tmp/cc7w2G7Q.s:803    .text.dac_concurrent_data_set:000000000000000e .L0 
     /tmp/cc7w2G7Q.s:804    .text.dac_concurrent_data_set:000000000000000e .L0 
     /tmp/cc7w2G7Q.s:807    .text.dac_concurrent_data_set:0000000000000010 .L0 
     /tmp/cc7w2G7Q.s:810    .text.dac_concurrent_data_set:0000000000000012 .L0 
     /tmp/cc7w2G7Q.s:811    .text.dac_concurrent_data_set:0000000000000012 .L0 
     /tmp/cc7w2G7Q.s:814    .text.dac_concurrent_data_set:000000000000001a .L0 
     /tmp/cc7w2G7Q.s:815    .text.dac_concurrent_data_set:000000000000001a .L0 
     /tmp/cc7w2G7Q.s:821    .text.dac_concurrent_data_set:000000000000001e .L0 
     /tmp/cc7w2G7Q.s:822    .text.dac_concurrent_data_set:000000000000001e .L0 
     /tmp/cc7w2G7Q.s:825    .text.dac_concurrent_data_set:0000000000000020 .L0 
     /tmp/cc7w2G7Q.s:828    .text.dac_concurrent_data_set:0000000000000022 .L0 
     /tmp/cc7w2G7Q.s:829    .text.dac_concurrent_data_set:0000000000000022 .L0 
     /tmp/cc7w2G7Q.s:832    .text.dac_concurrent_data_set:000000000000002a .L0 
     /tmp/cc7w2G7Q.s:836    .text.dac_concurrent_data_set:000000000000002c .L0 
     /tmp/cc7w2G7Q.s:837    .text.dac_concurrent_data_set:000000000000002c .L0 
     /tmp/cc7w2G7Q.s:840    .text.dac_concurrent_data_set:000000000000002e .L0 
     /tmp/cc7w2G7Q.s:843    .text.dac_concurrent_data_set:0000000000000030 .L0 
     /tmp/cc7w2G7Q.s:844    .text.dac_concurrent_data_set:0000000000000030 .L0 
     /tmp/cc7w2G7Q.s:847    .text.dac_concurrent_data_set:0000000000000038 .L0 
     /tmp/cc7w2G7Q.s:848    .text.dac_concurrent_data_set:000000000000003a .L0 
     /tmp/cc7w2G7Q.s:47     .text.dac_deinit:0000000000000020 .L0 
     /tmp/cc7w2G7Q.s:78     .text.dac_enable:000000000000001e .L0 
     /tmp/cc7w2G7Q.s:111    .text.dac_disable:0000000000000026 .L0 
     /tmp/cc7w2G7Q.s:143    .text.dac_dma_enable:0000000000000020 .L0 
     /tmp/cc7w2G7Q.s:177    .text.dac_dma_disable:0000000000000024 .L0 
     /tmp/cc7w2G7Q.s:210    .text.dac_output_buffer_enable:0000000000000026 .L0 
     /tmp/cc7w2G7Q.s:241    .text.dac_output_buffer_disable:0000000000000020 .L0 
     /tmp/cc7w2G7Q.s:281    .text.dac_output_value_get:000000000000001a .L0 
     /tmp/cc7w2G7Q.s:354    .text.dac_data_set:000000000000005c .L0 
     /tmp/cc7w2G7Q.s:385    .text.dac_trigger_enable:0000000000000020 .L0 
     /tmp/cc7w2G7Q.s:418    .text.dac_trigger_disable:0000000000000028 .L0 
     /tmp/cc7w2G7Q.s:466    .text.dac_trigger_source_config:0000000000000038 .L0 
     /tmp/cc7w2G7Q.s:496    .text.dac_software_trigger_enable:000000000000001e .L0 
     /tmp/cc7w2G7Q.s:526    .text.dac_software_trigger_disable:000000000000001a .L0 
     /tmp/cc7w2G7Q.s:574    .text.dac_wave_mode_config:0000000000000038 .L0 
     /tmp/cc7w2G7Q.s:624    .text.dac_wave_bit_width_config:000000000000003c .L0 
     /tmp/cc7w2G7Q.s:670    .text.dac_concurrent_enable:0000000000000014 .L0 
     /tmp/cc7w2G7Q.s:694    .text.dac_concurrent_disable:0000000000000014 .L0 
     /tmp/cc7w2G7Q.s:716    .text.dac_concurrent_software_trigger_enable:0000000000000012 .L0 
     /tmp/cc7w2G7Q.s:738    .text.dac_concurrent_software_trigger_disable:0000000000000010 .L0 
     /tmp/cc7w2G7Q.s:762    .text.dac_concurrent_output_buffer_enable:0000000000000014 .L0 
     /tmp/cc7w2G7Q.s:786    .text.dac_concurrent_output_buffer_disable:0000000000000016 .L0 
GAS LISTING /tmp/cc7w2G7Q.s 			page 32


     /tmp/cc7w2G7Q.s:851    .text.dac_concurrent_data_set:000000000000003a .L0 
                     .debug_frame:0000000000000000 .L0 
     /tmp/cc7w2G7Q.s:67     .text.dac_enable:0000000000000014 .L5
     /tmp/cc7w2G7Q.s:97     .text.dac_disable:0000000000000012 .L8
     /tmp/cc7w2G7Q.s:132    .text.dac_dma_enable:0000000000000014 .L11
     /tmp/cc7w2G7Q.s:165    .text.dac_dma_disable:0000000000000016 .L14
     /tmp/cc7w2G7Q.s:196    .text.dac_output_buffer_enable:0000000000000012 .L17
     /tmp/cc7w2G7Q.s:230    .text.dac_output_buffer_disable:0000000000000014 .L20
     /tmp/cc7w2G7Q.s:266    .text.dac_output_value_get:0000000000000010 .L23
     /tmp/cc7w2G7Q.s:306    .text.dac_data_set:000000000000001a .L26
     /tmp/cc7w2G7Q.s:323    .text.dac_data_set:0000000000000034 .L27
     /tmp/cc7w2G7Q.s:330    .text.dac_data_set:000000000000003e .L28
     /tmp/cc7w2G7Q.s:319    .text.dac_data_set:0000000000000030 .L34
     /tmp/cc7w2G7Q.s:344    .text.dac_data_set:0000000000000052 .L31
     /tmp/cc7w2G7Q.s:337    .text.dac_data_set:0000000000000048 .L32
     /tmp/cc7w2G7Q.s:321    .text.dac_data_set:0000000000000032 .L35
     /tmp/cc7w2G7Q.s:374    .text.dac_trigger_enable:0000000000000014 .L37
     /tmp/cc7w2G7Q.s:404    .text.dac_trigger_disable:0000000000000012 .L40
     /tmp/cc7w2G7Q.s:445    .text.dac_trigger_source_config:000000000000001e .L43
     /tmp/cc7w2G7Q.s:486    .text.dac_software_trigger_enable:0000000000000014 .L46
     /tmp/cc7w2G7Q.s:516    .text.dac_software_trigger_disable:0000000000000012 .L49
     /tmp/cc7w2G7Q.s:553    .text.dac_wave_mode_config:000000000000001e .L52
     /tmp/cc7w2G7Q.s:603    .text.dac_wave_bit_width_config:0000000000000022 .L55
     /tmp/cc7w2G7Q.s:819    .text.dac_concurrent_data_set:000000000000001e .L66
     /tmp/cc7w2G7Q.s:834    .text.dac_concurrent_data_set:000000000000002c .L67
     /tmp/cc7w2G7Q.s:817    .text.dac_concurrent_data_set:000000000000001c .L70
     /tmp/cc7w2G7Q.s:1714   .debug_abbrev:0000000000000000 .Ldebug_abbrev0
     /tmp/cc7w2G7Q.s:2537   .debug_str:0000000000000217 .LASF82
     /tmp/cc7w2G7Q.s:2639   .debug_str:00000000000005fa .LASF83
     /tmp/cc7w2G7Q.s:2611   .debug_str:00000000000004ca .LASF84
     /tmp/cc7w2G7Q.s:2415   .debug_ranges:0000000000000000 .Ldebug_ranges0
     /tmp/cc7w2G7Q.s:2465   .debug_line:0000000000000000 .Ldebug_line0
     /tmp/cc7w2G7Q.s:2553   .debug_str:00000000000002fe .LASF0
     /tmp/cc7w2G7Q.s:2541   .debug_str:00000000000002ae .LASF1
     /tmp/cc7w2G7Q.s:2525   .debug_str:00000000000001c3 .LASF2
     /tmp/cc7w2G7Q.s:2481   .debug_str:000000000000005a .LASF3
     /tmp/cc7w2G7Q.s:2497   .debug_str:00000000000000ed .LASF6
     /tmp/cc7w2G7Q.s:2561   .debug_str:000000000000032d .LASF4
     /tmp/cc7w2G7Q.s:2513   .debug_str:0000000000000173 .LASF5
     /tmp/cc7w2G7Q.s:2477   .debug_str:0000000000000041 .LASF7
     /tmp/cc7w2G7Q.s:2585   .debug_str:0000000000000405 .LASF8
     /tmp/cc7w2G7Q.s:2511   .debug_str:0000000000000165 .LASF9
     /tmp/cc7w2G7Q.s:2545   .debug_str:00000000000002c5 .LASF10
     /tmp/cc7w2G7Q.s:2555   .debug_str:000000000000030b .LASF11
     /tmp/cc7w2G7Q.s:2549   .debug_str:00000000000002e9 .LASF12
     /tmp/cc7w2G7Q.s:2577   .debug_str:00000000000003cc .LASF85
     /tmp/cc7w2G7Q.s:2469   .debug_str:000000000000000e .LASF13
     /tmp/cc7w2G7Q.s:2571   .debug_str:000000000000039a .LASF14
     /tmp/cc7w2G7Q.s:2615   .debug_str:0000000000000523 .LASF15
     /tmp/cc7w2G7Q.s:2495   .debug_str:00000000000000df .LASF16
     /tmp/cc7w2G7Q.s:2521   .debug_str:000000000000019c .LASF17
     /tmp/cc7w2G7Q.s:2575   .debug_str:00000000000003be .LASF18
     /tmp/cc7w2G7Q.s:2625   .debug_str:0000000000000561 .LASF19
     /tmp/cc7w2G7Q.s:2567   .debug_str:0000000000000376 .LASF20
     /tmp/cc7w2G7Q.s:2489   .debug_str:00000000000000af .LASF21
     /tmp/cc7w2G7Q.s:2515   .debug_str:000000000000017c .LASF22
     /tmp/cc7w2G7Q.s:2581   .debug_str:00000000000003e1 .LASF23
GAS LISTING /tmp/cc7w2G7Q.s 			page 33


     /tmp/cc7w2G7Q.s:2637   .debug_str:00000000000005ec .LASF24
     /tmp/cc7w2G7Q.s:2593   .debug_str:0000000000000453 .LASF25
     /tmp/cc7w2G7Q.s:2471   .debug_str:000000000000001b .LASF26
     /tmp/cc7w2G7Q.s:2599   .debug_str:0000000000000477 .LASF27
     /tmp/cc7w2G7Q.s:2595   .debug_str:0000000000000460 .LASF28
     /tmp/cc7w2G7Q.s:2475   .debug_str:0000000000000035 .LASF29
     /tmp/cc7w2G7Q.s:2509   .debug_str:0000000000000159 .LASF30
     /tmp/cc7w2G7Q.s:2485   .debug_str:000000000000007e .LASF31
     /tmp/cc7w2G7Q.s:2597   .debug_str:000000000000046c .LASF32
     /tmp/cc7w2G7Q.s:2543   .debug_str:00000000000002ba .LASF33
     /tmp/cc7w2G7Q.s:2533   .debug_str:00000000000001fe .LASF34
     /tmp/cc7w2G7Q.s:2547   .debug_str:00000000000002dc .LASF35
     /tmp/cc7w2G7Q.s:2589   .debug_str:0000000000000431 .LASF36
     /tmp/cc7w2G7Q.s:2473   .debug_str:0000000000000028 .LASF37
     /tmp/cc7w2G7Q.s:2507   .debug_str:000000000000014c .LASF38
     /tmp/cc7w2G7Q.s:2557   .debug_str:0000000000000314 .LASF39
     /tmp/cc7w2G7Q.s:2559   .debug_str:0000000000000321 .LASF40
     /tmp/cc7w2G7Q.s:2603   .debug_str:000000000000049d .LASF41
     /tmp/cc7w2G7Q.s:2467   .debug_str:0000000000000000 .LASF42
     /tmp/cc7w2G7Q.s:2609   .debug_str:00000000000004be .LASF43
     /tmp/cc7w2G7Q.s:2527   .debug_str:00000000000001d1 .LASF44
     /tmp/cc7w2G7Q.s:2529   .debug_str:00000000000001df .LASF45
     /tmp/cc7w2G7Q.s:2501   .debug_str:000000000000011f .LASF49
     /tmp/cc7w2G7Q.s:791    .text.dac_concurrent_data_set:0000000000000000 .LFB26
     /tmp/cc7w2G7Q.s:849    .text.dac_concurrent_data_set:000000000000003a .LFE26
     /tmp/cc7w2G7Q.s:2517   .debug_str:0000000000000188 .LASF46
     /tmp/cc7w2G7Q.s:2617   .debug_str:0000000000000531 .LASF47
     /tmp/cc7w2G7Q.s:2619   .debug_str:0000000000000537 .LASF48
     /tmp/cc7w2G7Q.s:2153   .debug_loc:0000000000000000 .LLST6
     /tmp/cc7w2G7Q.s:2579   .debug_str:00000000000003dc .LASF51
     /tmp/cc7w2G7Q.s:2189   .debug_loc:0000000000000053 .LLST7
     /tmp/cc7w2G7Q.s:2487   .debug_str:000000000000008a .LASF50
     /tmp/cc7w2G7Q.s:767    .text.dac_concurrent_output_buffer_disable:0000000000000000 .LFB25
     /tmp/cc7w2G7Q.s:784    .text.dac_concurrent_output_buffer_disable:0000000000000016 .LFE25
     /tmp/cc7w2G7Q.s:2627   .debug_str:000000000000056f .LASF52
     /tmp/cc7w2G7Q.s:743    .text.dac_concurrent_output_buffer_enable:0000000000000000 .LFB24
     /tmp/cc7w2G7Q.s:760    .text.dac_concurrent_output_buffer_enable:0000000000000014 .LFE24
     /tmp/cc7w2G7Q.s:2631   .debug_str:00000000000005a3 .LASF53
     /tmp/cc7w2G7Q.s:721    .text.dac_concurrent_software_trigger_disable:0000000000000000 .LFB23
     /tmp/cc7w2G7Q.s:736    .text.dac_concurrent_software_trigger_disable:0000000000000010 .LFE23
     /tmp/cc7w2G7Q.s:2499   .debug_str:00000000000000f8 .LASF54
     /tmp/cc7w2G7Q.s:699    .text.dac_concurrent_software_trigger_enable:0000000000000000 .LFB22
     /tmp/cc7w2G7Q.s:714    .text.dac_concurrent_software_trigger_enable:0000000000000012 .LFE22
     /tmp/cc7w2G7Q.s:2569   .debug_str:0000000000000383 .LASF55
     /tmp/cc7w2G7Q.s:675    .text.dac_concurrent_disable:0000000000000000 .LFB21
     /tmp/cc7w2G7Q.s:692    .text.dac_concurrent_disable:0000000000000014 .LFE21
     /tmp/cc7w2G7Q.s:2573   .debug_str:00000000000003a8 .LASF56
     /tmp/cc7w2G7Q.s:651    .text.dac_concurrent_enable:0000000000000000 .LFB20
     /tmp/cc7w2G7Q.s:668    .text.dac_concurrent_enable:0000000000000014 .LFE20
     /tmp/cc7w2G7Q.s:2601   .debug_str:0000000000000483 .LASF59
     /tmp/cc7w2G7Q.s:2505   .debug_str:0000000000000141 .LASF57
     /tmp/cc7w2G7Q.s:2519   .debug_str:0000000000000192 .LASF58
     /tmp/cc7w2G7Q.s:2583   .debug_str:00000000000003ef .LASF60
     /tmp/cc7w2G7Q.s:2621   .debug_str:000000000000053d .LASF61
     /tmp/cc7w2G7Q.s:2565   .debug_str:000000000000035c .LASF62
     /tmp/cc7w2G7Q.s:579    .text.dac_wave_bit_width_config:0000000000000000 .LFB17
     /tmp/cc7w2G7Q.s:622    .text.dac_wave_bit_width_config:000000000000003c .LFE17
GAS LISTING /tmp/cc7w2G7Q.s 			page 34


     /tmp/cc7w2G7Q.s:2503   .debug_str:0000000000000137 .LASF63
     /tmp/cc7w2G7Q.s:2219   .debug_loc:00000000000000a0 .LLST5
     /tmp/cc7w2G7Q.s:2591   .debug_str:000000000000043e .LASF64
     /tmp/cc7w2G7Q.s:531    .text.dac_wave_mode_config:0000000000000000 .LFB16
     /tmp/cc7w2G7Q.s:572    .text.dac_wave_mode_config:0000000000000038 .LFE16
     /tmp/cc7w2G7Q.s:2607   .debug_str:00000000000004b4 .LASF65
     /tmp/cc7w2G7Q.s:2244   .debug_loc:00000000000000da .LLST4
     /tmp/cc7w2G7Q.s:2539   .debug_str:0000000000000291 .LASF66
     /tmp/cc7w2G7Q.s:501    .text.dac_software_trigger_disable:0000000000000000 .LFB15
     /tmp/cc7w2G7Q.s:524    .text.dac_software_trigger_disable:000000000000001a .LFE15
     /tmp/cc7w2G7Q.s:2563   .debug_str:0000000000000340 .LASF67
     /tmp/cc7w2G7Q.s:471    .text.dac_software_trigger_enable:0000000000000000 .LFB14
     /tmp/cc7w2G7Q.s:494    .text.dac_software_trigger_enable:000000000000001e .LFE14
     /tmp/cc7w2G7Q.s:2587   .debug_str:0000000000000417 .LASF68
     /tmp/cc7w2G7Q.s:423    .text.dac_trigger_source_config:0000000000000000 .LFB13
     /tmp/cc7w2G7Q.s:464    .text.dac_trigger_source_config:0000000000000038 .LFE13
     /tmp/cc7w2G7Q.s:2479   .debug_str:000000000000004c .LASF69
     /tmp/cc7w2G7Q.s:2269   .debug_loc:0000000000000114 .LLST3
     /tmp/cc7w2G7Q.s:2635   .debug_str:00000000000005d8 .LASF70
     /tmp/cc7w2G7Q.s:390    .text.dac_trigger_disable:0000000000000000 .LFB12
     /tmp/cc7w2G7Q.s:416    .text.dac_trigger_disable:0000000000000028 .LFE12
     /tmp/cc7w2G7Q.s:2531   .debug_str:00000000000001eb .LASF71
     /tmp/cc7w2G7Q.s:359    .text.dac_trigger_enable:0000000000000000 .LFB11
     /tmp/cc7w2G7Q.s:383    .text.dac_trigger_enable:0000000000000020 .LFE11
     /tmp/cc7w2G7Q.s:2633   .debug_str:00000000000005cb .LASF72
     /tmp/cc7w2G7Q.s:286    .text.dac_data_set:0000000000000000 .LFB10
     /tmp/cc7w2G7Q.s:352    .text.dac_data_set:000000000000005c .LFE10
     /tmp/cc7w2G7Q.s:2613   .debug_str:000000000000050e .LASF86
     /tmp/cc7w2G7Q.s:246    .text.dac_output_value_get:0000000000000000 .LFB9
     /tmp/cc7w2G7Q.s:279    .text.dac_output_value_get:000000000000001a .LFE9
     /tmp/cc7w2G7Q.s:2294   .debug_loc:000000000000014e .LLST1
     /tmp/cc7w2G7Q.s:2319   .debug_loc:0000000000000188 .LLST2
     /tmp/cc7w2G7Q.s:2483   .debug_str:0000000000000064 .LASF73
     /tmp/cc7w2G7Q.s:215    .text.dac_output_buffer_disable:0000000000000000 .LFB8
     /tmp/cc7w2G7Q.s:239    .text.dac_output_buffer_disable:0000000000000020 .LFE8
     /tmp/cc7w2G7Q.s:2523   .debug_str:00000000000001aa .LASF74
     /tmp/cc7w2G7Q.s:182    .text.dac_output_buffer_enable:0000000000000000 .LFB7
     /tmp/cc7w2G7Q.s:208    .text.dac_output_buffer_enable:0000000000000026 .LFE7
     /tmp/cc7w2G7Q.s:2629   .debug_str:0000000000000593 .LASF75
     /tmp/cc7w2G7Q.s:148    .text.dac_dma_disable:0000000000000000 .LFB6
     /tmp/cc7w2G7Q.s:175    .text.dac_dma_disable:0000000000000024 .LFE6
     /tmp/cc7w2G7Q.s:2535   .debug_str:0000000000000208 .LASF76
     /tmp/cc7w2G7Q.s:116    .text.dac_dma_enable:0000000000000000 .LFB5
     /tmp/cc7w2G7Q.s:141    .text.dac_dma_enable:0000000000000020 .LFE5
     /tmp/cc7w2G7Q.s:2551   .debug_str:00000000000002f2 .LASF77
     /tmp/cc7w2G7Q.s:83     .text.dac_disable:0000000000000000 .LFB4
     /tmp/cc7w2G7Q.s:109    .text.dac_disable:0000000000000026 .LFE4
     /tmp/cc7w2G7Q.s:2605   .debug_str:00000000000004a9 .LASF78
     /tmp/cc7w2G7Q.s:52     .text.dac_enable:0000000000000000 .LFB3
     /tmp/cc7w2G7Q.s:76     .text.dac_enable:000000000000001e .LFE3
     /tmp/cc7w2G7Q.s:2493   .debug_str:00000000000000d4 .LASF79
     /tmp/cc7w2G7Q.s:14     .text.dac_deinit:0000000000000000 .LFB2
     /tmp/cc7w2G7Q.s:45     .text.dac_deinit:0000000000000020 .LFE2
     /tmp/cc7w2G7Q.s:2340   .debug_loc:00000000000001be .LLST0
     /tmp/cc7w2G7Q.s:30     .text.dac_deinit:0000000000000010 .LVL0
     /tmp/cc7w2G7Q.s:43     .text.dac_deinit:0000000000000020 .LVL1
     /tmp/cc7w2G7Q.s:2623   .debug_str:0000000000000549 .LASF80
GAS LISTING /tmp/cc7w2G7Q.s 			page 35


     /tmp/cc7w2G7Q.s:2491   .debug_str:00000000000000bb .LASF81
     /tmp/cc7w2G7Q.s:794    .text.dac_concurrent_data_set:0000000000000000 .LVL37
     /tmp/cc7w2G7Q.s:805    .text.dac_concurrent_data_set:0000000000000010 .LVL38
     /tmp/cc7w2G7Q.s:816    .text.dac_concurrent_data_set:000000000000001c .LVL40
     /tmp/cc7w2G7Q.s:823    .text.dac_concurrent_data_set:0000000000000020 .LVL41
     /tmp/cc7w2G7Q.s:833    .text.dac_concurrent_data_set:000000000000002c .LVL43
     /tmp/cc7w2G7Q.s:838    .text.dac_concurrent_data_set:000000000000002e .LVL44
     /tmp/cc7w2G7Q.s:808    .text.dac_concurrent_data_set:0000000000000012 .LVL39
     /tmp/cc7w2G7Q.s:826    .text.dac_concurrent_data_set:0000000000000022 .LVL42
     /tmp/cc7w2G7Q.s:841    .text.dac_concurrent_data_set:0000000000000030 .LVL45
     /tmp/cc7w2G7Q.s:582    .text.dac_wave_bit_width_config:0000000000000000 .LVL27
     /tmp/cc7w2G7Q.s:599    .text.dac_wave_bit_width_config:000000000000001c .LVL28
     /tmp/cc7w2G7Q.s:602    .text.dac_wave_bit_width_config:0000000000000022 .LVL29
     /tmp/cc7w2G7Q.s:615    .text.dac_wave_bit_width_config:0000000000000034 .LVL30
     /tmp/cc7w2G7Q.s:534    .text.dac_wave_mode_config:0000000000000000 .LVL23
     /tmp/cc7w2G7Q.s:549    .text.dac_wave_mode_config:0000000000000018 .LVL24
     /tmp/cc7w2G7Q.s:552    .text.dac_wave_mode_config:000000000000001e .LVL25
     /tmp/cc7w2G7Q.s:565    .text.dac_wave_mode_config:0000000000000030 .LVL26
     /tmp/cc7w2G7Q.s:426    .text.dac_trigger_source_config:0000000000000000 .LVL17
     /tmp/cc7w2G7Q.s:441    .text.dac_trigger_source_config:0000000000000018 .LVL18
     /tmp/cc7w2G7Q.s:444    .text.dac_trigger_source_config:000000000000001e .LVL19
     /tmp/cc7w2G7Q.s:457    .text.dac_trigger_source_config:0000000000000030 .LVL20
     /tmp/cc7w2G7Q.s:249    .text.dac_output_value_get:0000000000000000 .LVL8
     /tmp/cc7w2G7Q.s:259    .text.dac_output_value_get:000000000000000a .LVL9
     /tmp/cc7w2G7Q.s:265    .text.dac_output_value_get:0000000000000010 .LVL11
     /tmp/cc7w2G7Q.s:270    .text.dac_output_value_get:0000000000000014 .LVL12
     /tmp/cc7w2G7Q.s:263    .text.dac_output_value_get:000000000000000e .LVL10
     /tmp/cc7w2G7Q.s:274    .text.dac_output_value_get:0000000000000018 .LVL13
     /tmp/cc7w2G7Q.s:21     .text.dac_deinit:0000000000000002 .LCFI0
     /tmp/cc7w2G7Q.s:39     .text.dac_deinit:0000000000000018 .LCFI1
     /tmp/cc7w2G7Q.s:858    .debug_info:0000000000000000 .Ldebug_info0

UNDEFINED SYMBOLS
rcu_periph_reset_enable
rcu_periph_reset_disable
