GAS LISTING /tmp/ccJ9OeMN.s 			page 1


   1              		.file	"gd32vf103_bkp.c"
   2              		.option nopic
   3              		.attribute arch, "rv32i2p0_m2p0_a2p0_c2p0"
   4              		.attribute unaligned_access, 0
   5              		.attribute stack_align, 16
   6              		.text
   7              	.Ltext0:
   8              		.cfi_sections	.debug_frame
   9              		.section	.text.bkp_deinit,"ax",@progbits
  10              		.align	1
  11              		.globl	bkp_deinit
  13              	bkp_deinit:
  14              	.LFB2:
  15              		.file 1 "../../firmware/GD32VF103_standard_peripheral/Source/gd32vf103_bkp.c"
   1:../../firmware/GD32VF103_standard_peripheral/Source/gd32vf103_bkp.c **** /*!
   2:../../firmware/GD32VF103_standard_peripheral/Source/gd32vf103_bkp.c ****     \file    gd32vf103_bkp.c
   3:../../firmware/GD32VF103_standard_peripheral/Source/gd32vf103_bkp.c ****     \brief   BKP driver
   4:../../firmware/GD32VF103_standard_peripheral/Source/gd32vf103_bkp.c **** 
   5:../../firmware/GD32VF103_standard_peripheral/Source/gd32vf103_bkp.c ****     \version 2019-06-05, V1.0.0, firmware for GD32VF103
   6:../../firmware/GD32VF103_standard_peripheral/Source/gd32vf103_bkp.c ****     \version 2020-08-04, V1.1.0, firmware for GD32VF103
   7:../../firmware/GD32VF103_standard_peripheral/Source/gd32vf103_bkp.c **** */
   8:../../firmware/GD32VF103_standard_peripheral/Source/gd32vf103_bkp.c **** 
   9:../../firmware/GD32VF103_standard_peripheral/Source/gd32vf103_bkp.c **** /*
  10:../../firmware/GD32VF103_standard_peripheral/Source/gd32vf103_bkp.c ****     Copyright (c) 2020, GigaDevice Semiconductor Inc.
  11:../../firmware/GD32VF103_standard_peripheral/Source/gd32vf103_bkp.c **** 
  12:../../firmware/GD32VF103_standard_peripheral/Source/gd32vf103_bkp.c ****     Redistribution and use in source and binary forms, with or without modification, 
  13:../../firmware/GD32VF103_standard_peripheral/Source/gd32vf103_bkp.c **** are permitted provided that the following conditions are met:
  14:../../firmware/GD32VF103_standard_peripheral/Source/gd32vf103_bkp.c **** 
  15:../../firmware/GD32VF103_standard_peripheral/Source/gd32vf103_bkp.c ****     1. Redistributions of source code must retain the above copyright notice, this 
  16:../../firmware/GD32VF103_standard_peripheral/Source/gd32vf103_bkp.c ****        list of conditions and the following disclaimer.
  17:../../firmware/GD32VF103_standard_peripheral/Source/gd32vf103_bkp.c ****     2. Redistributions in binary form must reproduce the above copyright notice, 
  18:../../firmware/GD32VF103_standard_peripheral/Source/gd32vf103_bkp.c ****        this list of conditions and the following disclaimer in the documentation 
  19:../../firmware/GD32VF103_standard_peripheral/Source/gd32vf103_bkp.c ****        and/or other materials provided with the distribution.
  20:../../firmware/GD32VF103_standard_peripheral/Source/gd32vf103_bkp.c ****     3. Neither the name of the copyright holder nor the names of its contributors 
  21:../../firmware/GD32VF103_standard_peripheral/Source/gd32vf103_bkp.c ****        may be used to endorse or promote products derived from this software without 
  22:../../firmware/GD32VF103_standard_peripheral/Source/gd32vf103_bkp.c ****        specific prior written permission.
  23:../../firmware/GD32VF103_standard_peripheral/Source/gd32vf103_bkp.c **** 
  24:../../firmware/GD32VF103_standard_peripheral/Source/gd32vf103_bkp.c ****     THIS SOFTWARE IS PROVIDED BY THE COPYRIGHT HOLDERS AND CONTRIBUTORS "AS IS" 
  25:../../firmware/GD32VF103_standard_peripheral/Source/gd32vf103_bkp.c **** AND ANY EXPRESS OR IMPLIED WARRANTIES, INCLUDING, BUT NOT LIMITED TO, THE IMPLIED 
  26:../../firmware/GD32VF103_standard_peripheral/Source/gd32vf103_bkp.c **** WARRANTIES OF MERCHANTABILITY AND FITNESS FOR A PARTICULAR PURPOSE ARE DISCLAIMED. 
  27:../../firmware/GD32VF103_standard_peripheral/Source/gd32vf103_bkp.c **** IN NO EVENT SHALL THE COPYRIGHT HOLDER OR CONTRIBUTORS BE LIABLE FOR ANY DIRECT, 
  28:../../firmware/GD32VF103_standard_peripheral/Source/gd32vf103_bkp.c **** INDIRECT, INCIDENTAL, SPECIAL, EXEMPLARY, OR CONSEQUENTIAL DAMAGES (INCLUDING, BUT 
  29:../../firmware/GD32VF103_standard_peripheral/Source/gd32vf103_bkp.c **** NOT LIMITED TO, PROCUREMENT OF SUBSTITUTE GOODS OR SERVICES; LOSS OF USE, DATA, OR 
  30:../../firmware/GD32VF103_standard_peripheral/Source/gd32vf103_bkp.c **** PROFITS; OR BUSINESS INTERRUPTION) HOWEVER CAUSED AND ON ANY THEORY OF LIABILITY, 
  31:../../firmware/GD32VF103_standard_peripheral/Source/gd32vf103_bkp.c **** WHETHER IN CONTRACT, STRICT LIABILITY, OR TORT (INCLUDING NEGLIGENCE OR OTHERWISE) 
  32:../../firmware/GD32VF103_standard_peripheral/Source/gd32vf103_bkp.c **** ARISING IN ANY WAY OUT OF THE USE OF THIS SOFTWARE, EVEN IF ADVISED OF THE POSSIBILITY 
  33:../../firmware/GD32VF103_standard_peripheral/Source/gd32vf103_bkp.c **** OF SUCH DAMAGE.
  34:../../firmware/GD32VF103_standard_peripheral/Source/gd32vf103_bkp.c **** */
  35:../../firmware/GD32VF103_standard_peripheral/Source/gd32vf103_bkp.c **** 
  36:../../firmware/GD32VF103_standard_peripheral/Source/gd32vf103_bkp.c **** #include "gd32vf103_bkp.h"
  37:../../firmware/GD32VF103_standard_peripheral/Source/gd32vf103_bkp.c **** 
  38:../../firmware/GD32VF103_standard_peripheral/Source/gd32vf103_bkp.c **** /* BKP register bits offset */
  39:../../firmware/GD32VF103_standard_peripheral/Source/gd32vf103_bkp.c **** #define BKP_TAMPER_BITS_OFFSET          ((uint32_t)8U)
  40:../../firmware/GD32VF103_standard_peripheral/Source/gd32vf103_bkp.c **** 
  41:../../firmware/GD32VF103_standard_peripheral/Source/gd32vf103_bkp.c **** /*!
  42:../../firmware/GD32VF103_standard_peripheral/Source/gd32vf103_bkp.c ****     \brief      reset BKP registers
  43:../../firmware/GD32VF103_standard_peripheral/Source/gd32vf103_bkp.c ****     \param[in]  none
GAS LISTING /tmp/ccJ9OeMN.s 			page 2


  44:../../firmware/GD32VF103_standard_peripheral/Source/gd32vf103_bkp.c ****     \param[out] none
  45:../../firmware/GD32VF103_standard_peripheral/Source/gd32vf103_bkp.c ****     \retval     none
  46:../../firmware/GD32VF103_standard_peripheral/Source/gd32vf103_bkp.c **** */
  47:../../firmware/GD32VF103_standard_peripheral/Source/gd32vf103_bkp.c **** void bkp_deinit(void)
  48:../../firmware/GD32VF103_standard_peripheral/Source/gd32vf103_bkp.c **** {
  16              		.loc 1 48 1
  17              		.cfi_startproc
  49:../../firmware/GD32VF103_standard_peripheral/Source/gd32vf103_bkp.c ****     /* reset BKP domain register*/
  50:../../firmware/GD32VF103_standard_peripheral/Source/gd32vf103_bkp.c ****     rcu_bkp_reset_enable();
  18              		.loc 1 50 5
  48:../../firmware/GD32VF103_standard_peripheral/Source/gd32vf103_bkp.c ****     /* reset BKP domain register*/
  19              		.loc 1 48 1 is_stmt 0
  20 0000 4111     		addi	sp,sp,-16
  21              	.LCFI0:
  22              		.cfi_def_cfa_offset 16
  23 0002 06C6     		sw	ra,12(sp)
  24              		.cfi_offset 1, -4
  25              		.loc 1 50 5
  26 0004 97000000 		call	rcu_bkp_reset_enable
  26      E7800000 
  27              	.LVL0:
  51:../../firmware/GD32VF103_standard_peripheral/Source/gd32vf103_bkp.c ****     rcu_bkp_reset_disable();
  28              		.loc 1 51 5 is_stmt 1
  52:../../firmware/GD32VF103_standard_peripheral/Source/gd32vf103_bkp.c **** }
  29              		.loc 1 52 1 is_stmt 0
  30 000c B240     		lw	ra,12(sp)
  31              		.cfi_restore 1
  32 000e 4101     		addi	sp,sp,16
  33              	.LCFI1:
  34              		.cfi_def_cfa_offset 0
  51:../../firmware/GD32VF103_standard_peripheral/Source/gd32vf103_bkp.c ****     rcu_bkp_reset_disable();
  35              		.loc 1 51 5
  36 0010 17030000 		tail	rcu_bkp_reset_disable
  36      67000300 
  37              	.LVL1:
  38              		.cfi_endproc
  39              	.LFE2:
  41              		.section	.text.bkp_data_write,"ax",@progbits
  42              		.align	1
  43              		.globl	bkp_data_write
  45              	bkp_data_write:
  46              	.LFB3:
  53:../../firmware/GD32VF103_standard_peripheral/Source/gd32vf103_bkp.c **** 
  54:../../firmware/GD32VF103_standard_peripheral/Source/gd32vf103_bkp.c **** /*!
  55:../../firmware/GD32VF103_standard_peripheral/Source/gd32vf103_bkp.c ****     \brief      write BKP data register
  56:../../firmware/GD32VF103_standard_peripheral/Source/gd32vf103_bkp.c ****     \param[in]  register_number: refer to bkp_data_register_enum
  57:../../firmware/GD32VF103_standard_peripheral/Source/gd32vf103_bkp.c ****                 only one parameter can be selected which is shown as below:
  58:../../firmware/GD32VF103_standard_peripheral/Source/gd32vf103_bkp.c ****       \arg        BKP_DATA_x(x = 0..41): bkp data register number x
  59:../../firmware/GD32VF103_standard_peripheral/Source/gd32vf103_bkp.c ****     \param[in]  data: the data to be write in BKP data register
  60:../../firmware/GD32VF103_standard_peripheral/Source/gd32vf103_bkp.c ****     \param[out] none
  61:../../firmware/GD32VF103_standard_peripheral/Source/gd32vf103_bkp.c ****     \retval     none
  62:../../firmware/GD32VF103_standard_peripheral/Source/gd32vf103_bkp.c **** */
  63:../../firmware/GD32VF103_standard_peripheral/Source/gd32vf103_bkp.c **** void bkp_data_write(bkp_data_register_enum register_number, uint16_t data)
  64:../../firmware/GD32VF103_standard_peripheral/Source/gd32vf103_bkp.c **** {
  47              		.loc 1 64 1 is_stmt 1
  48              		.cfi_startproc
  49              	.LVL2:
GAS LISTING /tmp/ccJ9OeMN.s 			page 3


  65:../../firmware/GD32VF103_standard_peripheral/Source/gd32vf103_bkp.c ****     if((register_number >= BKP_DATA_10) && (register_number <= BKP_DATA_41)){
  50              		.loc 1 65 5
  51              		.loc 1 65 41 is_stmt 0
  52 0000 130755FF 		addi	a4,a0,-11
  53              		.loc 1 65 7
  54 0004 FD47     		li	a5,31
  55 0006 63EBE700 		bgtu	a4,a5,.L5
  66:../../firmware/GD32VF103_standard_peripheral/Source/gd32vf103_bkp.c ****         BKP_DATA10_41((uint32_t)register_number - 1U) = data;
  56              		.loc 1 66 9 is_stmt 1
  57 000a B7270010 		li	a5,268443648
  58 000e 938757B0 		addi	a5,a5,-1275
  59 0012 3E95     		add	a0,a0,a5
  60              	.LVL3:
  61 0014 0A05     		slli	a0,a0,2
  62              	.LVL4:
  63              		.loc 1 66 55 is_stmt 0
  64 0016 2310B500 		sh	a1,0(a0)
  65 001a 8280     		ret
  66              	.LVL5:
  67              	.L5:
  67:../../firmware/GD32VF103_standard_peripheral/Source/gd32vf103_bkp.c ****     }else if((register_number >= BKP_DATA_0) && (register_number <= BKP_DATA_9)){
  68              		.loc 1 67 11 is_stmt 1
  69              		.loc 1 67 46 is_stmt 0
  70 001c 9307F5FF 		addi	a5,a0,-1
  71              		.loc 1 67 13
  72 0020 2547     		li	a4,9
  73 0022 636AF700 		bgtu	a5,a4,.L4
  68:../../firmware/GD32VF103_standard_peripheral/Source/gd32vf103_bkp.c ****         BKP_DATA0_9((uint32_t)register_number - 1U) = data;
  74              		.loc 1 68 9 is_stmt 1
  75 0026 B7270010 		li	a5,268443648
  76 002a 938707B0 		addi	a5,a5,-1280
  77 002e 3E95     		add	a0,a0,a5
  78              	.LVL6:
  79 0030 0A05     		slli	a0,a0,2
  80              	.LVL7:
  81              		.loc 1 68 53 is_stmt 0
  82 0032 2310B500 		sh	a1,0(a0)
  69:../../firmware/GD32VF103_standard_peripheral/Source/gd32vf103_bkp.c ****     }else{
  70:../../firmware/GD32VF103_standard_peripheral/Source/gd32vf103_bkp.c ****         /* illegal parameters */
  71:../../firmware/GD32VF103_standard_peripheral/Source/gd32vf103_bkp.c ****     }
  83              		.loc 1 71 5 is_stmt 1
  84              	.L4:
  72:../../firmware/GD32VF103_standard_peripheral/Source/gd32vf103_bkp.c **** }
  85              		.loc 1 72 1 is_stmt 0
  86 0036 8280     		ret
  87              		.cfi_endproc
  88              	.LFE3:
  90              		.section	.text.bkp_data_read,"ax",@progbits
  91              		.align	1
  92              		.globl	bkp_data_read
  94              	bkp_data_read:
  95              	.LFB4:
  73:../../firmware/GD32VF103_standard_peripheral/Source/gd32vf103_bkp.c **** 
  74:../../firmware/GD32VF103_standard_peripheral/Source/gd32vf103_bkp.c **** /*!
  75:../../firmware/GD32VF103_standard_peripheral/Source/gd32vf103_bkp.c ****     \brief      read BKP data register
  76:../../firmware/GD32VF103_standard_peripheral/Source/gd32vf103_bkp.c ****     \param[in]  register_number: refer to bkp_data_register_enum
  77:../../firmware/GD32VF103_standard_peripheral/Source/gd32vf103_bkp.c ****                 only one parameter can be selected which is shown as below:
GAS LISTING /tmp/ccJ9OeMN.s 			page 4


  78:../../firmware/GD32VF103_standard_peripheral/Source/gd32vf103_bkp.c ****       \arg        BKP_DATA_x(x = 0..41): bkp data register number x
  79:../../firmware/GD32VF103_standard_peripheral/Source/gd32vf103_bkp.c ****     \param[out] none
  80:../../firmware/GD32VF103_standard_peripheral/Source/gd32vf103_bkp.c ****     \retval     data of BKP data register
  81:../../firmware/GD32VF103_standard_peripheral/Source/gd32vf103_bkp.c **** */
  82:../../firmware/GD32VF103_standard_peripheral/Source/gd32vf103_bkp.c **** uint16_t bkp_data_read(bkp_data_register_enum register_number)
  83:../../firmware/GD32VF103_standard_peripheral/Source/gd32vf103_bkp.c **** {
  96              		.loc 1 83 1 is_stmt 1
  97              		.cfi_startproc
  98              	.LVL8:
  84:../../firmware/GD32VF103_standard_peripheral/Source/gd32vf103_bkp.c ****     uint16_t data = 0U;
  99              		.loc 1 84 5
  85:../../firmware/GD32VF103_standard_peripheral/Source/gd32vf103_bkp.c ****     
  86:../../firmware/GD32VF103_standard_peripheral/Source/gd32vf103_bkp.c ****     /* get the data from the BKP data register */
  87:../../firmware/GD32VF103_standard_peripheral/Source/gd32vf103_bkp.c ****     if((register_number >= BKP_DATA_10) && (register_number <= BKP_DATA_41)){
 100              		.loc 1 87 5
 101              		.loc 1 87 41 is_stmt 0
 102 0000 930655FF 		addi	a3,a0,-11
 103              		.loc 1 87 7
 104 0004 7D47     		li	a4,31
  83:../../firmware/GD32VF103_standard_peripheral/Source/gd32vf103_bkp.c ****     uint16_t data = 0U;
 105              		.loc 1 83 1
 106 0006 AA87     		mv	a5,a0
 107              		.loc 1 87 7
 108 0008 636DD700 		bgtu	a3,a4,.L8
  88:../../firmware/GD32VF103_standard_peripheral/Source/gd32vf103_bkp.c ****         data = BKP_DATA10_41((uint32_t)register_number - 1U);
 109              		.loc 1 88 9 is_stmt 1
 110              		.loc 1 88 16 is_stmt 0
 111 000c 37250010 		li	a0,268443648
 112              	.LVL9:
 113 0010 130555B0 		addi	a0,a0,-1275
  89:../../firmware/GD32VF103_standard_peripheral/Source/gd32vf103_bkp.c ****     }else if((register_number >= BKP_DATA_0) && (register_number <= BKP_DATA_9)){
  90:../../firmware/GD32VF103_standard_peripheral/Source/gd32vf103_bkp.c ****         data = BKP_DATA0_9((uint32_t)register_number - 1U);
 114              		.loc 1 90 16
 115 0014 AA97     		add	a5,a5,a0
 116              	.LVL10:
 117 0016 8A07     		slli	a5,a5,2
 118              	.LVL11:
 119              		.loc 1 90 14
 120 0018 03D50700 		lhu	a0,0(a5)
 121 001c 4205     		slli	a0,a0,16
 122 001e 4181     		srli	a0,a0,16
 123              	.LVL12:
 124              	.L9:
  91:../../firmware/GD32VF103_standard_peripheral/Source/gd32vf103_bkp.c ****     }else{
  92:../../firmware/GD32VF103_standard_peripheral/Source/gd32vf103_bkp.c ****         /* illegal parameters */
  93:../../firmware/GD32VF103_standard_peripheral/Source/gd32vf103_bkp.c ****     }
 125              		.loc 1 93 5 is_stmt 1
  94:../../firmware/GD32VF103_standard_peripheral/Source/gd32vf103_bkp.c ****     return data;
 126              		.loc 1 94 5
  95:../../firmware/GD32VF103_standard_peripheral/Source/gd32vf103_bkp.c **** }
 127              		.loc 1 95 1 is_stmt 0
 128 0020 8280     		ret
 129              	.LVL13:
 130              	.L8:
  89:../../firmware/GD32VF103_standard_peripheral/Source/gd32vf103_bkp.c ****         data = BKP_DATA0_9((uint32_t)register_number - 1U);
 131              		.loc 1 89 11 is_stmt 1
  89:../../firmware/GD32VF103_standard_peripheral/Source/gd32vf103_bkp.c ****         data = BKP_DATA0_9((uint32_t)register_number - 1U);
GAS LISTING /tmp/ccJ9OeMN.s 			page 5


 132              		.loc 1 89 46 is_stmt 0
 133 0022 1307F5FF 		addi	a4,a0,-1
  89:../../firmware/GD32VF103_standard_peripheral/Source/gd32vf103_bkp.c ****         data = BKP_DATA0_9((uint32_t)register_number - 1U);
 134              		.loc 1 89 13
 135 0026 A546     		li	a3,9
  84:../../firmware/GD32VF103_standard_peripheral/Source/gd32vf103_bkp.c ****     
 136              		.loc 1 84 14
 137 0028 0145     		li	a0,0
 138              	.LVL14:
  89:../../firmware/GD32VF103_standard_peripheral/Source/gd32vf103_bkp.c ****         data = BKP_DATA0_9((uint32_t)register_number - 1U);
 139              		.loc 1 89 13
 140 002a E3EBE6FE 		bgtu	a4,a3,.L9
  90:../../firmware/GD32VF103_standard_peripheral/Source/gd32vf103_bkp.c ****     }else{
 141              		.loc 1 90 9 is_stmt 1
  90:../../firmware/GD32VF103_standard_peripheral/Source/gd32vf103_bkp.c ****     }else{
 142              		.loc 1 90 16 is_stmt 0
 143 002e 37250010 		li	a0,268443648
 144 0032 130505B0 		addi	a0,a0,-1280
 145 0036 AA97     		add	a5,a5,a0
 146              	.LVL15:
 147 0038 8A07     		slli	a5,a5,2
  90:../../firmware/GD32VF103_standard_peripheral/Source/gd32vf103_bkp.c ****     }else{
 148              		.loc 1 90 14
 149 003a 03D50700 		lhu	a0,0(a5)
 150 003e 4205     		slli	a0,a0,16
 151 0040 4181     		srli	a0,a0,16
 152              	.LVL16:
 153 0042 F9BF     		j	.L9
 154              		.cfi_endproc
 155              	.LFE4:
 157              		.section	.text.bkp_rtc_calibration_output_enable,"ax",@progbits
 158              		.align	1
 159              		.globl	bkp_rtc_calibration_output_enable
 161              	bkp_rtc_calibration_output_enable:
 162              	.LFB5:
  96:../../firmware/GD32VF103_standard_peripheral/Source/gd32vf103_bkp.c **** 
  97:../../firmware/GD32VF103_standard_peripheral/Source/gd32vf103_bkp.c **** /*!
  98:../../firmware/GD32VF103_standard_peripheral/Source/gd32vf103_bkp.c ****     \brief      enable RTC clock calibration output
  99:../../firmware/GD32VF103_standard_peripheral/Source/gd32vf103_bkp.c ****     \param[in]  none
 100:../../firmware/GD32VF103_standard_peripheral/Source/gd32vf103_bkp.c ****     \param[out] none
 101:../../firmware/GD32VF103_standard_peripheral/Source/gd32vf103_bkp.c ****     \retval     none
 102:../../firmware/GD32VF103_standard_peripheral/Source/gd32vf103_bkp.c **** */
 103:../../firmware/GD32VF103_standard_peripheral/Source/gd32vf103_bkp.c **** void bkp_rtc_calibration_output_enable(void)
 104:../../firmware/GD32VF103_standard_peripheral/Source/gd32vf103_bkp.c **** {
 163              		.loc 1 104 1 is_stmt 1
 164              		.cfi_startproc
 105:../../firmware/GD32VF103_standard_peripheral/Source/gd32vf103_bkp.c ****     BKP_OCTL |= (uint16_t)BKP_OCTL_COEN;
 165              		.loc 1 105 5
 166              		.loc 1 105 14 is_stmt 0
 167 0000 37770040 		li	a4,1073770496
 168 0004 8357C7C2 		lhu	a5,-980(a4)
 169 0008 93E70708 		ori	a5,a5,128
 170 000c 2316F7C2 		sh	a5,-980(a4)
 106:../../firmware/GD32VF103_standard_peripheral/Source/gd32vf103_bkp.c **** }
 171              		.loc 1 106 1
 172 0010 8280     		ret
 173              		.cfi_endproc
GAS LISTING /tmp/ccJ9OeMN.s 			page 6


 174              	.LFE5:
 176              		.section	.text.bkp_rtc_calibration_output_disable,"ax",@progbits
 177              		.align	1
 178              		.globl	bkp_rtc_calibration_output_disable
 180              	bkp_rtc_calibration_output_disable:
 181              	.LFB6:
 107:../../firmware/GD32VF103_standard_peripheral/Source/gd32vf103_bkp.c **** 
 108:../../firmware/GD32VF103_standard_peripheral/Source/gd32vf103_bkp.c **** /*!
 109:../../firmware/GD32VF103_standard_peripheral/Source/gd32vf103_bkp.c ****     \brief      disable RTC clock calibration output
 110:../../firmware/GD32VF103_standard_peripheral/Source/gd32vf103_bkp.c ****     \param[in]  none
 111:../../firmware/GD32VF103_standard_peripheral/Source/gd32vf103_bkp.c ****     \param[out] none
 112:../../firmware/GD32VF103_standard_peripheral/Source/gd32vf103_bkp.c ****     \retval     none
 113:../../firmware/GD32VF103_standard_peripheral/Source/gd32vf103_bkp.c **** */
 114:../../firmware/GD32VF103_standard_peripheral/Source/gd32vf103_bkp.c **** void bkp_rtc_calibration_output_disable(void)
 115:../../firmware/GD32VF103_standard_peripheral/Source/gd32vf103_bkp.c **** {
 182              		.loc 1 115 1 is_stmt 1
 183              		.cfi_startproc
 116:../../firmware/GD32VF103_standard_peripheral/Source/gd32vf103_bkp.c ****     BKP_OCTL &= (uint16_t)~BKP_OCTL_COEN;
 184              		.loc 1 116 5
 185              		.loc 1 116 14 is_stmt 0
 186 0000 37770040 		li	a4,1073770496
 187 0004 8357C7C2 		lhu	a5,-980(a4)
 188 0008 C207     		slli	a5,a5,16
 189 000a C183     		srli	a5,a5,16
 190 000c 93F7F7F7 		andi	a5,a5,-129
 191 0010 C207     		slli	a5,a5,16
 192 0012 C183     		srli	a5,a5,16
 193 0014 2316F7C2 		sh	a5,-980(a4)
 117:../../firmware/GD32VF103_standard_peripheral/Source/gd32vf103_bkp.c **** }
 194              		.loc 1 117 1
 195 0018 8280     		ret
 196              		.cfi_endproc
 197              	.LFE6:
 199              		.section	.text.bkp_rtc_signal_output_enable,"ax",@progbits
 200              		.align	1
 201              		.globl	bkp_rtc_signal_output_enable
 203              	bkp_rtc_signal_output_enable:
 204              	.LFB7:
 118:../../firmware/GD32VF103_standard_peripheral/Source/gd32vf103_bkp.c **** 
 119:../../firmware/GD32VF103_standard_peripheral/Source/gd32vf103_bkp.c **** /*!
 120:../../firmware/GD32VF103_standard_peripheral/Source/gd32vf103_bkp.c ****     \brief      enable RTC alarm or second signal output
 121:../../firmware/GD32VF103_standard_peripheral/Source/gd32vf103_bkp.c ****     \param[in]  none
 122:../../firmware/GD32VF103_standard_peripheral/Source/gd32vf103_bkp.c ****     \param[out] none
 123:../../firmware/GD32VF103_standard_peripheral/Source/gd32vf103_bkp.c ****     \retval     none
 124:../../firmware/GD32VF103_standard_peripheral/Source/gd32vf103_bkp.c **** */
 125:../../firmware/GD32VF103_standard_peripheral/Source/gd32vf103_bkp.c **** void bkp_rtc_signal_output_enable(void)
 126:../../firmware/GD32VF103_standard_peripheral/Source/gd32vf103_bkp.c **** {
 205              		.loc 1 126 1 is_stmt 1
 206              		.cfi_startproc
 127:../../firmware/GD32VF103_standard_peripheral/Source/gd32vf103_bkp.c ****     BKP_OCTL |= (uint16_t)BKP_OCTL_ASOEN;
 207              		.loc 1 127 5
 208              		.loc 1 127 14 is_stmt 0
 209 0000 37770040 		li	a4,1073770496
 210 0004 8357C7C2 		lhu	a5,-980(a4)
 211 0008 93E70710 		ori	a5,a5,256
 212 000c 2316F7C2 		sh	a5,-980(a4)
 128:../../firmware/GD32VF103_standard_peripheral/Source/gd32vf103_bkp.c **** }
GAS LISTING /tmp/ccJ9OeMN.s 			page 7


 213              		.loc 1 128 1
 214 0010 8280     		ret
 215              		.cfi_endproc
 216              	.LFE7:
 218              		.section	.text.bkp_rtc_signal_output_disable,"ax",@progbits
 219              		.align	1
 220              		.globl	bkp_rtc_signal_output_disable
 222              	bkp_rtc_signal_output_disable:
 223              	.LFB8:
 129:../../firmware/GD32VF103_standard_peripheral/Source/gd32vf103_bkp.c **** 
 130:../../firmware/GD32VF103_standard_peripheral/Source/gd32vf103_bkp.c **** /*!
 131:../../firmware/GD32VF103_standard_peripheral/Source/gd32vf103_bkp.c ****     \brief      disable RTC alarm or second signal output
 132:../../firmware/GD32VF103_standard_peripheral/Source/gd32vf103_bkp.c ****     \param[in]  none
 133:../../firmware/GD32VF103_standard_peripheral/Source/gd32vf103_bkp.c ****     \param[out] none
 134:../../firmware/GD32VF103_standard_peripheral/Source/gd32vf103_bkp.c ****     \retval     none
 135:../../firmware/GD32VF103_standard_peripheral/Source/gd32vf103_bkp.c **** */
 136:../../firmware/GD32VF103_standard_peripheral/Source/gd32vf103_bkp.c **** void bkp_rtc_signal_output_disable(void)
 137:../../firmware/GD32VF103_standard_peripheral/Source/gd32vf103_bkp.c **** {
 224              		.loc 1 137 1 is_stmt 1
 225              		.cfi_startproc
 138:../../firmware/GD32VF103_standard_peripheral/Source/gd32vf103_bkp.c ****     BKP_OCTL &= (uint16_t)~BKP_OCTL_ASOEN;
 226              		.loc 1 138 5
 227              		.loc 1 138 14 is_stmt 0
 228 0000 37770040 		li	a4,1073770496
 229 0004 8357C7C2 		lhu	a5,-980(a4)
 230 0008 C207     		slli	a5,a5,16
 231 000a C183     		srli	a5,a5,16
 232 000c 93F7F7EF 		andi	a5,a5,-257
 233 0010 C207     		slli	a5,a5,16
 234 0012 C183     		srli	a5,a5,16
 235 0014 2316F7C2 		sh	a5,-980(a4)
 139:../../firmware/GD32VF103_standard_peripheral/Source/gd32vf103_bkp.c **** }
 236              		.loc 1 139 1
 237 0018 8280     		ret
 238              		.cfi_endproc
 239              	.LFE8:
 241              		.section	.text.bkp_rtc_output_select,"ax",@progbits
 242              		.align	1
 243              		.globl	bkp_rtc_output_select
 245              	bkp_rtc_output_select:
 246              	.LFB9:
 140:../../firmware/GD32VF103_standard_peripheral/Source/gd32vf103_bkp.c **** 
 141:../../firmware/GD32VF103_standard_peripheral/Source/gd32vf103_bkp.c **** /*!
 142:../../firmware/GD32VF103_standard_peripheral/Source/gd32vf103_bkp.c ****     \brief      select RTC output
 143:../../firmware/GD32VF103_standard_peripheral/Source/gd32vf103_bkp.c ****     \param[in]  outputsel: RTC output selection
 144:../../firmware/GD32VF103_standard_peripheral/Source/gd32vf103_bkp.c ****                 only one parameter can be selected which is shown as below:
 145:../../firmware/GD32VF103_standard_peripheral/Source/gd32vf103_bkp.c ****       \arg        RTC_OUTPUT_ALARM_PULSE: RTC alarm pulse is selected as the RTC output
 146:../../firmware/GD32VF103_standard_peripheral/Source/gd32vf103_bkp.c ****       \arg        RTC_OUTPUT_SECOND_PULSE: RTC second pulse is selected as the RTC output
 147:../../firmware/GD32VF103_standard_peripheral/Source/gd32vf103_bkp.c ****     \param[out] none
 148:../../firmware/GD32VF103_standard_peripheral/Source/gd32vf103_bkp.c ****     \retval     none
 149:../../firmware/GD32VF103_standard_peripheral/Source/gd32vf103_bkp.c **** */
 150:../../firmware/GD32VF103_standard_peripheral/Source/gd32vf103_bkp.c **** void bkp_rtc_output_select(uint16_t outputsel)
 151:../../firmware/GD32VF103_standard_peripheral/Source/gd32vf103_bkp.c **** {
 247              		.loc 1 151 1 is_stmt 1
 248              		.cfi_startproc
 249              	.LVL17:
 152:../../firmware/GD32VF103_standard_peripheral/Source/gd32vf103_bkp.c ****     uint16_t ctl = 0U;
GAS LISTING /tmp/ccJ9OeMN.s 			page 8


 250              		.loc 1 152 5
 153:../../firmware/GD32VF103_standard_peripheral/Source/gd32vf103_bkp.c ****     
 154:../../firmware/GD32VF103_standard_peripheral/Source/gd32vf103_bkp.c ****     /* configure BKP_OCTL_ROSEL with outputsel */
 155:../../firmware/GD32VF103_standard_peripheral/Source/gd32vf103_bkp.c ****     ctl = BKP_OCTL;
 251              		.loc 1 155 5
 252              		.loc 1 155 9 is_stmt 0
 253 0000 37770040 		li	a4,1073770496
 254 0004 8357C7C2 		lhu	a5,-980(a4)
 255 0008 C207     		slli	a5,a5,16
 256 000a C183     		srli	a5,a5,16
 257              	.LVL18:
 156:../../firmware/GD32VF103_standard_peripheral/Source/gd32vf103_bkp.c ****     ctl &= (uint16_t)~BKP_OCTL_ROSEL;
 258              		.loc 1 156 5 is_stmt 1
 259              		.loc 1 156 9 is_stmt 0
 260 000c 93F7F7DF 		andi	a5,a5,-513
 261              	.LVL19:
 157:../../firmware/GD32VF103_standard_peripheral/Source/gd32vf103_bkp.c ****     ctl |= outputsel;
 262              		.loc 1 157 5 is_stmt 1
 263              		.loc 1 157 9 is_stmt 0
 264 0010 5D8D     		or	a0,a5,a0
 265              	.LVL20:
 158:../../firmware/GD32VF103_standard_peripheral/Source/gd32vf103_bkp.c ****     BKP_OCTL = ctl;
 266              		.loc 1 158 5 is_stmt 1
 267              		.loc 1 158 14 is_stmt 0
 268 0012 2316A7C2 		sh	a0,-980(a4)
 159:../../firmware/GD32VF103_standard_peripheral/Source/gd32vf103_bkp.c **** }
 269              		.loc 1 159 1
 270 0016 8280     		ret
 271              		.cfi_endproc
 272              	.LFE9:
 274              		.section	.text.bkp_rtc_calibration_value_set,"ax",@progbits
 275              		.align	1
 276              		.globl	bkp_rtc_calibration_value_set
 278              	bkp_rtc_calibration_value_set:
 279              	.LFB10:
 160:../../firmware/GD32VF103_standard_peripheral/Source/gd32vf103_bkp.c **** 
 161:../../firmware/GD32VF103_standard_peripheral/Source/gd32vf103_bkp.c **** /*!
 162:../../firmware/GD32VF103_standard_peripheral/Source/gd32vf103_bkp.c ****     \brief      set RTC clock calibration value 
 163:../../firmware/GD32VF103_standard_peripheral/Source/gd32vf103_bkp.c ****     \param[in]  value: RTC clock calibration value
 164:../../firmware/GD32VF103_standard_peripheral/Source/gd32vf103_bkp.c ****       \arg        0x00 - 0x7F
 165:../../firmware/GD32VF103_standard_peripheral/Source/gd32vf103_bkp.c ****     \param[out] none
 166:../../firmware/GD32VF103_standard_peripheral/Source/gd32vf103_bkp.c ****     \retval     none
 167:../../firmware/GD32VF103_standard_peripheral/Source/gd32vf103_bkp.c **** */
 168:../../firmware/GD32VF103_standard_peripheral/Source/gd32vf103_bkp.c **** void bkp_rtc_calibration_value_set(uint8_t value)
 169:../../firmware/GD32VF103_standard_peripheral/Source/gd32vf103_bkp.c **** {
 280              		.loc 1 169 1 is_stmt 1
 281              		.cfi_startproc
 282              	.LVL21:
 170:../../firmware/GD32VF103_standard_peripheral/Source/gd32vf103_bkp.c ****     uint16_t ctl;
 283              		.loc 1 170 5
 171:../../firmware/GD32VF103_standard_peripheral/Source/gd32vf103_bkp.c ****     
 172:../../firmware/GD32VF103_standard_peripheral/Source/gd32vf103_bkp.c ****     /* configure BKP_OCTL_RCCV with value */
 173:../../firmware/GD32VF103_standard_peripheral/Source/gd32vf103_bkp.c ****     ctl = BKP_OCTL;
 284              		.loc 1 173 5
 285              		.loc 1 173 9 is_stmt 0
 286 0000 37770040 		li	a4,1073770496
 287 0004 8357C7C2 		lhu	a5,-980(a4)
GAS LISTING /tmp/ccJ9OeMN.s 			page 9


 174:../../firmware/GD32VF103_standard_peripheral/Source/gd32vf103_bkp.c ****     ctl &= (uint16_t)~BKP_OCTL_RCCV;
 175:../../firmware/GD32VF103_standard_peripheral/Source/gd32vf103_bkp.c ****     ctl |= (uint16_t)OCTL_RCCV(value);
 288              		.loc 1 175 12
 289 0008 1375F507 		andi	a0,a0,127
 290              	.LVL22:
 173:../../firmware/GD32VF103_standard_peripheral/Source/gd32vf103_bkp.c ****     ctl &= (uint16_t)~BKP_OCTL_RCCV;
 291              		.loc 1 173 9
 292 000c C207     		slli	a5,a5,16
 293 000e C183     		srli	a5,a5,16
 294              	.LVL23:
 174:../../firmware/GD32VF103_standard_peripheral/Source/gd32vf103_bkp.c ****     ctl &= (uint16_t)~BKP_OCTL_RCCV;
 295              		.loc 1 174 5 is_stmt 1
 296              		.loc 1 175 5
 174:../../firmware/GD32VF103_standard_peripheral/Source/gd32vf103_bkp.c ****     ctl &= (uint16_t)~BKP_OCTL_RCCV;
 297              		.loc 1 174 9 is_stmt 0
 298 0010 93F707F8 		andi	a5,a5,-128
 299              	.LVL24:
 300              		.loc 1 175 9
 301 0014 C98F     		or	a5,a5,a0
 302              	.LVL25:
 176:../../firmware/GD32VF103_standard_peripheral/Source/gd32vf103_bkp.c ****     BKP_OCTL = ctl;
 303              		.loc 1 176 5 is_stmt 1
 304              		.loc 1 176 14 is_stmt 0
 305 0016 2316F7C2 		sh	a5,-980(a4)
 177:../../firmware/GD32VF103_standard_peripheral/Source/gd32vf103_bkp.c **** }
 306              		.loc 1 177 1
 307 001a 8280     		ret
 308              		.cfi_endproc
 309              	.LFE10:
 311              		.section	.text.bkp_tamper_detection_enable,"ax",@progbits
 312              		.align	1
 313              		.globl	bkp_tamper_detection_enable
 315              	bkp_tamper_detection_enable:
 316              	.LFB11:
 178:../../firmware/GD32VF103_standard_peripheral/Source/gd32vf103_bkp.c **** 
 179:../../firmware/GD32VF103_standard_peripheral/Source/gd32vf103_bkp.c **** /*!
 180:../../firmware/GD32VF103_standard_peripheral/Source/gd32vf103_bkp.c ****     \brief      enable tamper detection
 181:../../firmware/GD32VF103_standard_peripheral/Source/gd32vf103_bkp.c ****     \param[in]  none
 182:../../firmware/GD32VF103_standard_peripheral/Source/gd32vf103_bkp.c ****     \param[out] none
 183:../../firmware/GD32VF103_standard_peripheral/Source/gd32vf103_bkp.c ****     \retval     none
 184:../../firmware/GD32VF103_standard_peripheral/Source/gd32vf103_bkp.c **** */
 185:../../firmware/GD32VF103_standard_peripheral/Source/gd32vf103_bkp.c **** void bkp_tamper_detection_enable(void)
 186:../../firmware/GD32VF103_standard_peripheral/Source/gd32vf103_bkp.c **** {
 317              		.loc 1 186 1 is_stmt 1
 318              		.cfi_startproc
 187:../../firmware/GD32VF103_standard_peripheral/Source/gd32vf103_bkp.c ****     BKP_TPCTL |= (uint16_t)BKP_TPCTL_TPEN;
 319              		.loc 1 187 5
 320              		.loc 1 187 15 is_stmt 0
 321 0000 37770040 		li	a4,1073770496
 322 0004 835707C3 		lhu	a5,-976(a4)
 323 0008 93E71700 		ori	a5,a5,1
 324 000c 2318F7C2 		sh	a5,-976(a4)
 188:../../firmware/GD32VF103_standard_peripheral/Source/gd32vf103_bkp.c **** }
 325              		.loc 1 188 1
 326 0010 8280     		ret
 327              		.cfi_endproc
 328              	.LFE11:
GAS LISTING /tmp/ccJ9OeMN.s 			page 10


 330              		.section	.text.bkp_tamper_detection_disable,"ax",@progbits
 331              		.align	1
 332              		.globl	bkp_tamper_detection_disable
 334              	bkp_tamper_detection_disable:
 335              	.LFB12:
 189:../../firmware/GD32VF103_standard_peripheral/Source/gd32vf103_bkp.c **** 
 190:../../firmware/GD32VF103_standard_peripheral/Source/gd32vf103_bkp.c **** /*!
 191:../../firmware/GD32VF103_standard_peripheral/Source/gd32vf103_bkp.c ****     \brief      disable tamper detection
 192:../../firmware/GD32VF103_standard_peripheral/Source/gd32vf103_bkp.c ****     \param[in]  none
 193:../../firmware/GD32VF103_standard_peripheral/Source/gd32vf103_bkp.c ****     \param[out] none
 194:../../firmware/GD32VF103_standard_peripheral/Source/gd32vf103_bkp.c ****     \retval     none
 195:../../firmware/GD32VF103_standard_peripheral/Source/gd32vf103_bkp.c **** */
 196:../../firmware/GD32VF103_standard_peripheral/Source/gd32vf103_bkp.c **** void bkp_tamper_detection_disable(void)
 197:../../firmware/GD32VF103_standard_peripheral/Source/gd32vf103_bkp.c **** {
 336              		.loc 1 197 1 is_stmt 1
 337              		.cfi_startproc
 198:../../firmware/GD32VF103_standard_peripheral/Source/gd32vf103_bkp.c ****     BKP_TPCTL &= (uint16_t)~BKP_TPCTL_TPEN;
 338              		.loc 1 198 5
 339              		.loc 1 198 15 is_stmt 0
 340 0000 37770040 		li	a4,1073770496
 341 0004 835707C3 		lhu	a5,-976(a4)
 342 0008 C207     		slli	a5,a5,16
 343 000a C183     		srli	a5,a5,16
 344 000c F99B     		andi	a5,a5,-2
 345 000e C207     		slli	a5,a5,16
 346 0010 C183     		srli	a5,a5,16
 347 0012 2318F7C2 		sh	a5,-976(a4)
 199:../../firmware/GD32VF103_standard_peripheral/Source/gd32vf103_bkp.c **** }
 348              		.loc 1 199 1
 349 0016 8280     		ret
 350              		.cfi_endproc
 351              	.LFE12:
 353              		.section	.text.bkp_tamper_active_level_set,"ax",@progbits
 354              		.align	1
 355              		.globl	bkp_tamper_active_level_set
 357              	bkp_tamper_active_level_set:
 358              	.LFB13:
 200:../../firmware/GD32VF103_standard_peripheral/Source/gd32vf103_bkp.c **** 
 201:../../firmware/GD32VF103_standard_peripheral/Source/gd32vf103_bkp.c **** /*!
 202:../../firmware/GD32VF103_standard_peripheral/Source/gd32vf103_bkp.c ****     \brief      set tamper pin active level
 203:../../firmware/GD32VF103_standard_peripheral/Source/gd32vf103_bkp.c ****     \param[in]  level: tamper active level
 204:../../firmware/GD32VF103_standard_peripheral/Source/gd32vf103_bkp.c ****                 only one parameter can be selected which is shown as below:
 205:../../firmware/GD32VF103_standard_peripheral/Source/gd32vf103_bkp.c ****       \arg        TAMPER_PIN_ACTIVE_HIGH: the tamper pin is active high
 206:../../firmware/GD32VF103_standard_peripheral/Source/gd32vf103_bkp.c ****       \arg        TAMPER_PIN_ACTIVE_LOW: the tamper pin is active low
 207:../../firmware/GD32VF103_standard_peripheral/Source/gd32vf103_bkp.c ****     \param[out] none
 208:../../firmware/GD32VF103_standard_peripheral/Source/gd32vf103_bkp.c ****     \retval     none
 209:../../firmware/GD32VF103_standard_peripheral/Source/gd32vf103_bkp.c **** */
 210:../../firmware/GD32VF103_standard_peripheral/Source/gd32vf103_bkp.c **** void bkp_tamper_active_level_set(uint16_t level)
 211:../../firmware/GD32VF103_standard_peripheral/Source/gd32vf103_bkp.c **** {
 359              		.loc 1 211 1 is_stmt 1
 360              		.cfi_startproc
 361              	.LVL26:
 212:../../firmware/GD32VF103_standard_peripheral/Source/gd32vf103_bkp.c ****     uint16_t ctl = 0U;
 362              		.loc 1 212 5
 213:../../firmware/GD32VF103_standard_peripheral/Source/gd32vf103_bkp.c ****     
 214:../../firmware/GD32VF103_standard_peripheral/Source/gd32vf103_bkp.c ****     /* configure BKP_TPCTL_TPAL with level */
 215:../../firmware/GD32VF103_standard_peripheral/Source/gd32vf103_bkp.c ****     ctl = BKP_TPCTL;
GAS LISTING /tmp/ccJ9OeMN.s 			page 11


 363              		.loc 1 215 5
 364              		.loc 1 215 9 is_stmt 0
 365 0000 37770040 		li	a4,1073770496
 366 0004 835707C3 		lhu	a5,-976(a4)
 367 0008 C207     		slli	a5,a5,16
 368 000a C183     		srli	a5,a5,16
 369              	.LVL27:
 216:../../firmware/GD32VF103_standard_peripheral/Source/gd32vf103_bkp.c ****     ctl &= (uint16_t)~BKP_TPCTL_TPAL;
 370              		.loc 1 216 5 is_stmt 1
 371              		.loc 1 216 9 is_stmt 0
 372 000c F59B     		andi	a5,a5,-3
 373              	.LVL28:
 217:../../firmware/GD32VF103_standard_peripheral/Source/gd32vf103_bkp.c ****     ctl |= level;
 374              		.loc 1 217 5 is_stmt 1
 375              		.loc 1 217 9 is_stmt 0
 376 000e 5D8D     		or	a0,a5,a0
 377              	.LVL29:
 218:../../firmware/GD32VF103_standard_peripheral/Source/gd32vf103_bkp.c ****     BKP_TPCTL = ctl;
 378              		.loc 1 218 5 is_stmt 1
 379              		.loc 1 218 15 is_stmt 0
 380 0010 2318A7C2 		sh	a0,-976(a4)
 219:../../firmware/GD32VF103_standard_peripheral/Source/gd32vf103_bkp.c **** }
 381              		.loc 1 219 1
 382 0014 8280     		ret
 383              		.cfi_endproc
 384              	.LFE13:
 386              		.section	.text.bkp_interrupt_enable,"ax",@progbits
 387              		.align	1
 388              		.globl	bkp_interrupt_enable
 390              	bkp_interrupt_enable:
 391              	.LFB14:
 220:../../firmware/GD32VF103_standard_peripheral/Source/gd32vf103_bkp.c **** 
 221:../../firmware/GD32VF103_standard_peripheral/Source/gd32vf103_bkp.c **** /*!
 222:../../firmware/GD32VF103_standard_peripheral/Source/gd32vf103_bkp.c ****     \brief      enable tamper interrupt
 223:../../firmware/GD32VF103_standard_peripheral/Source/gd32vf103_bkp.c ****     \param[in]  none
 224:../../firmware/GD32VF103_standard_peripheral/Source/gd32vf103_bkp.c ****     \param[out] none
 225:../../firmware/GD32VF103_standard_peripheral/Source/gd32vf103_bkp.c ****     \retval     none
 226:../../firmware/GD32VF103_standard_peripheral/Source/gd32vf103_bkp.c **** */
 227:../../firmware/GD32VF103_standard_peripheral/Source/gd32vf103_bkp.c **** void bkp_interrupt_enable(void)
 228:../../firmware/GD32VF103_standard_peripheral/Source/gd32vf103_bkp.c **** {
 392              		.loc 1 228 1 is_stmt 1
 393              		.cfi_startproc
 229:../../firmware/GD32VF103_standard_peripheral/Source/gd32vf103_bkp.c ****     BKP_TPCS |= (uint16_t)BKP_TPCS_TPIE;
 394              		.loc 1 229 5
 395              		.loc 1 229 14 is_stmt 0
 396 0000 37770040 		li	a4,1073770496
 397 0004 835747C3 		lhu	a5,-972(a4)
 398 0008 93E74700 		ori	a5,a5,4
 399 000c 231AF7C2 		sh	a5,-972(a4)
 230:../../firmware/GD32VF103_standard_peripheral/Source/gd32vf103_bkp.c **** }
 400              		.loc 1 230 1
 401 0010 8280     		ret
 402              		.cfi_endproc
 403              	.LFE14:
 405              		.section	.text.bkp_interrupt_disable,"ax",@progbits
 406              		.align	1
 407              		.globl	bkp_interrupt_disable
GAS LISTING /tmp/ccJ9OeMN.s 			page 12


 409              	bkp_interrupt_disable:
 410              	.LFB15:
 231:../../firmware/GD32VF103_standard_peripheral/Source/gd32vf103_bkp.c **** 
 232:../../firmware/GD32VF103_standard_peripheral/Source/gd32vf103_bkp.c **** /*!
 233:../../firmware/GD32VF103_standard_peripheral/Source/gd32vf103_bkp.c ****     \brief      disable tamper interrupt
 234:../../firmware/GD32VF103_standard_peripheral/Source/gd32vf103_bkp.c ****     \param[in]  none
 235:../../firmware/GD32VF103_standard_peripheral/Source/gd32vf103_bkp.c ****     \param[out] none
 236:../../firmware/GD32VF103_standard_peripheral/Source/gd32vf103_bkp.c ****     \retval     none
 237:../../firmware/GD32VF103_standard_peripheral/Source/gd32vf103_bkp.c **** */
 238:../../firmware/GD32VF103_standard_peripheral/Source/gd32vf103_bkp.c **** void bkp_interrupt_disable(void)
 239:../../firmware/GD32VF103_standard_peripheral/Source/gd32vf103_bkp.c **** {
 411              		.loc 1 239 1 is_stmt 1
 412              		.cfi_startproc
 240:../../firmware/GD32VF103_standard_peripheral/Source/gd32vf103_bkp.c ****     BKP_TPCS &= (uint16_t)~BKP_TPCS_TPIE;
 413              		.loc 1 240 5
 414              		.loc 1 240 14 is_stmt 0
 415 0000 37770040 		li	a4,1073770496
 416 0004 835747C3 		lhu	a5,-972(a4)
 417 0008 C207     		slli	a5,a5,16
 418 000a C183     		srli	a5,a5,16
 419 000c ED9B     		andi	a5,a5,-5
 420 000e C207     		slli	a5,a5,16
 421 0010 C183     		srli	a5,a5,16
 422 0012 231AF7C2 		sh	a5,-972(a4)
 241:../../firmware/GD32VF103_standard_peripheral/Source/gd32vf103_bkp.c **** }
 423              		.loc 1 241 1
 424 0016 8280     		ret
 425              		.cfi_endproc
 426              	.LFE15:
 428              		.section	.text.bkp_flag_get,"ax",@progbits
 429              		.align	1
 430              		.globl	bkp_flag_get
 432              	bkp_flag_get:
 433              	.LFB16:
 242:../../firmware/GD32VF103_standard_peripheral/Source/gd32vf103_bkp.c **** 
 243:../../firmware/GD32VF103_standard_peripheral/Source/gd32vf103_bkp.c **** /*!
 244:../../firmware/GD32VF103_standard_peripheral/Source/gd32vf103_bkp.c ****     \brief      get tamper flag state
 245:../../firmware/GD32VF103_standard_peripheral/Source/gd32vf103_bkp.c ****     \param[in]  none
 246:../../firmware/GD32VF103_standard_peripheral/Source/gd32vf103_bkp.c ****     \param[out] none
 247:../../firmware/GD32VF103_standard_peripheral/Source/gd32vf103_bkp.c ****     \retval     FlagStatus: SET or RESET
 248:../../firmware/GD32VF103_standard_peripheral/Source/gd32vf103_bkp.c **** */
 249:../../firmware/GD32VF103_standard_peripheral/Source/gd32vf103_bkp.c **** FlagStatus bkp_flag_get(void)
 250:../../firmware/GD32VF103_standard_peripheral/Source/gd32vf103_bkp.c **** {
 434              		.loc 1 250 1 is_stmt 1
 435              		.cfi_startproc
 251:../../firmware/GD32VF103_standard_peripheral/Source/gd32vf103_bkp.c ****     if(BKP_TPCS & BKP_FLAG_TAMPER){
 436              		.loc 1 251 5
 437              		.loc 1 251 8 is_stmt 0
 438 0000 B7770040 		li	a5,1073770496
 439 0004 03D547C3 		lhu	a0,-972(a5)
 440              		.loc 1 251 7
 441 0008 2181     		srli	a0,a0,8
 252:../../firmware/GD32VF103_standard_peripheral/Source/gd32vf103_bkp.c ****         return SET;
 253:../../firmware/GD32VF103_standard_peripheral/Source/gd32vf103_bkp.c ****     }else{
 254:../../firmware/GD32VF103_standard_peripheral/Source/gd32vf103_bkp.c ****         return RESET;
 255:../../firmware/GD32VF103_standard_peripheral/Source/gd32vf103_bkp.c ****     }
 256:../../firmware/GD32VF103_standard_peripheral/Source/gd32vf103_bkp.c **** }
GAS LISTING /tmp/ccJ9OeMN.s 			page 13


 442              		.loc 1 256 1
 443 000a 0589     		andi	a0,a0,1
 444 000c 8280     		ret
 445              		.cfi_endproc
 446              	.LFE16:
 448              		.section	.text.bkp_flag_clear,"ax",@progbits
 449              		.align	1
 450              		.globl	bkp_flag_clear
 452              	bkp_flag_clear:
 453              	.LFB17:
 257:../../firmware/GD32VF103_standard_peripheral/Source/gd32vf103_bkp.c **** 
 258:../../firmware/GD32VF103_standard_peripheral/Source/gd32vf103_bkp.c **** /*!
 259:../../firmware/GD32VF103_standard_peripheral/Source/gd32vf103_bkp.c ****     \brief      clear tamper flag state
 260:../../firmware/GD32VF103_standard_peripheral/Source/gd32vf103_bkp.c ****     \param[in]  none
 261:../../firmware/GD32VF103_standard_peripheral/Source/gd32vf103_bkp.c ****     \param[out] none
 262:../../firmware/GD32VF103_standard_peripheral/Source/gd32vf103_bkp.c ****     \retval     none
 263:../../firmware/GD32VF103_standard_peripheral/Source/gd32vf103_bkp.c **** */
 264:../../firmware/GD32VF103_standard_peripheral/Source/gd32vf103_bkp.c **** void bkp_flag_clear(void)
 265:../../firmware/GD32VF103_standard_peripheral/Source/gd32vf103_bkp.c **** {
 454              		.loc 1 265 1 is_stmt 1
 455              		.cfi_startproc
 266:../../firmware/GD32VF103_standard_peripheral/Source/gd32vf103_bkp.c ****     BKP_TPCS |= (uint16_t)(BKP_FLAG_TAMPER >> BKP_TAMPER_BITS_OFFSET);
 456              		.loc 1 266 5
 457              		.loc 1 266 14 is_stmt 0
 458 0000 37770040 		li	a4,1073770496
 459 0004 835747C3 		lhu	a5,-972(a4)
 460 0008 93E71700 		ori	a5,a5,1
 461 000c 231AF7C2 		sh	a5,-972(a4)
 267:../../firmware/GD32VF103_standard_peripheral/Source/gd32vf103_bkp.c **** }
 462              		.loc 1 267 1
 463 0010 8280     		ret
 464              		.cfi_endproc
 465              	.LFE17:
 467              		.section	.text.bkp_interrupt_flag_get,"ax",@progbits
 468              		.align	1
 469              		.globl	bkp_interrupt_flag_get
 471              	bkp_interrupt_flag_get:
 472              	.LFB18:
 268:../../firmware/GD32VF103_standard_peripheral/Source/gd32vf103_bkp.c **** 
 269:../../firmware/GD32VF103_standard_peripheral/Source/gd32vf103_bkp.c **** /*!
 270:../../firmware/GD32VF103_standard_peripheral/Source/gd32vf103_bkp.c ****     \brief      get tamper interrupt flag state
 271:../../firmware/GD32VF103_standard_peripheral/Source/gd32vf103_bkp.c ****     \param[in]  none
 272:../../firmware/GD32VF103_standard_peripheral/Source/gd32vf103_bkp.c ****     \param[out] none
 273:../../firmware/GD32VF103_standard_peripheral/Source/gd32vf103_bkp.c ****     \retval     FlagStatus: SET or RESET
 274:../../firmware/GD32VF103_standard_peripheral/Source/gd32vf103_bkp.c **** */
 275:../../firmware/GD32VF103_standard_peripheral/Source/gd32vf103_bkp.c **** FlagStatus bkp_interrupt_flag_get(void)
 276:../../firmware/GD32VF103_standard_peripheral/Source/gd32vf103_bkp.c **** {
 473              		.loc 1 276 1 is_stmt 1
 474              		.cfi_startproc
 277:../../firmware/GD32VF103_standard_peripheral/Source/gd32vf103_bkp.c ****     if(BKP_TPCS & BKP_INT_FLAG_TAMPER){
 475              		.loc 1 277 5
 476              		.loc 1 277 8 is_stmt 0
 477 0000 B7770040 		li	a5,1073770496
 478 0004 03D547C3 		lhu	a0,-972(a5)
 479              		.loc 1 277 7
 480 0008 2581     		srli	a0,a0,9
 278:../../firmware/GD32VF103_standard_peripheral/Source/gd32vf103_bkp.c ****         return SET;
GAS LISTING /tmp/ccJ9OeMN.s 			page 14


 279:../../firmware/GD32VF103_standard_peripheral/Source/gd32vf103_bkp.c ****     }else{
 280:../../firmware/GD32VF103_standard_peripheral/Source/gd32vf103_bkp.c ****         return RESET;
 281:../../firmware/GD32VF103_standard_peripheral/Source/gd32vf103_bkp.c ****     }
 282:../../firmware/GD32VF103_standard_peripheral/Source/gd32vf103_bkp.c **** }
 481              		.loc 1 282 1
 482 000a 0589     		andi	a0,a0,1
 483 000c 8280     		ret
 484              		.cfi_endproc
 485              	.LFE18:
 487              		.section	.text.bkp_interrupt_flag_clear,"ax",@progbits
 488              		.align	1
 489              		.globl	bkp_interrupt_flag_clear
 491              	bkp_interrupt_flag_clear:
 492              	.LFB19:
 283:../../firmware/GD32VF103_standard_peripheral/Source/gd32vf103_bkp.c **** 
 284:../../firmware/GD32VF103_standard_peripheral/Source/gd32vf103_bkp.c **** /*!
 285:../../firmware/GD32VF103_standard_peripheral/Source/gd32vf103_bkp.c ****     \brief      clear tamper interrupt flag state
 286:../../firmware/GD32VF103_standard_peripheral/Source/gd32vf103_bkp.c ****     \param[in]  none
 287:../../firmware/GD32VF103_standard_peripheral/Source/gd32vf103_bkp.c ****     \param[out] none
 288:../../firmware/GD32VF103_standard_peripheral/Source/gd32vf103_bkp.c ****     \retval     none
 289:../../firmware/GD32VF103_standard_peripheral/Source/gd32vf103_bkp.c **** */
 290:../../firmware/GD32VF103_standard_peripheral/Source/gd32vf103_bkp.c **** void bkp_interrupt_flag_clear(void)
 291:../../firmware/GD32VF103_standard_peripheral/Source/gd32vf103_bkp.c **** {
 493              		.loc 1 291 1 is_stmt 1
 494              		.cfi_startproc
 292:../../firmware/GD32VF103_standard_peripheral/Source/gd32vf103_bkp.c ****     BKP_TPCS |= (uint16_t)(BKP_INT_FLAG_TAMPER >> BKP_TAMPER_BITS_OFFSET);
 495              		.loc 1 292 5
 496              		.loc 1 292 14 is_stmt 0
 497 0000 37770040 		li	a4,1073770496
 498 0004 835747C3 		lhu	a5,-972(a4)
 499 0008 93E72700 		ori	a5,a5,2
 500 000c 231AF7C2 		sh	a5,-972(a4)
 293:../../firmware/GD32VF103_standard_peripheral/Source/gd32vf103_bkp.c **** }
 501              		.loc 1 293 1
 502 0010 8280     		ret
 503              		.cfi_endproc
 504              	.LFE19:
 506              		.text
 507              	.Letext0:
 508              		.file 2 "/home/remahl/toolchain-gd32v/toolchain-gd32v-linux/compiler/riscv64-unknown-elf/include/m
 509              		.file 3 "/home/remahl/toolchain-gd32v/toolchain-gd32v-linux/compiler/riscv64-unknown-elf/include/s
 510              		.file 4 "../../firmware/GD32VF103_standard_peripheral/gd32vf103.h"
 511              		.file 5 "../../firmware/GD32VF103_standard_peripheral/Include/gd32vf103_bkp.h"
 512              		.file 6 "../../firmware/GD32VF103_standard_peripheral/Include/gd32vf103_rcu.h"
 513              		.file 7 "../../firmware/GD32VF103_standard_peripheral/system_gd32vf103.h"
GAS LISTING /tmp/ccJ9OeMN.s 			page 15


DEFINED SYMBOLS
                            *ABS*:0000000000000000 gd32vf103_bkp.c
     /tmp/ccJ9OeMN.s:13     .text.bkp_deinit:0000000000000000 bkp_deinit
     /tmp/ccJ9OeMN.s:17     .text.bkp_deinit:0000000000000000 .L0 
     /tmp/ccJ9OeMN.s:18     .text.bkp_deinit:0000000000000000 .L0 
     /tmp/ccJ9OeMN.s:19     .text.bkp_deinit:0000000000000000 .L0 
     /tmp/ccJ9OeMN.s:20     .text.bkp_deinit:0000000000000000 .L0 
     /tmp/ccJ9OeMN.s:22     .text.bkp_deinit:0000000000000002 .L0 
     /tmp/ccJ9OeMN.s:24     .text.bkp_deinit:0000000000000004 .L0 
     /tmp/ccJ9OeMN.s:26     .text.bkp_deinit:0000000000000004 .L0 
     /tmp/ccJ9OeMN.s:29     .text.bkp_deinit:000000000000000c .L0 
     /tmp/ccJ9OeMN.s:30     .text.bkp_deinit:000000000000000c .L0 
     /tmp/ccJ9OeMN.s:31     .text.bkp_deinit:000000000000000e .L0 
     /tmp/ccJ9OeMN.s:34     .text.bkp_deinit:0000000000000010 .L0 
     /tmp/ccJ9OeMN.s:36     .text.bkp_deinit:0000000000000010 .L0 
     /tmp/ccJ9OeMN.s:38     .text.bkp_deinit:0000000000000018 .L0 
     /tmp/ccJ9OeMN.s:45     .text.bkp_data_write:0000000000000000 bkp_data_write
     /tmp/ccJ9OeMN.s:48     .text.bkp_data_write:0000000000000000 .L0 
     /tmp/ccJ9OeMN.s:50     .text.bkp_data_write:0000000000000000 .L0 
     /tmp/ccJ9OeMN.s:51     .text.bkp_data_write:0000000000000000 .L0 
     /tmp/ccJ9OeMN.s:52     .text.bkp_data_write:0000000000000000 .L0 
     /tmp/ccJ9OeMN.s:54     .text.bkp_data_write:0000000000000004 .L0 
     /tmp/ccJ9OeMN.s:57     .text.bkp_data_write:000000000000000a .L0 
     /tmp/ccJ9OeMN.s:64     .text.bkp_data_write:0000000000000016 .L0 
     /tmp/ccJ9OeMN.s:69     .text.bkp_data_write:000000000000001c .L0 
     /tmp/ccJ9OeMN.s:70     .text.bkp_data_write:000000000000001c .L0 
     /tmp/ccJ9OeMN.s:72     .text.bkp_data_write:0000000000000020 .L0 
     /tmp/ccJ9OeMN.s:75     .text.bkp_data_write:0000000000000026 .L0 
     /tmp/ccJ9OeMN.s:82     .text.bkp_data_write:0000000000000032 .L0 
     /tmp/ccJ9OeMN.s:85     .text.bkp_data_write:0000000000000036 .L0 
     /tmp/ccJ9OeMN.s:86     .text.bkp_data_write:0000000000000036 .L0 
     /tmp/ccJ9OeMN.s:87     .text.bkp_data_write:0000000000000038 .L0 
     /tmp/ccJ9OeMN.s:94     .text.bkp_data_read:0000000000000000 bkp_data_read
     /tmp/ccJ9OeMN.s:97     .text.bkp_data_read:0000000000000000 .L0 
     /tmp/ccJ9OeMN.s:99     .text.bkp_data_read:0000000000000000 .L0 
     /tmp/ccJ9OeMN.s:100    .text.bkp_data_read:0000000000000000 .L0 
     /tmp/ccJ9OeMN.s:101    .text.bkp_data_read:0000000000000000 .L0 
     /tmp/ccJ9OeMN.s:102    .text.bkp_data_read:0000000000000000 .L0 
     /tmp/ccJ9OeMN.s:104    .text.bkp_data_read:0000000000000004 .L0 
     /tmp/ccJ9OeMN.s:106    .text.bkp_data_read:0000000000000006 .L0 
     /tmp/ccJ9OeMN.s:108    .text.bkp_data_read:0000000000000008 .L0 
     /tmp/ccJ9OeMN.s:110    .text.bkp_data_read:000000000000000c .L0 
     /tmp/ccJ9OeMN.s:111    .text.bkp_data_read:000000000000000c .L0 
     /tmp/ccJ9OeMN.s:115    .text.bkp_data_read:0000000000000014 .L0 
     /tmp/ccJ9OeMN.s:120    .text.bkp_data_read:0000000000000018 .L0 
     /tmp/ccJ9OeMN.s:126    .text.bkp_data_read:0000000000000020 .L0 
     /tmp/ccJ9OeMN.s:127    .text.bkp_data_read:0000000000000020 .L0 
     /tmp/ccJ9OeMN.s:128    .text.bkp_data_read:0000000000000020 .L0 
     /tmp/ccJ9OeMN.s:132    .text.bkp_data_read:0000000000000022 .L0 
     /tmp/ccJ9OeMN.s:133    .text.bkp_data_read:0000000000000022 .L0 
     /tmp/ccJ9OeMN.s:135    .text.bkp_data_read:0000000000000026 .L0 
     /tmp/ccJ9OeMN.s:137    .text.bkp_data_read:0000000000000028 .L0 
     /tmp/ccJ9OeMN.s:140    .text.bkp_data_read:000000000000002a .L0 
     /tmp/ccJ9OeMN.s:142    .text.bkp_data_read:000000000000002e .L0 
     /tmp/ccJ9OeMN.s:143    .text.bkp_data_read:000000000000002e .L0 
     /tmp/ccJ9OeMN.s:149    .text.bkp_data_read:000000000000003a .L0 
     /tmp/ccJ9OeMN.s:154    .text.bkp_data_read:0000000000000044 .L0 
GAS LISTING /tmp/ccJ9OeMN.s 			page 16


     /tmp/ccJ9OeMN.s:161    .text.bkp_rtc_calibration_output_enable:0000000000000000 bkp_rtc_calibration_output_enable
     /tmp/ccJ9OeMN.s:164    .text.bkp_rtc_calibration_output_enable:0000000000000000 .L0 
     /tmp/ccJ9OeMN.s:165    .text.bkp_rtc_calibration_output_enable:0000000000000000 .L0 
     /tmp/ccJ9OeMN.s:166    .text.bkp_rtc_calibration_output_enable:0000000000000000 .L0 
     /tmp/ccJ9OeMN.s:167    .text.bkp_rtc_calibration_output_enable:0000000000000000 .L0 
     /tmp/ccJ9OeMN.s:172    .text.bkp_rtc_calibration_output_enable:0000000000000010 .L0 
     /tmp/ccJ9OeMN.s:173    .text.bkp_rtc_calibration_output_enable:0000000000000012 .L0 
     /tmp/ccJ9OeMN.s:180    .text.bkp_rtc_calibration_output_disable:0000000000000000 bkp_rtc_calibration_output_disable
     /tmp/ccJ9OeMN.s:183    .text.bkp_rtc_calibration_output_disable:0000000000000000 .L0 
     /tmp/ccJ9OeMN.s:184    .text.bkp_rtc_calibration_output_disable:0000000000000000 .L0 
     /tmp/ccJ9OeMN.s:185    .text.bkp_rtc_calibration_output_disable:0000000000000000 .L0 
     /tmp/ccJ9OeMN.s:186    .text.bkp_rtc_calibration_output_disable:0000000000000000 .L0 
     /tmp/ccJ9OeMN.s:195    .text.bkp_rtc_calibration_output_disable:0000000000000018 .L0 
     /tmp/ccJ9OeMN.s:196    .text.bkp_rtc_calibration_output_disable:000000000000001a .L0 
     /tmp/ccJ9OeMN.s:203    .text.bkp_rtc_signal_output_enable:0000000000000000 bkp_rtc_signal_output_enable
     /tmp/ccJ9OeMN.s:206    .text.bkp_rtc_signal_output_enable:0000000000000000 .L0 
     /tmp/ccJ9OeMN.s:207    .text.bkp_rtc_signal_output_enable:0000000000000000 .L0 
     /tmp/ccJ9OeMN.s:208    .text.bkp_rtc_signal_output_enable:0000000000000000 .L0 
     /tmp/ccJ9OeMN.s:209    .text.bkp_rtc_signal_output_enable:0000000000000000 .L0 
     /tmp/ccJ9OeMN.s:214    .text.bkp_rtc_signal_output_enable:0000000000000010 .L0 
     /tmp/ccJ9OeMN.s:215    .text.bkp_rtc_signal_output_enable:0000000000000012 .L0 
     /tmp/ccJ9OeMN.s:222    .text.bkp_rtc_signal_output_disable:0000000000000000 bkp_rtc_signal_output_disable
     /tmp/ccJ9OeMN.s:225    .text.bkp_rtc_signal_output_disable:0000000000000000 .L0 
     /tmp/ccJ9OeMN.s:226    .text.bkp_rtc_signal_output_disable:0000000000000000 .L0 
     /tmp/ccJ9OeMN.s:227    .text.bkp_rtc_signal_output_disable:0000000000000000 .L0 
     /tmp/ccJ9OeMN.s:228    .text.bkp_rtc_signal_output_disable:0000000000000000 .L0 
     /tmp/ccJ9OeMN.s:237    .text.bkp_rtc_signal_output_disable:0000000000000018 .L0 
     /tmp/ccJ9OeMN.s:238    .text.bkp_rtc_signal_output_disable:000000000000001a .L0 
     /tmp/ccJ9OeMN.s:245    .text.bkp_rtc_output_select:0000000000000000 bkp_rtc_output_select
     /tmp/ccJ9OeMN.s:248    .text.bkp_rtc_output_select:0000000000000000 .L0 
     /tmp/ccJ9OeMN.s:250    .text.bkp_rtc_output_select:0000000000000000 .L0 
     /tmp/ccJ9OeMN.s:251    .text.bkp_rtc_output_select:0000000000000000 .L0 
     /tmp/ccJ9OeMN.s:252    .text.bkp_rtc_output_select:0000000000000000 .L0 
     /tmp/ccJ9OeMN.s:253    .text.bkp_rtc_output_select:0000000000000000 .L0 
     /tmp/ccJ9OeMN.s:259    .text.bkp_rtc_output_select:000000000000000c .L0 
     /tmp/ccJ9OeMN.s:260    .text.bkp_rtc_output_select:000000000000000c .L0 
     /tmp/ccJ9OeMN.s:263    .text.bkp_rtc_output_select:0000000000000010 .L0 
     /tmp/ccJ9OeMN.s:264    .text.bkp_rtc_output_select:0000000000000010 .L0 
     /tmp/ccJ9OeMN.s:267    .text.bkp_rtc_output_select:0000000000000012 .L0 
     /tmp/ccJ9OeMN.s:268    .text.bkp_rtc_output_select:0000000000000012 .L0 
     /tmp/ccJ9OeMN.s:270    .text.bkp_rtc_output_select:0000000000000016 .L0 
     /tmp/ccJ9OeMN.s:271    .text.bkp_rtc_output_select:0000000000000018 .L0 
     /tmp/ccJ9OeMN.s:278    .text.bkp_rtc_calibration_value_set:0000000000000000 bkp_rtc_calibration_value_set
     /tmp/ccJ9OeMN.s:281    .text.bkp_rtc_calibration_value_set:0000000000000000 .L0 
     /tmp/ccJ9OeMN.s:283    .text.bkp_rtc_calibration_value_set:0000000000000000 .L0 
     /tmp/ccJ9OeMN.s:284    .text.bkp_rtc_calibration_value_set:0000000000000000 .L0 
     /tmp/ccJ9OeMN.s:285    .text.bkp_rtc_calibration_value_set:0000000000000000 .L0 
     /tmp/ccJ9OeMN.s:286    .text.bkp_rtc_calibration_value_set:0000000000000000 .L0 
     /tmp/ccJ9OeMN.s:289    .text.bkp_rtc_calibration_value_set:0000000000000008 .L0 
     /tmp/ccJ9OeMN.s:292    .text.bkp_rtc_calibration_value_set:000000000000000c .L0 
     /tmp/ccJ9OeMN.s:296    .text.bkp_rtc_calibration_value_set:0000000000000010 .L0 
     /tmp/ccJ9OeMN.s:297    .text.bkp_rtc_calibration_value_set:0000000000000010 .L0 
     /tmp/ccJ9OeMN.s:298    .text.bkp_rtc_calibration_value_set:0000000000000010 .L0 
     /tmp/ccJ9OeMN.s:301    .text.bkp_rtc_calibration_value_set:0000000000000014 .L0 
     /tmp/ccJ9OeMN.s:304    .text.bkp_rtc_calibration_value_set:0000000000000016 .L0 
     /tmp/ccJ9OeMN.s:305    .text.bkp_rtc_calibration_value_set:0000000000000016 .L0 
     /tmp/ccJ9OeMN.s:307    .text.bkp_rtc_calibration_value_set:000000000000001a .L0 
GAS LISTING /tmp/ccJ9OeMN.s 			page 17


     /tmp/ccJ9OeMN.s:308    .text.bkp_rtc_calibration_value_set:000000000000001c .L0 
     /tmp/ccJ9OeMN.s:315    .text.bkp_tamper_detection_enable:0000000000000000 bkp_tamper_detection_enable
     /tmp/ccJ9OeMN.s:318    .text.bkp_tamper_detection_enable:0000000000000000 .L0 
     /tmp/ccJ9OeMN.s:319    .text.bkp_tamper_detection_enable:0000000000000000 .L0 
     /tmp/ccJ9OeMN.s:320    .text.bkp_tamper_detection_enable:0000000000000000 .L0 
     /tmp/ccJ9OeMN.s:321    .text.bkp_tamper_detection_enable:0000000000000000 .L0 
     /tmp/ccJ9OeMN.s:326    .text.bkp_tamper_detection_enable:0000000000000010 .L0 
     /tmp/ccJ9OeMN.s:327    .text.bkp_tamper_detection_enable:0000000000000012 .L0 
     /tmp/ccJ9OeMN.s:334    .text.bkp_tamper_detection_disable:0000000000000000 bkp_tamper_detection_disable
     /tmp/ccJ9OeMN.s:337    .text.bkp_tamper_detection_disable:0000000000000000 .L0 
     /tmp/ccJ9OeMN.s:338    .text.bkp_tamper_detection_disable:0000000000000000 .L0 
     /tmp/ccJ9OeMN.s:339    .text.bkp_tamper_detection_disable:0000000000000000 .L0 
     /tmp/ccJ9OeMN.s:340    .text.bkp_tamper_detection_disable:0000000000000000 .L0 
     /tmp/ccJ9OeMN.s:349    .text.bkp_tamper_detection_disable:0000000000000016 .L0 
     /tmp/ccJ9OeMN.s:350    .text.bkp_tamper_detection_disable:0000000000000018 .L0 
     /tmp/ccJ9OeMN.s:357    .text.bkp_tamper_active_level_set:0000000000000000 bkp_tamper_active_level_set
     /tmp/ccJ9OeMN.s:360    .text.bkp_tamper_active_level_set:0000000000000000 .L0 
     /tmp/ccJ9OeMN.s:362    .text.bkp_tamper_active_level_set:0000000000000000 .L0 
     /tmp/ccJ9OeMN.s:363    .text.bkp_tamper_active_level_set:0000000000000000 .L0 
     /tmp/ccJ9OeMN.s:364    .text.bkp_tamper_active_level_set:0000000000000000 .L0 
     /tmp/ccJ9OeMN.s:365    .text.bkp_tamper_active_level_set:0000000000000000 .L0 
     /tmp/ccJ9OeMN.s:371    .text.bkp_tamper_active_level_set:000000000000000c .L0 
     /tmp/ccJ9OeMN.s:372    .text.bkp_tamper_active_level_set:000000000000000c .L0 
     /tmp/ccJ9OeMN.s:375    .text.bkp_tamper_active_level_set:000000000000000e .L0 
     /tmp/ccJ9OeMN.s:376    .text.bkp_tamper_active_level_set:000000000000000e .L0 
     /tmp/ccJ9OeMN.s:379    .text.bkp_tamper_active_level_set:0000000000000010 .L0 
     /tmp/ccJ9OeMN.s:380    .text.bkp_tamper_active_level_set:0000000000000010 .L0 
     /tmp/ccJ9OeMN.s:382    .text.bkp_tamper_active_level_set:0000000000000014 .L0 
     /tmp/ccJ9OeMN.s:383    .text.bkp_tamper_active_level_set:0000000000000016 .L0 
     /tmp/ccJ9OeMN.s:390    .text.bkp_interrupt_enable:0000000000000000 bkp_interrupt_enable
     /tmp/ccJ9OeMN.s:393    .text.bkp_interrupt_enable:0000000000000000 .L0 
     /tmp/ccJ9OeMN.s:394    .text.bkp_interrupt_enable:0000000000000000 .L0 
     /tmp/ccJ9OeMN.s:395    .text.bkp_interrupt_enable:0000000000000000 .L0 
     /tmp/ccJ9OeMN.s:396    .text.bkp_interrupt_enable:0000000000000000 .L0 
     /tmp/ccJ9OeMN.s:401    .text.bkp_interrupt_enable:0000000000000010 .L0 
     /tmp/ccJ9OeMN.s:402    .text.bkp_interrupt_enable:0000000000000012 .L0 
     /tmp/ccJ9OeMN.s:409    .text.bkp_interrupt_disable:0000000000000000 bkp_interrupt_disable
     /tmp/ccJ9OeMN.s:412    .text.bkp_interrupt_disable:0000000000000000 .L0 
     /tmp/ccJ9OeMN.s:413    .text.bkp_interrupt_disable:0000000000000000 .L0 
     /tmp/ccJ9OeMN.s:414    .text.bkp_interrupt_disable:0000000000000000 .L0 
     /tmp/ccJ9OeMN.s:415    .text.bkp_interrupt_disable:0000000000000000 .L0 
     /tmp/ccJ9OeMN.s:424    .text.bkp_interrupt_disable:0000000000000016 .L0 
     /tmp/ccJ9OeMN.s:425    .text.bkp_interrupt_disable:0000000000000018 .L0 
     /tmp/ccJ9OeMN.s:432    .text.bkp_flag_get:0000000000000000 bkp_flag_get
     /tmp/ccJ9OeMN.s:435    .text.bkp_flag_get:0000000000000000 .L0 
     /tmp/ccJ9OeMN.s:436    .text.bkp_flag_get:0000000000000000 .L0 
     /tmp/ccJ9OeMN.s:437    .text.bkp_flag_get:0000000000000000 .L0 
     /tmp/ccJ9OeMN.s:438    .text.bkp_flag_get:0000000000000000 .L0 
     /tmp/ccJ9OeMN.s:441    .text.bkp_flag_get:0000000000000008 .L0 
     /tmp/ccJ9OeMN.s:443    .text.bkp_flag_get:000000000000000a .L0 
     /tmp/ccJ9OeMN.s:445    .text.bkp_flag_get:000000000000000e .L0 
     /tmp/ccJ9OeMN.s:452    .text.bkp_flag_clear:0000000000000000 bkp_flag_clear
     /tmp/ccJ9OeMN.s:455    .text.bkp_flag_clear:0000000000000000 .L0 
     /tmp/ccJ9OeMN.s:456    .text.bkp_flag_clear:0000000000000000 .L0 
     /tmp/ccJ9OeMN.s:457    .text.bkp_flag_clear:0000000000000000 .L0 
     /tmp/ccJ9OeMN.s:458    .text.bkp_flag_clear:0000000000000000 .L0 
     /tmp/ccJ9OeMN.s:463    .text.bkp_flag_clear:0000000000000010 .L0 
GAS LISTING /tmp/ccJ9OeMN.s 			page 18


     /tmp/ccJ9OeMN.s:464    .text.bkp_flag_clear:0000000000000012 .L0 
     /tmp/ccJ9OeMN.s:471    .text.bkp_interrupt_flag_get:0000000000000000 bkp_interrupt_flag_get
     /tmp/ccJ9OeMN.s:474    .text.bkp_interrupt_flag_get:0000000000000000 .L0 
     /tmp/ccJ9OeMN.s:475    .text.bkp_interrupt_flag_get:0000000000000000 .L0 
     /tmp/ccJ9OeMN.s:476    .text.bkp_interrupt_flag_get:0000000000000000 .L0 
     /tmp/ccJ9OeMN.s:477    .text.bkp_interrupt_flag_get:0000000000000000 .L0 
     /tmp/ccJ9OeMN.s:480    .text.bkp_interrupt_flag_get:0000000000000008 .L0 
     /tmp/ccJ9OeMN.s:482    .text.bkp_interrupt_flag_get:000000000000000a .L0 
     /tmp/ccJ9OeMN.s:484    .text.bkp_interrupt_flag_get:000000000000000e .L0 
     /tmp/ccJ9OeMN.s:491    .text.bkp_interrupt_flag_clear:0000000000000000 bkp_interrupt_flag_clear
     /tmp/ccJ9OeMN.s:494    .text.bkp_interrupt_flag_clear:0000000000000000 .L0 
     /tmp/ccJ9OeMN.s:495    .text.bkp_interrupt_flag_clear:0000000000000000 .L0 
     /tmp/ccJ9OeMN.s:496    .text.bkp_interrupt_flag_clear:0000000000000000 .L0 
     /tmp/ccJ9OeMN.s:497    .text.bkp_interrupt_flag_clear:0000000000000000 .L0 
     /tmp/ccJ9OeMN.s:502    .text.bkp_interrupt_flag_clear:0000000000000010 .L0 
     /tmp/ccJ9OeMN.s:503    .text.bkp_interrupt_flag_clear:0000000000000012 .L0 
     /tmp/ccJ9OeMN.s:41     .text.bkp_deinit:0000000000000018 .L0 
     /tmp/ccJ9OeMN.s:90     .text.bkp_data_write:0000000000000038 .L0 
     /tmp/ccJ9OeMN.s:157    .text.bkp_data_read:0000000000000044 .L0 
     /tmp/ccJ9OeMN.s:176    .text.bkp_rtc_calibration_output_enable:0000000000000012 .L0 
     /tmp/ccJ9OeMN.s:199    .text.bkp_rtc_calibration_output_disable:000000000000001a .L0 
     /tmp/ccJ9OeMN.s:218    .text.bkp_rtc_signal_output_enable:0000000000000012 .L0 
     /tmp/ccJ9OeMN.s:241    .text.bkp_rtc_signal_output_disable:000000000000001a .L0 
     /tmp/ccJ9OeMN.s:274    .text.bkp_rtc_output_select:0000000000000018 .L0 
     /tmp/ccJ9OeMN.s:311    .text.bkp_rtc_calibration_value_set:000000000000001c .L0 
     /tmp/ccJ9OeMN.s:330    .text.bkp_tamper_detection_enable:0000000000000012 .L0 
     /tmp/ccJ9OeMN.s:353    .text.bkp_tamper_detection_disable:0000000000000018 .L0 
     /tmp/ccJ9OeMN.s:386    .text.bkp_tamper_active_level_set:0000000000000016 .L0 
     /tmp/ccJ9OeMN.s:405    .text.bkp_interrupt_enable:0000000000000012 .L0 
     /tmp/ccJ9OeMN.s:428    .text.bkp_interrupt_disable:0000000000000018 .L0 
     /tmp/ccJ9OeMN.s:448    .text.bkp_flag_get:000000000000000e .L0 
     /tmp/ccJ9OeMN.s:467    .text.bkp_flag_clear:0000000000000012 .L0 
     /tmp/ccJ9OeMN.s:487    .text.bkp_interrupt_flag_get:000000000000000e .L0 
     /tmp/ccJ9OeMN.s:506    .text.bkp_interrupt_flag_clear:0000000000000012 .L0 
                     .debug_frame:0000000000000000 .L0 
     /tmp/ccJ9OeMN.s:67     .text.bkp_data_write:000000000000001c .L5
     /tmp/ccJ9OeMN.s:84     .text.bkp_data_write:0000000000000036 .L4
     /tmp/ccJ9OeMN.s:130    .text.bkp_data_read:0000000000000022 .L8
     /tmp/ccJ9OeMN.s:124    .text.bkp_data_read:0000000000000020 .L9
     /tmp/ccJ9OeMN.s:1122   .debug_abbrev:0000000000000000 .Ldebug_abbrev0
     /tmp/ccJ9OeMN.s:1928   .debug_str:000000000000031d .LASF85
     /tmp/ccJ9OeMN.s:1884   .debug_str:0000000000000182 .LASF86
     /tmp/ccJ9OeMN.s:1988   .debug_str:0000000000000520 .LASF87
     /tmp/ccJ9OeMN.s:1790   .debug_ranges:0000000000000000 .Ldebug_ranges0
     /tmp/ccJ9OeMN.s:1830   .debug_line:0000000000000000 .Ldebug_line0
     /tmp/ccJ9OeMN.s:1934   .debug_str:00000000000003b7 .LASF0
     /tmp/ccJ9OeMN.s:1876   .debug_str:0000000000000141 .LASF1
     /tmp/ccJ9OeMN.s:1890   .debug_str:00000000000001fe .LASF4
     /tmp/ccJ9OeMN.s:1904   .debug_str:0000000000000280 .LASF2
     /tmp/ccJ9OeMN.s:1848   .debug_str:0000000000000091 .LASF3
     /tmp/ccJ9OeMN.s:1846   .debug_str:0000000000000086 .LASF5
     /tmp/ccJ9OeMN.s:1958   .debug_str:0000000000000446 .LASF6
     /tmp/ccJ9OeMN.s:1882   .debug_str:0000000000000179 .LASF7
     /tmp/ccJ9OeMN.s:1978   .debug_str:00000000000004f2 .LASF8
     /tmp/ccJ9OeMN.s:1972   .debug_str:00000000000004c8 .LASF9
     /tmp/ccJ9OeMN.s:1880   .debug_str:000000000000016b .LASF10
     /tmp/ccJ9OeMN.s:1926   .debug_str:0000000000000306 .LASF11
GAS LISTING /tmp/ccJ9OeMN.s 			page 19


     /tmp/ccJ9OeMN.s:1986   .debug_str:0000000000000518 .LASF12
     /tmp/ccJ9OeMN.s:1936   .debug_str:00000000000003c4 .LASF13
     /tmp/ccJ9OeMN.s:1930   .debug_str:0000000000000397 .LASF14
     /tmp/ccJ9OeMN.s:1964   .debug_str:000000000000047b .LASF88
     /tmp/ccJ9OeMN.s:1984   .debug_str:0000000000000512 .LASF15
     /tmp/ccJ9OeMN.s:1996   .debug_str:0000000000000591 .LASF16
     /tmp/ccJ9OeMN.s:1900   .debug_str:0000000000000257 .LASF17
     /tmp/ccJ9OeMN.s:1938   .debug_str:00000000000003cd .LASF18
     /tmp/ccJ9OeMN.s:1940   .debug_str:00000000000003d8 .LASF19
     /tmp/ccJ9OeMN.s:1942   .debug_str:00000000000003e3 .LASF20
     /tmp/ccJ9OeMN.s:1944   .debug_str:00000000000003ee .LASF21
     /tmp/ccJ9OeMN.s:1946   .debug_str:00000000000003f9 .LASF22
     /tmp/ccJ9OeMN.s:1948   .debug_str:0000000000000404 .LASF23
     /tmp/ccJ9OeMN.s:1872   .debug_str:0000000000000119 .LASF24
     /tmp/ccJ9OeMN.s:1952   .debug_str:0000000000000425 .LASF25
     /tmp/ccJ9OeMN.s:1954   .debug_str:0000000000000430 .LASF26
     /tmp/ccJ9OeMN.s:1956   .debug_str:000000000000043b .LASF27
     /tmp/ccJ9OeMN.s:1992   .debug_str:0000000000000579 .LASF28
     /tmp/ccJ9OeMN.s:1994   .debug_str:0000000000000585 .LASF29
     /tmp/ccJ9OeMN.s:1842   .debug_str:0000000000000070 .LASF30
     /tmp/ccJ9OeMN.s:1998   .debug_str:000000000000059c .LASF31
     /tmp/ccJ9OeMN.s:2000   .debug_str:00000000000005a8 .LASF32
     /tmp/ccJ9OeMN.s:2002   .debug_str:00000000000005b4 .LASF33
     /tmp/ccJ9OeMN.s:2004   .debug_str:00000000000005c0 .LASF34
     /tmp/ccJ9OeMN.s:2006   .debug_str:00000000000005cc .LASF35
     /tmp/ccJ9OeMN.s:2008   .debug_str:00000000000005d8 .LASF36
     /tmp/ccJ9OeMN.s:2010   .debug_str:00000000000005e4 .LASF37
     /tmp/ccJ9OeMN.s:1852   .debug_str:00000000000000a1 .LASF38
     /tmp/ccJ9OeMN.s:1854   .debug_str:00000000000000ad .LASF39
     /tmp/ccJ9OeMN.s:1856   .debug_str:00000000000000b9 .LASF40
     /tmp/ccJ9OeMN.s:1858   .debug_str:00000000000000c5 .LASF41
     /tmp/ccJ9OeMN.s:1860   .debug_str:00000000000000d1 .LASF42
     /tmp/ccJ9OeMN.s:1862   .debug_str:00000000000000dd .LASF43
     /tmp/ccJ9OeMN.s:1864   .debug_str:00000000000000e9 .LASF44
     /tmp/ccJ9OeMN.s:1866   .debug_str:00000000000000f5 .LASF45
     /tmp/ccJ9OeMN.s:1868   .debug_str:0000000000000101 .LASF46
     /tmp/ccJ9OeMN.s:1870   .debug_str:000000000000010d .LASF47
     /tmp/ccJ9OeMN.s:1906   .debug_str:000000000000028e .LASF48
     /tmp/ccJ9OeMN.s:1908   .debug_str:000000000000029a .LASF49
     /tmp/ccJ9OeMN.s:1910   .debug_str:00000000000002a6 .LASF50
     /tmp/ccJ9OeMN.s:1912   .debug_str:00000000000002b2 .LASF51
     /tmp/ccJ9OeMN.s:1914   .debug_str:00000000000002be .LASF52
     /tmp/ccJ9OeMN.s:1916   .debug_str:00000000000002ca .LASF53
     /tmp/ccJ9OeMN.s:1918   .debug_str:00000000000002d6 .LASF54
     /tmp/ccJ9OeMN.s:1920   .debug_str:00000000000002e2 .LASF55
     /tmp/ccJ9OeMN.s:1922   .debug_str:00000000000002ee .LASF56
     /tmp/ccJ9OeMN.s:1924   .debug_str:00000000000002fa .LASF57
     /tmp/ccJ9OeMN.s:1974   .debug_str:00000000000004da .LASF58
     /tmp/ccJ9OeMN.s:1976   .debug_str:00000000000004e6 .LASF59
     /tmp/ccJ9OeMN.s:1962   .debug_str:0000000000000464 .LASF60
     /tmp/ccJ9OeMN.s:1838   .debug_str:0000000000000047 .LASF61
     /tmp/ccJ9OeMN.s:492    .text.bkp_interrupt_flag_clear:0000000000000000 .LFB19
     /tmp/ccJ9OeMN.s:504    .text.bkp_interrupt_flag_clear:0000000000000012 .LFE19
     /tmp/ccJ9OeMN.s:1932   .debug_str:00000000000003a0 .LASF63
     /tmp/ccJ9OeMN.s:472    .text.bkp_interrupt_flag_get:0000000000000000 .LFB18
     /tmp/ccJ9OeMN.s:485    .text.bkp_interrupt_flag_get:000000000000000e .LFE18
     /tmp/ccJ9OeMN.s:1980   .debug_str:00000000000004fd .LASF62
GAS LISTING /tmp/ccJ9OeMN.s 			page 20


     /tmp/ccJ9OeMN.s:453    .text.bkp_flag_clear:0000000000000000 .LFB17
     /tmp/ccJ9OeMN.s:465    .text.bkp_flag_clear:0000000000000012 .LFE17
     /tmp/ccJ9OeMN.s:1894   .debug_str:000000000000021e .LASF64
     /tmp/ccJ9OeMN.s:433    .text.bkp_flag_get:0000000000000000 .LFB16
     /tmp/ccJ9OeMN.s:446    .text.bkp_flag_get:000000000000000e .LFE16
     /tmp/ccJ9OeMN.s:1950   .debug_str:000000000000040f .LASF65
     /tmp/ccJ9OeMN.s:410    .text.bkp_interrupt_disable:0000000000000000 .LFB15
     /tmp/ccJ9OeMN.s:426    .text.bkp_interrupt_disable:0000000000000018 .LFE15
     /tmp/ccJ9OeMN.s:1836   .debug_str:0000000000000032 .LASF66
     /tmp/ccJ9OeMN.s:391    .text.bkp_interrupt_enable:0000000000000000 .LFB14
     /tmp/ccJ9OeMN.s:403    .text.bkp_interrupt_enable:0000000000000012 .LFE14
     /tmp/ccJ9OeMN.s:1886   .debug_str:00000000000001c6 .LASF69
     /tmp/ccJ9OeMN.s:358    .text.bkp_tamper_active_level_set:0000000000000000 .LFB13
     /tmp/ccJ9OeMN.s:384    .text.bkp_tamper_active_level_set:0000000000000016 .LFE13
     /tmp/ccJ9OeMN.s:1982   .debug_str:000000000000050c .LASF71
     /tmp/ccJ9OeMN.s:1534   .debug_loc:0000000000000000 .LLST8
     /tmp/ccJ9OeMN.s:1548   .debug_loc:0000000000000021 .LLST9
     /tmp/ccJ9OeMN.s:1902   .debug_str:0000000000000263 .LASF67
     /tmp/ccJ9OeMN.s:335    .text.bkp_tamper_detection_disable:0000000000000000 .LFB12
     /tmp/ccJ9OeMN.s:351    .text.bkp_tamper_detection_disable:0000000000000018 .LFE12
     /tmp/ccJ9OeMN.s:1888   .debug_str:00000000000001e2 .LASF68
     /tmp/ccJ9OeMN.s:316    .text.bkp_tamper_detection_enable:0000000000000000 .LFB11
     /tmp/ccJ9OeMN.s:328    .text.bkp_tamper_detection_enable:0000000000000012 .LFE11
     /tmp/ccJ9OeMN.s:1878   .debug_str:000000000000014d .LASF70
     /tmp/ccJ9OeMN.s:279    .text.bkp_rtc_calibration_value_set:0000000000000000 .LFB10
     /tmp/ccJ9OeMN.s:309    .text.bkp_rtc_calibration_value_set:000000000000001c .LFE10
     /tmp/ccJ9OeMN.s:1850   .debug_str:000000000000009b .LASF72
     /tmp/ccJ9OeMN.s:1564   .debug_loc:000000000000004b .LLST6
     /tmp/ccJ9OeMN.s:1578   .debug_loc:000000000000006c .LLST7
     /tmp/ccJ9OeMN.s:1968   .debug_str:0000000000000490 .LASF73
     /tmp/ccJ9OeMN.s:246    .text.bkp_rtc_output_select:0000000000000000 .LFB9
     /tmp/ccJ9OeMN.s:272    .text.bkp_rtc_output_select:0000000000000018 .LFE9
     /tmp/ccJ9OeMN.s:1844   .debug_str:000000000000007c .LASF74
     /tmp/ccJ9OeMN.s:1594   .debug_loc:000000000000008f .LLST4
     /tmp/ccJ9OeMN.s:1608   .debug_loc:00000000000000b0 .LLST5
     /tmp/ccJ9OeMN.s:1896   .debug_str:000000000000022b .LASF75
     /tmp/ccJ9OeMN.s:223    .text.bkp_rtc_signal_output_disable:0000000000000000 .LFB8
     /tmp/ccJ9OeMN.s:239    .text.bkp_rtc_signal_output_disable:000000000000001a .LFE8
     /tmp/ccJ9OeMN.s:1874   .debug_str:0000000000000124 .LASF76
     /tmp/ccJ9OeMN.s:204    .text.bkp_rtc_signal_output_enable:0000000000000000 .LFB7
     /tmp/ccJ9OeMN.s:216    .text.bkp_rtc_signal_output_enable:0000000000000012 .LFE7
     /tmp/ccJ9OeMN.s:1834   .debug_str:000000000000000f .LASF77
     /tmp/ccJ9OeMN.s:181    .text.bkp_rtc_calibration_output_disable:0000000000000000 .LFB6
     /tmp/ccJ9OeMN.s:197    .text.bkp_rtc_calibration_output_disable:000000000000001a .LFE6
     /tmp/ccJ9OeMN.s:1970   .debug_str:00000000000004a6 .LASF78
     /tmp/ccJ9OeMN.s:162    .text.bkp_rtc_calibration_output_enable:0000000000000000 .LFB5
     /tmp/ccJ9OeMN.s:174    .text.bkp_rtc_calibration_output_enable:0000000000000012 .LFE5
     /tmp/ccJ9OeMN.s:1898   .debug_str:0000000000000249 .LASF89
     /tmp/ccJ9OeMN.s:95     .text.bkp_data_read:0000000000000000 .LFB4
     /tmp/ccJ9OeMN.s:155    .text.bkp_data_read:0000000000000044 .LFE4
     /tmp/ccJ9OeMN.s:1840   .debug_str:0000000000000060 .LASF79
     /tmp/ccJ9OeMN.s:1624   .debug_loc:00000000000000da .LLST2
     /tmp/ccJ9OeMN.s:1966   .debug_str:000000000000048b .LASF80
     /tmp/ccJ9OeMN.s:1668   .debug_loc:0000000000000147 .LLST3
     /tmp/ccJ9OeMN.s:1832   .debug_str:0000000000000000 .LASF81
     /tmp/ccJ9OeMN.s:46     .text.bkp_data_write:0000000000000000 .LFB3
     /tmp/ccJ9OeMN.s:88     .text.bkp_data_write:0000000000000038 .LFE3
GAS LISTING /tmp/ccJ9OeMN.s 			page 21


     /tmp/ccJ9OeMN.s:1689   .debug_loc:000000000000017d .LLST1
     /tmp/ccJ9OeMN.s:1960   .debug_str:0000000000000459 .LASF82
     /tmp/ccJ9OeMN.s:14     .text.bkp_deinit:0000000000000000 .LFB2
     /tmp/ccJ9OeMN.s:39     .text.bkp_deinit:0000000000000018 .LFE2
     /tmp/ccJ9OeMN.s:1725   .debug_loc:00000000000001d8 .LLST0
     /tmp/ccJ9OeMN.s:27     .text.bkp_deinit:000000000000000c .LVL0
     /tmp/ccJ9OeMN.s:37     .text.bkp_deinit:0000000000000018 .LVL1
     /tmp/ccJ9OeMN.s:1990   .debug_str:0000000000000564 .LASF83
     /tmp/ccJ9OeMN.s:1892   .debug_str:0000000000000208 .LASF84
     /tmp/ccJ9OeMN.s:361    .text.bkp_tamper_active_level_set:0000000000000000 .LVL26
     /tmp/ccJ9OeMN.s:377    .text.bkp_tamper_active_level_set:0000000000000010 .LVL29
     /tmp/ccJ9OeMN.s:369    .text.bkp_tamper_active_level_set:000000000000000c .LVL27
     /tmp/ccJ9OeMN.s:282    .text.bkp_rtc_calibration_value_set:0000000000000000 .LVL21
     /tmp/ccJ9OeMN.s:290    .text.bkp_rtc_calibration_value_set:000000000000000c .LVL22
     /tmp/ccJ9OeMN.s:294    .text.bkp_rtc_calibration_value_set:0000000000000010 .LVL23
     /tmp/ccJ9OeMN.s:299    .text.bkp_rtc_calibration_value_set:0000000000000014 .LVL24
     /tmp/ccJ9OeMN.s:302    .text.bkp_rtc_calibration_value_set:0000000000000016 .LVL25
     /tmp/ccJ9OeMN.s:249    .text.bkp_rtc_output_select:0000000000000000 .LVL17
     /tmp/ccJ9OeMN.s:265    .text.bkp_rtc_output_select:0000000000000012 .LVL20
     /tmp/ccJ9OeMN.s:257    .text.bkp_rtc_output_select:000000000000000c .LVL18
     /tmp/ccJ9OeMN.s:98     .text.bkp_data_read:0000000000000000 .LVL8
     /tmp/ccJ9OeMN.s:112    .text.bkp_data_read:0000000000000010 .LVL9
     /tmp/ccJ9OeMN.s:116    .text.bkp_data_read:0000000000000016 .LVL10
     /tmp/ccJ9OeMN.s:118    .text.bkp_data_read:0000000000000018 .LVL11
     /tmp/ccJ9OeMN.s:123    .text.bkp_data_read:0000000000000020 .LVL12
     /tmp/ccJ9OeMN.s:129    .text.bkp_data_read:0000000000000022 .LVL13
     /tmp/ccJ9OeMN.s:138    .text.bkp_data_read:000000000000002a .LVL14
     /tmp/ccJ9OeMN.s:146    .text.bkp_data_read:0000000000000038 .LVL15
     /tmp/ccJ9OeMN.s:152    .text.bkp_data_read:0000000000000042 .LVL16
     /tmp/ccJ9OeMN.s:49     .text.bkp_data_write:0000000000000000 .LVL2
     /tmp/ccJ9OeMN.s:60     .text.bkp_data_write:0000000000000014 .LVL3
     /tmp/ccJ9OeMN.s:62     .text.bkp_data_write:0000000000000016 .LVL4
     /tmp/ccJ9OeMN.s:66     .text.bkp_data_write:000000000000001c .LVL5
     /tmp/ccJ9OeMN.s:78     .text.bkp_data_write:0000000000000030 .LVL6
     /tmp/ccJ9OeMN.s:80     .text.bkp_data_write:0000000000000032 .LVL7
     /tmp/ccJ9OeMN.s:21     .text.bkp_deinit:0000000000000002 .LCFI0
     /tmp/ccJ9OeMN.s:33     .text.bkp_deinit:0000000000000010 .LCFI1
     /tmp/ccJ9OeMN.s:515    .debug_info:0000000000000000 .Ldebug_info0

UNDEFINED SYMBOLS
rcu_bkp_reset_enable
rcu_bkp_reset_disable
