GAS LISTING /tmp/cc4RcUf0.s 			page 1


   1              		.file	"gd32vf103_gpio.c"
   2              		.option nopic
   3              		.attribute arch, "rv32i2p0_m2p0_a2p0_c2p0"
   4              		.attribute unaligned_access, 0
   5              		.attribute stack_align, 16
   6              		.text
   7              	.Ltext0:
   8              		.cfi_sections	.debug_frame
   9              		.section	.text.gpio_deinit,"ax",@progbits
  10              		.align	1
  11              		.globl	gpio_deinit
  13              	gpio_deinit:
  14              	.LFB2:
  15              		.file 1 "../../firmware/GD32VF103_standard_peripheral/Source/gd32vf103_gpio.c"
   1:../../firmware/GD32VF103_standard_peripheral/Source/gd32vf103_gpio.c **** /*!
   2:../../firmware/GD32VF103_standard_peripheral/Source/gd32vf103_gpio.c ****     \file    gd32vf103_gpio.c
   3:../../firmware/GD32VF103_standard_peripheral/Source/gd32vf103_gpio.c ****     \brief   GPIO driver
   4:../../firmware/GD32VF103_standard_peripheral/Source/gd32vf103_gpio.c **** 
   5:../../firmware/GD32VF103_standard_peripheral/Source/gd32vf103_gpio.c ****     \version 2019-06-05, V1.0.0, firmware for GD32VF103
   6:../../firmware/GD32VF103_standard_peripheral/Source/gd32vf103_gpio.c ****     \version 2020-08-04, V1.1.0, firmware for GD32VF103
   7:../../firmware/GD32VF103_standard_peripheral/Source/gd32vf103_gpio.c **** */
   8:../../firmware/GD32VF103_standard_peripheral/Source/gd32vf103_gpio.c **** 
   9:../../firmware/GD32VF103_standard_peripheral/Source/gd32vf103_gpio.c **** /*
  10:../../firmware/GD32VF103_standard_peripheral/Source/gd32vf103_gpio.c ****     Copyright (c) 2020, GigaDevice Semiconductor Inc.
  11:../../firmware/GD32VF103_standard_peripheral/Source/gd32vf103_gpio.c **** 
  12:../../firmware/GD32VF103_standard_peripheral/Source/gd32vf103_gpio.c ****     Redistribution and use in source and binary forms, with or without modification, 
  13:../../firmware/GD32VF103_standard_peripheral/Source/gd32vf103_gpio.c **** are permitted provided that the following conditions are met:
  14:../../firmware/GD32VF103_standard_peripheral/Source/gd32vf103_gpio.c **** 
  15:../../firmware/GD32VF103_standard_peripheral/Source/gd32vf103_gpio.c ****     1. Redistributions of source code must retain the above copyright notice, this 
  16:../../firmware/GD32VF103_standard_peripheral/Source/gd32vf103_gpio.c ****        list of conditions and the following disclaimer.
  17:../../firmware/GD32VF103_standard_peripheral/Source/gd32vf103_gpio.c ****     2. Redistributions in binary form must reproduce the above copyright notice, 
  18:../../firmware/GD32VF103_standard_peripheral/Source/gd32vf103_gpio.c ****        this list of conditions and the following disclaimer in the documentation 
  19:../../firmware/GD32VF103_standard_peripheral/Source/gd32vf103_gpio.c ****        and/or other materials provided with the distribution.
  20:../../firmware/GD32VF103_standard_peripheral/Source/gd32vf103_gpio.c ****     3. Neither the name of the copyright holder nor the names of its contributors 
  21:../../firmware/GD32VF103_standard_peripheral/Source/gd32vf103_gpio.c ****        may be used to endorse or promote products derived from this software without 
  22:../../firmware/GD32VF103_standard_peripheral/Source/gd32vf103_gpio.c ****        specific prior written permission.
  23:../../firmware/GD32VF103_standard_peripheral/Source/gd32vf103_gpio.c **** 
  24:../../firmware/GD32VF103_standard_peripheral/Source/gd32vf103_gpio.c ****     THIS SOFTWARE IS PROVIDED BY THE COPYRIGHT HOLDERS AND CONTRIBUTORS "AS IS" 
  25:../../firmware/GD32VF103_standard_peripheral/Source/gd32vf103_gpio.c **** AND ANY EXPRESS OR IMPLIED WARRANTIES, INCLUDING, BUT NOT LIMITED TO, THE IMPLIED 
  26:../../firmware/GD32VF103_standard_peripheral/Source/gd32vf103_gpio.c **** WARRANTIES OF MERCHANTABILITY AND FITNESS FOR A PARTICULAR PURPOSE ARE DISCLAIMED. 
  27:../../firmware/GD32VF103_standard_peripheral/Source/gd32vf103_gpio.c **** IN NO EVENT SHALL THE COPYRIGHT HOLDER OR CONTRIBUTORS BE LIABLE FOR ANY DIRECT, 
  28:../../firmware/GD32VF103_standard_peripheral/Source/gd32vf103_gpio.c **** INDIRECT, INCIDENTAL, SPECIAL, EXEMPLARY, OR CONSEQUENTIAL DAMAGES (INCLUDING, BUT 
  29:../../firmware/GD32VF103_standard_peripheral/Source/gd32vf103_gpio.c **** NOT LIMITED TO, PROCUREMENT OF SUBSTITUTE GOODS OR SERVICES; LOSS OF USE, DATA, OR 
  30:../../firmware/GD32VF103_standard_peripheral/Source/gd32vf103_gpio.c **** PROFITS; OR BUSINESS INTERRUPTION) HOWEVER CAUSED AND ON ANY THEORY OF LIABILITY, 
  31:../../firmware/GD32VF103_standard_peripheral/Source/gd32vf103_gpio.c **** WHETHER IN CONTRACT, STRICT LIABILITY, OR TORT (INCLUDING NEGLIGENCE OR OTHERWISE) 
  32:../../firmware/GD32VF103_standard_peripheral/Source/gd32vf103_gpio.c **** ARISING IN ANY WAY OUT OF THE USE OF THIS SOFTWARE, EVEN IF ADVISED OF THE POSSIBILITY 
  33:../../firmware/GD32VF103_standard_peripheral/Source/gd32vf103_gpio.c **** OF SUCH DAMAGE.
  34:../../firmware/GD32VF103_standard_peripheral/Source/gd32vf103_gpio.c **** */
  35:../../firmware/GD32VF103_standard_peripheral/Source/gd32vf103_gpio.c **** 
  36:../../firmware/GD32VF103_standard_peripheral/Source/gd32vf103_gpio.c **** #include "gd32vf103_gpio.h"
  37:../../firmware/GD32VF103_standard_peripheral/Source/gd32vf103_gpio.c **** 
  38:../../firmware/GD32VF103_standard_peripheral/Source/gd32vf103_gpio.c **** #define AFIO_EXTI_SOURCE_MASK              ((uint8_t)0x03U)         /*!< AFIO exti source selection
  39:../../firmware/GD32VF103_standard_peripheral/Source/gd32vf103_gpio.c **** #define AFIO_EXTI_SOURCE_FIELDS            ((uint8_t)0x04U)         /*!< select AFIO exti source re
  40:../../firmware/GD32VF103_standard_peripheral/Source/gd32vf103_gpio.c **** #define LSB_16BIT_MASK                     ((uint16_t)0xFFFFU)      /*!< LSB 16-bit mask */
  41:../../firmware/GD32VF103_standard_peripheral/Source/gd32vf103_gpio.c **** #define PCF_POSITION_MASK                  ((uint32_t)0x000F0000U)  /*!< AFIO_PCF register position
  42:../../firmware/GD32VF103_standard_peripheral/Source/gd32vf103_gpio.c **** #define PCF_SWJCFG_MASK                    ((uint32_t)0xF0FFFFFFU)  /*!< AFIO_PCF register SWJCFG m
  43:../../firmware/GD32VF103_standard_peripheral/Source/gd32vf103_gpio.c **** #define PCF_LOCATION1_MASK                 ((uint32_t)0x00200000U)  /*!< AFIO_PCF register location
GAS LISTING /tmp/cc4RcUf0.s 			page 2


  44:../../firmware/GD32VF103_standard_peripheral/Source/gd32vf103_gpio.c **** #define PCF_LOCATION2_MASK                 ((uint32_t)0x00100000U)  /*!< AFIO_PCF register location
  45:../../firmware/GD32VF103_standard_peripheral/Source/gd32vf103_gpio.c **** #define AFIO_PCF1_FIELDS                   ((uint32_t)0x80000000U)  /*!< select AFIO_PCF1 register 
  46:../../firmware/GD32VF103_standard_peripheral/Source/gd32vf103_gpio.c **** #define GPIO_OUTPUT_PORT_OFFSET            ((uint32_t)4U)           /*!< GPIO event output port off
  47:../../firmware/GD32VF103_standard_peripheral/Source/gd32vf103_gpio.c **** 
  48:../../firmware/GD32VF103_standard_peripheral/Source/gd32vf103_gpio.c **** /*!
  49:../../firmware/GD32VF103_standard_peripheral/Source/gd32vf103_gpio.c ****     \brief      reset GPIO port
  50:../../firmware/GD32VF103_standard_peripheral/Source/gd32vf103_gpio.c ****     \param[in]  gpio_periph: GPIOx(x = A,B,C,D,E)
  51:../../firmware/GD32VF103_standard_peripheral/Source/gd32vf103_gpio.c ****     \param[out] none
  52:../../firmware/GD32VF103_standard_peripheral/Source/gd32vf103_gpio.c ****     \retval     none
  53:../../firmware/GD32VF103_standard_peripheral/Source/gd32vf103_gpio.c **** */
  54:../../firmware/GD32VF103_standard_peripheral/Source/gd32vf103_gpio.c **** void gpio_deinit(uint32_t gpio_periph)
  55:../../firmware/GD32VF103_standard_peripheral/Source/gd32vf103_gpio.c **** {
  16              		.loc 1 55 1
  17              		.cfi_startproc
  18              	.LVL0:
  56:../../firmware/GD32VF103_standard_peripheral/Source/gd32vf103_gpio.c ****     switch (gpio_periph) {
  19              		.loc 1 56 5
  55:../../firmware/GD32VF103_standard_peripheral/Source/gd32vf103_gpio.c ****     switch (gpio_periph) {
  20              		.loc 1 55 1 is_stmt 0
  21 0000 4111     		addi	sp,sp,-16
  22              	.LCFI0:
  23              		.cfi_def_cfa_offset 16
  24 0002 06C6     		sw	ra,12(sp)
  25              		.cfi_offset 1, -4
  26              		.loc 1 56 5
  27 0004 B7170140 		li	a5,1073811456
  28 0008 6302F506 		beq	a0,a5,.L2
  29 000c 63FAA702 		bleu	a0,a5,.L11
  30 0010 93870740 		addi	a5,a5,1024
  31 0014 630AF506 		beq	a0,a5,.L7
  32 0018 B7270140 		li	a5,1073815552
  33 001c 93870780 		addi	a5,a5,-2048
  34 0020 6312F508 		bne	a0,a5,.L1
  57:../../firmware/GD32VF103_standard_peripheral/Source/gd32vf103_gpio.c ****     case GPIOA:
  58:../../firmware/GD32VF103_standard_peripheral/Source/gd32vf103_gpio.c ****         /* reset GPIOA */
  59:../../firmware/GD32VF103_standard_peripheral/Source/gd32vf103_gpio.c ****         rcu_periph_reset_enable(RCU_GPIOARST);
  60:../../firmware/GD32VF103_standard_peripheral/Source/gd32vf103_gpio.c ****         rcu_periph_reset_disable(RCU_GPIOARST);
  61:../../firmware/GD32VF103_standard_peripheral/Source/gd32vf103_gpio.c ****         break;
  62:../../firmware/GD32VF103_standard_peripheral/Source/gd32vf103_gpio.c ****     case GPIOB:
  63:../../firmware/GD32VF103_standard_peripheral/Source/gd32vf103_gpio.c ****         /* reset GPIOB */
  64:../../firmware/GD32VF103_standard_peripheral/Source/gd32vf103_gpio.c ****         rcu_periph_reset_enable(RCU_GPIOBRST);
  65:../../firmware/GD32VF103_standard_peripheral/Source/gd32vf103_gpio.c ****         rcu_periph_reset_disable(RCU_GPIOBRST);
  66:../../firmware/GD32VF103_standard_peripheral/Source/gd32vf103_gpio.c ****         break;
  67:../../firmware/GD32VF103_standard_peripheral/Source/gd32vf103_gpio.c ****     case GPIOC:
  68:../../firmware/GD32VF103_standard_peripheral/Source/gd32vf103_gpio.c ****         /* reset GPIOC */
  69:../../firmware/GD32VF103_standard_peripheral/Source/gd32vf103_gpio.c ****         rcu_periph_reset_enable(RCU_GPIOCRST);
  70:../../firmware/GD32VF103_standard_peripheral/Source/gd32vf103_gpio.c ****         rcu_periph_reset_disable(RCU_GPIOCRST);
  71:../../firmware/GD32VF103_standard_peripheral/Source/gd32vf103_gpio.c ****         break;
  72:../../firmware/GD32VF103_standard_peripheral/Source/gd32vf103_gpio.c ****     case GPIOD:
  73:../../firmware/GD32VF103_standard_peripheral/Source/gd32vf103_gpio.c ****         /* reset GPIOD */
  74:../../firmware/GD32VF103_standard_peripheral/Source/gd32vf103_gpio.c ****         rcu_periph_reset_enable(RCU_GPIODRST);
  75:../../firmware/GD32VF103_standard_peripheral/Source/gd32vf103_gpio.c ****         rcu_periph_reset_disable(RCU_GPIODRST);
  76:../../firmware/GD32VF103_standard_peripheral/Source/gd32vf103_gpio.c ****         break;
  77:../../firmware/GD32VF103_standard_peripheral/Source/gd32vf103_gpio.c ****     case GPIOE:
  78:../../firmware/GD32VF103_standard_peripheral/Source/gd32vf103_gpio.c ****         /* reset GPIOE */
  79:../../firmware/GD32VF103_standard_peripheral/Source/gd32vf103_gpio.c ****         rcu_periph_reset_enable(RCU_GPIOERST);
  35              		.loc 1 79 9 is_stmt 1
GAS LISTING /tmp/cc4RcUf0.s 			page 3


  36 0024 13056030 		li	a0,774
  37              	.LVL1:
  38 0028 97000000 		call	rcu_periph_reset_enable
  38      E7800000 
  39              	.LVL2:
  80:../../firmware/GD32VF103_standard_peripheral/Source/gd32vf103_gpio.c ****         rcu_periph_reset_disable(RCU_GPIOERST);
  40              		.loc 1 80 9
  81:../../firmware/GD32VF103_standard_peripheral/Source/gd32vf103_gpio.c ****         break;
  82:../../firmware/GD32VF103_standard_peripheral/Source/gd32vf103_gpio.c ****     default:
  83:../../firmware/GD32VF103_standard_peripheral/Source/gd32vf103_gpio.c ****         break;
  84:../../firmware/GD32VF103_standard_peripheral/Source/gd32vf103_gpio.c ****     }
  85:../../firmware/GD32VF103_standard_peripheral/Source/gd32vf103_gpio.c **** }
  41              		.loc 1 85 1 is_stmt 0
  42 0030 B240     		lw	ra,12(sp)
  43              		.cfi_remember_state
  44              		.cfi_restore 1
  80:../../firmware/GD32VF103_standard_peripheral/Source/gd32vf103_gpio.c ****         rcu_periph_reset_disable(RCU_GPIOERST);
  45              		.loc 1 80 9
  46 0032 13056030 		li	a0,774
  47              		.loc 1 85 1
  48 0036 4101     		addi	sp,sp,16
  49              	.LCFI1:
  50              		.cfi_def_cfa_offset 0
  80:../../firmware/GD32VF103_standard_peripheral/Source/gd32vf103_gpio.c ****         rcu_periph_reset_disable(RCU_GPIOERST);
  51              		.loc 1 80 9
  52 0038 17030000 		tail	rcu_periph_reset_disable
  52      67000300 
  53              	.LVL3:
  54              	.L11:
  55              	.LCFI2:
  56              		.cfi_restore_state
  56:../../firmware/GD32VF103_standard_peripheral/Source/gd32vf103_gpio.c ****     case GPIOA:
  57              		.loc 1 56 5
  58 0040 13870780 		addi	a4,a5,-2048
  59 0044 6303E506 		beq	a0,a4,.L4
  60 0048 938707C0 		addi	a5,a5,-1024
  61 004c 631CF504 		bne	a0,a5,.L1
  64:../../firmware/GD32VF103_standard_peripheral/Source/gd32vf103_gpio.c ****         rcu_periph_reset_disable(RCU_GPIOBRST);
  62              		.loc 1 64 9 is_stmt 1
  63 0050 13053030 		li	a0,771
  64              	.LVL4:
  65 0054 97000000 		call	rcu_periph_reset_enable
  65      E7800000 
  66              	.LVL5:
  65:../../firmware/GD32VF103_standard_peripheral/Source/gd32vf103_gpio.c ****         break;
  67              		.loc 1 65 9
  68              		.loc 1 85 1 is_stmt 0
  69 005c B240     		lw	ra,12(sp)
  70              		.cfi_remember_state
  71              		.cfi_restore 1
  65:../../firmware/GD32VF103_standard_peripheral/Source/gd32vf103_gpio.c ****         break;
  72              		.loc 1 65 9
  73 005e 13053030 		li	a0,771
  74              		.loc 1 85 1
  75 0062 4101     		addi	sp,sp,16
  76              	.LCFI3:
  77              		.cfi_def_cfa_offset 0
GAS LISTING /tmp/cc4RcUf0.s 			page 4


  65:../../firmware/GD32VF103_standard_peripheral/Source/gd32vf103_gpio.c ****         break;
  78              		.loc 1 65 9
  79 0064 17030000 		tail	rcu_periph_reset_disable
  79      67000300 
  80              	.LVL6:
  81              	.L2:
  82              	.LCFI4:
  83              		.cfi_restore_state
  69:../../firmware/GD32VF103_standard_peripheral/Source/gd32vf103_gpio.c ****         rcu_periph_reset_disable(RCU_GPIOCRST);
  84              		.loc 1 69 9 is_stmt 1
  85 006c 13054030 		li	a0,772
  86              	.LVL7:
  87 0070 97000000 		call	rcu_periph_reset_enable
  87      E7800000 
  88              	.LVL8:
  70:../../firmware/GD32VF103_standard_peripheral/Source/gd32vf103_gpio.c ****         break;
  89              		.loc 1 70 9
  90              		.loc 1 85 1 is_stmt 0
  91 0078 B240     		lw	ra,12(sp)
  92              		.cfi_remember_state
  93              		.cfi_restore 1
  70:../../firmware/GD32VF103_standard_peripheral/Source/gd32vf103_gpio.c ****         break;
  94              		.loc 1 70 9
  95 007a 13054030 		li	a0,772
  96              		.loc 1 85 1
  97 007e 4101     		addi	sp,sp,16
  98              	.LCFI5:
  99              		.cfi_def_cfa_offset 0
  70:../../firmware/GD32VF103_standard_peripheral/Source/gd32vf103_gpio.c ****         break;
 100              		.loc 1 70 9
 101 0080 17030000 		tail	rcu_periph_reset_disable
 101      67000300 
 102              	.LVL9:
 103              	.L7:
 104              	.LCFI6:
 105              		.cfi_restore_state
  74:../../firmware/GD32VF103_standard_peripheral/Source/gd32vf103_gpio.c ****         rcu_periph_reset_disable(RCU_GPIODRST);
 106              		.loc 1 74 9 is_stmt 1
 107 0088 13055030 		li	a0,773
 108              	.LVL10:
 109 008c 97000000 		call	rcu_periph_reset_enable
 109      E7800000 
 110              	.LVL11:
  75:../../firmware/GD32VF103_standard_peripheral/Source/gd32vf103_gpio.c ****         break;
 111              		.loc 1 75 9
 112              		.loc 1 85 1 is_stmt 0
 113 0094 B240     		lw	ra,12(sp)
 114              		.cfi_remember_state
 115              		.cfi_restore 1
  75:../../firmware/GD32VF103_standard_peripheral/Source/gd32vf103_gpio.c ****         break;
 116              		.loc 1 75 9
 117 0096 13055030 		li	a0,773
 118              		.loc 1 85 1
 119 009a 4101     		addi	sp,sp,16
 120              	.LCFI7:
 121              		.cfi_def_cfa_offset 0
  75:../../firmware/GD32VF103_standard_peripheral/Source/gd32vf103_gpio.c ****         break;
GAS LISTING /tmp/cc4RcUf0.s 			page 5


 122              		.loc 1 75 9
 123 009c 17030000 		tail	rcu_periph_reset_disable
 123      67000300 
 124              	.LVL12:
 125              	.L1:
 126              	.LCFI8:
 127              		.cfi_restore_state
 128              		.loc 1 85 1
 129 00a4 B240     		lw	ra,12(sp)
 130              		.cfi_remember_state
 131              		.cfi_restore 1
 132 00a6 4101     		addi	sp,sp,16
 133              	.LCFI9:
 134              		.cfi_def_cfa_offset 0
 135 00a8 8280     		jr	ra
 136              	.L4:
 137              	.LCFI10:
 138              		.cfi_restore_state
  59:../../firmware/GD32VF103_standard_peripheral/Source/gd32vf103_gpio.c ****         rcu_periph_reset_disable(RCU_GPIOARST);
 139              		.loc 1 59 9 is_stmt 1
 140 00aa 13052030 		li	a0,770
 141              	.LVL13:
 142 00ae 97000000 		call	rcu_periph_reset_enable
 142      E7800000 
 143              	.LVL14:
  60:../../firmware/GD32VF103_standard_peripheral/Source/gd32vf103_gpio.c ****         break;
 144              		.loc 1 60 9
 145              		.loc 1 85 1 is_stmt 0
 146 00b6 B240     		lw	ra,12(sp)
 147              		.cfi_restore 1
  60:../../firmware/GD32VF103_standard_peripheral/Source/gd32vf103_gpio.c ****         break;
 148              		.loc 1 60 9
 149 00b8 13052030 		li	a0,770
 150              		.loc 1 85 1
 151 00bc 4101     		addi	sp,sp,16
 152              	.LCFI11:
 153              		.cfi_def_cfa_offset 0
  60:../../firmware/GD32VF103_standard_peripheral/Source/gd32vf103_gpio.c ****         break;
 154              		.loc 1 60 9
 155 00be 17030000 		tail	rcu_periph_reset_disable
 155      67000300 
 156              	.LVL15:
 157              		.cfi_endproc
 158              	.LFE2:
 160              		.section	.text.gpio_afio_deinit,"ax",@progbits
 161              		.align	1
 162              		.globl	gpio_afio_deinit
 164              	gpio_afio_deinit:
 165              	.LFB3:
  86:../../firmware/GD32VF103_standard_peripheral/Source/gd32vf103_gpio.c **** 
  87:../../firmware/GD32VF103_standard_peripheral/Source/gd32vf103_gpio.c **** /*!
  88:../../firmware/GD32VF103_standard_peripheral/Source/gd32vf103_gpio.c ****     \brief      reset alternate function I/O(AFIO)
  89:../../firmware/GD32VF103_standard_peripheral/Source/gd32vf103_gpio.c ****     \param[in]  none
  90:../../firmware/GD32VF103_standard_peripheral/Source/gd32vf103_gpio.c ****     \param[out] none
  91:../../firmware/GD32VF103_standard_peripheral/Source/gd32vf103_gpio.c ****     \retval     none
  92:../../firmware/GD32VF103_standard_peripheral/Source/gd32vf103_gpio.c **** */
  93:../../firmware/GD32VF103_standard_peripheral/Source/gd32vf103_gpio.c **** void gpio_afio_deinit(void)
GAS LISTING /tmp/cc4RcUf0.s 			page 6


  94:../../firmware/GD32VF103_standard_peripheral/Source/gd32vf103_gpio.c **** {
 166              		.loc 1 94 1 is_stmt 1
 167              		.cfi_startproc
  95:../../firmware/GD32VF103_standard_peripheral/Source/gd32vf103_gpio.c ****     rcu_periph_reset_enable(RCU_AFRST);
 168              		.loc 1 95 5
  94:../../firmware/GD32VF103_standard_peripheral/Source/gd32vf103_gpio.c ****     rcu_periph_reset_enable(RCU_AFRST);
 169              		.loc 1 94 1 is_stmt 0
 170 0000 4111     		addi	sp,sp,-16
 171              	.LCFI12:
 172              		.cfi_def_cfa_offset 16
 173              		.loc 1 95 5
 174 0002 13050030 		li	a0,768
  94:../../firmware/GD32VF103_standard_peripheral/Source/gd32vf103_gpio.c ****     rcu_periph_reset_enable(RCU_AFRST);
 175              		.loc 1 94 1
 176 0006 06C6     		sw	ra,12(sp)
 177              		.cfi_offset 1, -4
 178              		.loc 1 95 5
 179 0008 97000000 		call	rcu_periph_reset_enable
 179      E7800000 
 180              	.LVL16:
  96:../../firmware/GD32VF103_standard_peripheral/Source/gd32vf103_gpio.c ****     rcu_periph_reset_disable(RCU_AFRST);
 181              		.loc 1 96 5 is_stmt 1
  97:../../firmware/GD32VF103_standard_peripheral/Source/gd32vf103_gpio.c **** }
 182              		.loc 1 97 1 is_stmt 0
 183 0010 B240     		lw	ra,12(sp)
 184              		.cfi_restore 1
  96:../../firmware/GD32VF103_standard_peripheral/Source/gd32vf103_gpio.c ****     rcu_periph_reset_disable(RCU_AFRST);
 185              		.loc 1 96 5
 186 0012 13050030 		li	a0,768
 187              		.loc 1 97 1
 188 0016 4101     		addi	sp,sp,16
 189              	.LCFI13:
 190              		.cfi_def_cfa_offset 0
  96:../../firmware/GD32VF103_standard_peripheral/Source/gd32vf103_gpio.c ****     rcu_periph_reset_disable(RCU_AFRST);
 191              		.loc 1 96 5
 192 0018 17030000 		tail	rcu_periph_reset_disable
 192      67000300 
 193              	.LVL17:
 194              		.cfi_endproc
 195              	.LFE3:
 197              		.section	.text.gpio_init,"ax",@progbits
 198              		.align	1
 199              		.globl	gpio_init
 201              	gpio_init:
 202              	.LFB4:
  98:../../firmware/GD32VF103_standard_peripheral/Source/gd32vf103_gpio.c **** 
  99:../../firmware/GD32VF103_standard_peripheral/Source/gd32vf103_gpio.c **** /*!
 100:../../firmware/GD32VF103_standard_peripheral/Source/gd32vf103_gpio.c ****     \brief      GPIO parameter initialization
 101:../../firmware/GD32VF103_standard_peripheral/Source/gd32vf103_gpio.c ****     \param[in]  gpio_periph: GPIOx(x = A,B,C,D,E)
 102:../../firmware/GD32VF103_standard_peripheral/Source/gd32vf103_gpio.c ****     \param[in]  mode: gpio pin mode
 103:../../firmware/GD32VF103_standard_peripheral/Source/gd32vf103_gpio.c ****                 only one parameter can be selected which is shown as below:
 104:../../firmware/GD32VF103_standard_peripheral/Source/gd32vf103_gpio.c ****       \arg        GPIO_MODE_AIN: analog input mode
 105:../../firmware/GD32VF103_standard_peripheral/Source/gd32vf103_gpio.c ****       \arg        GPIO_MODE_IN_FLOATING: floating input mode
 106:../../firmware/GD32VF103_standard_peripheral/Source/gd32vf103_gpio.c ****       \arg        GPIO_MODE_IPD: pull-down input mode
 107:../../firmware/GD32VF103_standard_peripheral/Source/gd32vf103_gpio.c ****       \arg        GPIO_MODE_IPU: pull-up input mode
 108:../../firmware/GD32VF103_standard_peripheral/Source/gd32vf103_gpio.c ****       \arg        GPIO_MODE_OUT_OD: GPIO output with open-drain
 109:../../firmware/GD32VF103_standard_peripheral/Source/gd32vf103_gpio.c ****       \arg        GPIO_MODE_OUT_PP: GPIO output with push-pull
GAS LISTING /tmp/cc4RcUf0.s 			page 7


 110:../../firmware/GD32VF103_standard_peripheral/Source/gd32vf103_gpio.c ****       \arg        GPIO_MODE_AF_OD: AFIO output with open-drain
 111:../../firmware/GD32VF103_standard_peripheral/Source/gd32vf103_gpio.c ****       \arg        GPIO_MODE_AF_PP: AFIO output with push-pull
 112:../../firmware/GD32VF103_standard_peripheral/Source/gd32vf103_gpio.c ****     \param[in]  speed: gpio output max speed value
 113:../../firmware/GD32VF103_standard_peripheral/Source/gd32vf103_gpio.c ****                 only one parameter can be selected which is shown as below:
 114:../../firmware/GD32VF103_standard_peripheral/Source/gd32vf103_gpio.c ****       \arg        GPIO_OSPEED_10MHZ: output max speed 10MHz
 115:../../firmware/GD32VF103_standard_peripheral/Source/gd32vf103_gpio.c ****       \arg        GPIO_OSPEED_2MHZ: output max speed 2MHz
 116:../../firmware/GD32VF103_standard_peripheral/Source/gd32vf103_gpio.c ****       \arg        GPIO_OSPEED_50MHZ: output max speed 50MHz
 117:../../firmware/GD32VF103_standard_peripheral/Source/gd32vf103_gpio.c ****     \param[in]  pin: GPIO pin
 118:../../firmware/GD32VF103_standard_peripheral/Source/gd32vf103_gpio.c ****                 one or more parameters can be selected which are shown as below:
 119:../../firmware/GD32VF103_standard_peripheral/Source/gd32vf103_gpio.c ****       \arg        GPIO_PIN_x(x=0..15), GPIO_PIN_ALL
 120:../../firmware/GD32VF103_standard_peripheral/Source/gd32vf103_gpio.c **** 
 121:../../firmware/GD32VF103_standard_peripheral/Source/gd32vf103_gpio.c ****     \param[out] none
 122:../../firmware/GD32VF103_standard_peripheral/Source/gd32vf103_gpio.c ****     \retval     none
 123:../../firmware/GD32VF103_standard_peripheral/Source/gd32vf103_gpio.c **** */
 124:../../firmware/GD32VF103_standard_peripheral/Source/gd32vf103_gpio.c **** void gpio_init(uint32_t gpio_periph, uint32_t mode, uint32_t speed,
 125:../../firmware/GD32VF103_standard_peripheral/Source/gd32vf103_gpio.c ****         uint32_t pin)
 126:../../firmware/GD32VF103_standard_peripheral/Source/gd32vf103_gpio.c **** {
 203              		.loc 1 126 1 is_stmt 1
 204              		.cfi_startproc
 205              	.LVL18:
 127:../../firmware/GD32VF103_standard_peripheral/Source/gd32vf103_gpio.c ****     uint16_t i;
 206              		.loc 1 127 5
 128:../../firmware/GD32VF103_standard_peripheral/Source/gd32vf103_gpio.c ****     uint32_t temp_mode = 0U;
 207              		.loc 1 128 5
 129:../../firmware/GD32VF103_standard_peripheral/Source/gd32vf103_gpio.c ****     uint32_t reg = 0U;
 208              		.loc 1 129 5
 130:../../firmware/GD32VF103_standard_peripheral/Source/gd32vf103_gpio.c **** 
 131:../../firmware/GD32VF103_standard_peripheral/Source/gd32vf103_gpio.c ****     /* GPIO mode configuration */
 132:../../firmware/GD32VF103_standard_peripheral/Source/gd32vf103_gpio.c ****     temp_mode = (uint32_t) (mode & ((uint32_t) 0x0FU));
 209              		.loc 1 132 5
 133:../../firmware/GD32VF103_standard_peripheral/Source/gd32vf103_gpio.c **** 
 134:../../firmware/GD32VF103_standard_peripheral/Source/gd32vf103_gpio.c ****     /* GPIO speed configuration */
 135:../../firmware/GD32VF103_standard_peripheral/Source/gd32vf103_gpio.c ****     if (((uint32_t) 0x00U) != ((uint32_t) mode & ((uint32_t) 0x10U))) {
 210              		.loc 1 135 48 is_stmt 0
 211 0000 93F70501 		andi	a5,a1,16
 132:../../firmware/GD32VF103_standard_peripheral/Source/gd32vf103_gpio.c **** 
 212              		.loc 1 132 15
 213 0004 93F8F500 		andi	a7,a1,15
 214              	.LVL19:
 215              		.loc 1 135 5 is_stmt 1
 216              		.loc 1 135 8 is_stmt 0
 217 0008 99C3     		beq	a5,zero,.L15
 136:../../firmware/GD32VF103_standard_peripheral/Source/gd32vf103_gpio.c ****         /* output mode max speed:10MHz,2MHz,50MHz */
 137:../../firmware/GD32VF103_standard_peripheral/Source/gd32vf103_gpio.c ****         temp_mode |= (uint32_t) speed;
 218              		.loc 1 137 9 is_stmt 1
 219              		.loc 1 137 19 is_stmt 0
 220 000a B3E8C800 		or	a7,a7,a2
 221              	.LVL20:
 222              	.L15:
 138:../../firmware/GD32VF103_standard_peripheral/Source/gd32vf103_gpio.c ****     }
 139:../../firmware/GD32VF103_standard_peripheral/Source/gd32vf103_gpio.c **** 
 140:../../firmware/GD32VF103_standard_peripheral/Source/gd32vf103_gpio.c ****     /* configure the eight low port pins with GPIO_CTL0 */
 141:../../firmware/GD32VF103_standard_peripheral/Source/gd32vf103_gpio.c ****     for (i = 0U; i < 8U; i++) {
 223              		.loc 1 141 5 is_stmt 1
 126:../../firmware/GD32VF103_standard_peripheral/Source/gd32vf103_gpio.c ****     uint16_t i;
 224              		.loc 1 126 1 is_stmt 0
 225 000e 8147     		li	a5,0
GAS LISTING /tmp/cc4RcUf0.s 			page 8


 142:../../firmware/GD32VF103_standard_peripheral/Source/gd32vf103_gpio.c ****         if ((1U << i) & pin) {
 226              		.loc 1 142 17
 227 0010 854E     		li	t4,1
 143:../../firmware/GD32VF103_standard_peripheral/Source/gd32vf103_gpio.c ****             reg = GPIO_CTL0(gpio_periph);
 144:../../firmware/GD32VF103_standard_peripheral/Source/gd32vf103_gpio.c **** 
 145:../../firmware/GD32VF103_standard_peripheral/Source/gd32vf103_gpio.c ****             /* clear the specified pin mode bits */
 146:../../firmware/GD32VF103_standard_peripheral/Source/gd32vf103_gpio.c ****             reg &= ~GPIO_MODE_MASK(i);
 228              		.loc 1 146 21
 229 0012 3D4E     		li	t3,15
 147:../../firmware/GD32VF103_standard_peripheral/Source/gd32vf103_gpio.c ****             /* set the specified pin mode bits */
 148:../../firmware/GD32VF103_standard_peripheral/Source/gd32vf103_gpio.c ****             reg |= GPIO_MODE_SET(i, temp_mode);
 149:../../firmware/GD32VF103_standard_peripheral/Source/gd32vf103_gpio.c **** 
 150:../../firmware/GD32VF103_standard_peripheral/Source/gd32vf103_gpio.c ****             /* set IPD or IPU */
 151:../../firmware/GD32VF103_standard_peripheral/Source/gd32vf103_gpio.c ****             if (GPIO_MODE_IPD == mode) {
 230              		.loc 1 151 16
 231 0014 930F8002 		li	t6,40
 152:../../firmware/GD32VF103_standard_peripheral/Source/gd32vf103_gpio.c ****                 /* reset the corresponding OCTL bit */
 153:../../firmware/GD32VF103_standard_peripheral/Source/gd32vf103_gpio.c ****                 GPIO_BC(gpio_periph) = (uint32_t) ((1U << i) & pin);
 154:../../firmware/GD32VF103_standard_peripheral/Source/gd32vf103_gpio.c ****             } else {
 155:../../firmware/GD32VF103_standard_peripheral/Source/gd32vf103_gpio.c ****                 /* set the corresponding OCTL bit */
 156:../../firmware/GD32VF103_standard_peripheral/Source/gd32vf103_gpio.c ****                 if (GPIO_MODE_IPU == mode) {
 232              		.loc 1 156 20
 233 0018 93028004 		li	t0,72
 141:../../firmware/GD32VF103_standard_peripheral/Source/gd32vf103_gpio.c ****         if ((1U << i) & pin) {
 234              		.loc 1 141 5
 235 001c 2143     		li	t1,8
 236              	.LVL21:
 237              	.L19:
 142:../../firmware/GD32VF103_standard_peripheral/Source/gd32vf103_gpio.c ****             reg = GPIO_CTL0(gpio_periph);
 238              		.loc 1 142 9 is_stmt 1
 143:../../firmware/GD32VF103_standard_peripheral/Source/gd32vf103_gpio.c **** 
 239              		.loc 1 143 13
 240 001e 13962700 		slli	a2,a5,2
 142:../../firmware/GD32VF103_standard_peripheral/Source/gd32vf103_gpio.c ****             reg = GPIO_CTL0(gpio_periph);
 241              		.loc 1 142 17 is_stmt 0
 242 0022 3397FE00 		sll	a4,t4,a5
 146:../../firmware/GD32VF103_standard_peripheral/Source/gd32vf103_gpio.c ****             /* set the specified pin mode bits */
 243              		.loc 1 146 21
 244 0026 3318CE00 		sll	a6,t3,a2
 142:../../firmware/GD32VF103_standard_peripheral/Source/gd32vf103_gpio.c ****             reg = GPIO_CTL0(gpio_periph);
 245              		.loc 1 142 23
 246 002a 758F     		and	a4,a4,a3
 146:../../firmware/GD32VF103_standard_peripheral/Source/gd32vf103_gpio.c ****             /* set the specified pin mode bits */
 247              		.loc 1 146 20
 248 002c 1348F8FF 		not	a6,a6
 148:../../firmware/GD32VF103_standard_peripheral/Source/gd32vf103_gpio.c **** 
 249              		.loc 1 148 20
 250 0030 3396C800 		sll	a2,a7,a2
 142:../../firmware/GD32VF103_standard_peripheral/Source/gd32vf103_gpio.c ****             reg = GPIO_CTL0(gpio_periph);
 251              		.loc 1 142 12
 252 0034 01CF     		beq	a4,zero,.L16
 253              		.loc 1 156 17 is_stmt 1
 143:../../firmware/GD32VF103_standard_peripheral/Source/gd32vf103_gpio.c **** 
 254              		.loc 1 143 17 is_stmt 0
 255 0036 032F0500 		lw	t5,0(a0)
 256              	.LVL22:
 146:../../firmware/GD32VF103_standard_peripheral/Source/gd32vf103_gpio.c ****             /* set the specified pin mode bits */
GAS LISTING /tmp/cc4RcUf0.s 			page 9


 257              		.loc 1 146 13 is_stmt 1
 146:../../firmware/GD32VF103_standard_peripheral/Source/gd32vf103_gpio.c ****             /* set the specified pin mode bits */
 258              		.loc 1 146 17 is_stmt 0
 259 003a 3378E801 		and	a6,a6,t5
 260              	.LVL23:
 148:../../firmware/GD32VF103_standard_peripheral/Source/gd32vf103_gpio.c **** 
 261              		.loc 1 148 13 is_stmt 1
 148:../../firmware/GD32VF103_standard_peripheral/Source/gd32vf103_gpio.c **** 
 262              		.loc 1 148 17 is_stmt 0
 263 003e 33660601 		or	a2,a2,a6
 264              	.LVL24:
 151:../../firmware/GD32VF103_standard_peripheral/Source/gd32vf103_gpio.c ****                 /* reset the corresponding OCTL bit */
 265              		.loc 1 151 13 is_stmt 1
 151:../../firmware/GD32VF103_standard_peripheral/Source/gd32vf103_gpio.c ****                 /* reset the corresponding OCTL bit */
 266              		.loc 1 151 16 is_stmt 0
 267 0042 638FF505 		beq	a1,t6,.L35
 268              		.loc 1 156 20
 269 0046 63895504 		beq	a1,t0,.L36
 270              	.L18:
 157:../../firmware/GD32VF103_standard_peripheral/Source/gd32vf103_gpio.c ****                     GPIO_BOP(gpio_periph) = (uint32_t) ((1U << i) & pin);
 158:../../firmware/GD32VF103_standard_peripheral/Source/gd32vf103_gpio.c ****                 }
 159:../../firmware/GD32VF103_standard_peripheral/Source/gd32vf103_gpio.c ****             }
 160:../../firmware/GD32VF103_standard_peripheral/Source/gd32vf103_gpio.c ****             /* set GPIO_CTL0 register */
 161:../../firmware/GD32VF103_standard_peripheral/Source/gd32vf103_gpio.c ****             GPIO_CTL0(gpio_periph) = reg;
 271              		.loc 1 161 13 is_stmt 1
 272              		.loc 1 161 36 is_stmt 0
 273 004a 10C1     		sw	a2,0(a0)
 274              	.LVL25:
 275              	.L16:
 276 004c 8507     		addi	a5,a5,1
 277              	.LVL26:
 141:../../firmware/GD32VF103_standard_peripheral/Source/gd32vf103_gpio.c ****         if ((1U << i) & pin) {
 278              		.loc 1 141 5 discriminator 2
 279 004e E39867FC 		bne	a5,t1,.L19
 162:../../firmware/GD32VF103_standard_peripheral/Source/gd32vf103_gpio.c ****         }
 163:../../firmware/GD32VF103_standard_peripheral/Source/gd32vf103_gpio.c ****     }
 164:../../firmware/GD32VF103_standard_peripheral/Source/gd32vf103_gpio.c ****     /* configure the eight high port pins with GPIO_CTL1 */
 165:../../firmware/GD32VF103_standard_peripheral/Source/gd32vf103_gpio.c ****     for (i = 8U; i < 16U; i++) {
 166:../../firmware/GD32VF103_standard_peripheral/Source/gd32vf103_gpio.c ****         if ((1U << i) & pin) {
 280              		.loc 1 166 17
 281 0052 854E     		li	t4,1
 167:../../firmware/GD32VF103_standard_peripheral/Source/gd32vf103_gpio.c ****             reg = GPIO_CTL1(gpio_periph);
 168:../../firmware/GD32VF103_standard_peripheral/Source/gd32vf103_gpio.c **** 
 169:../../firmware/GD32VF103_standard_peripheral/Source/gd32vf103_gpio.c ****             /* clear the specified pin mode bits */
 170:../../firmware/GD32VF103_standard_peripheral/Source/gd32vf103_gpio.c ****             reg &= ~GPIO_MODE_MASK(i - 8U);
 282              		.loc 1 170 21
 283 0054 3D4E     		li	t3,15
 171:../../firmware/GD32VF103_standard_peripheral/Source/gd32vf103_gpio.c ****             /* set the specified pin mode bits */
 172:../../firmware/GD32VF103_standard_peripheral/Source/gd32vf103_gpio.c ****             reg |= GPIO_MODE_SET(i - 8U, temp_mode);
 173:../../firmware/GD32VF103_standard_peripheral/Source/gd32vf103_gpio.c **** 
 174:../../firmware/GD32VF103_standard_peripheral/Source/gd32vf103_gpio.c ****             /* set IPD or IPU */
 175:../../firmware/GD32VF103_standard_peripheral/Source/gd32vf103_gpio.c ****             if (GPIO_MODE_IPD == mode) {
 284              		.loc 1 175 16
 285 0056 930F8002 		li	t6,40
 176:../../firmware/GD32VF103_standard_peripheral/Source/gd32vf103_gpio.c ****                 /* reset the corresponding OCTL bit */
 177:../../firmware/GD32VF103_standard_peripheral/Source/gd32vf103_gpio.c ****                 GPIO_BC(gpio_periph) = (uint32_t) ((1U << i) & pin);
 178:../../firmware/GD32VF103_standard_peripheral/Source/gd32vf103_gpio.c ****             } else {
GAS LISTING /tmp/cc4RcUf0.s 			page 10


 179:../../firmware/GD32VF103_standard_peripheral/Source/gd32vf103_gpio.c ****                 /* set the corresponding OCTL bit */
 180:../../firmware/GD32VF103_standard_peripheral/Source/gd32vf103_gpio.c ****                 if (GPIO_MODE_IPU == mode) {
 286              		.loc 1 180 20
 287 005a 93028004 		li	t0,72
 165:../../firmware/GD32VF103_standard_peripheral/Source/gd32vf103_gpio.c ****         if ((1U << i) & pin) {
 288              		.loc 1 165 5
 289 005e 4143     		li	t1,16
 290              	.L23:
 291              	.LVL27:
 166:../../firmware/GD32VF103_standard_peripheral/Source/gd32vf103_gpio.c ****             reg = GPIO_CTL1(gpio_periph);
 292              		.loc 1 166 9 is_stmt 1
 167:../../firmware/GD32VF103_standard_peripheral/Source/gd32vf103_gpio.c **** 
 293              		.loc 1 167 13
 170:../../firmware/GD32VF103_standard_peripheral/Source/gd32vf103_gpio.c ****             /* set the specified pin mode bits */
 294              		.loc 1 170 21 is_stmt 0
 295 0060 13972700 		slli	a4,a5,2
 296 0064 0117     		addi	a4,a4,-32
 166:../../firmware/GD32VF103_standard_peripheral/Source/gd32vf103_gpio.c ****             reg = GPIO_CTL1(gpio_periph);
 297              		.loc 1 166 17
 298 0066 3396FE00 		sll	a2,t4,a5
 170:../../firmware/GD32VF103_standard_peripheral/Source/gd32vf103_gpio.c ****             /* set the specified pin mode bits */
 299              		.loc 1 170 21
 300 006a 3318EE00 		sll	a6,t3,a4
 166:../../firmware/GD32VF103_standard_peripheral/Source/gd32vf103_gpio.c ****             reg = GPIO_CTL1(gpio_periph);
 301              		.loc 1 166 23
 302 006e 758E     		and	a2,a2,a3
 170:../../firmware/GD32VF103_standard_peripheral/Source/gd32vf103_gpio.c ****             /* set the specified pin mode bits */
 303              		.loc 1 170 20
 304 0070 1348F8FF 		not	a6,a6
 172:../../firmware/GD32VF103_standard_peripheral/Source/gd32vf103_gpio.c **** 
 305              		.loc 1 172 20
 306 0074 3397E800 		sll	a4,a7,a4
 166:../../firmware/GD32VF103_standard_peripheral/Source/gd32vf103_gpio.c ****             reg = GPIO_CTL1(gpio_periph);
 307              		.loc 1 166 12
 308 0078 01CE     		beq	a2,zero,.L20
 309              		.loc 1 180 17 is_stmt 1
 167:../../firmware/GD32VF103_standard_peripheral/Source/gd32vf103_gpio.c **** 
 310              		.loc 1 167 17 is_stmt 0
 311 007a 032F4500 		lw	t5,4(a0)
 312              	.LVL28:
 170:../../firmware/GD32VF103_standard_peripheral/Source/gd32vf103_gpio.c ****             /* set the specified pin mode bits */
 313              		.loc 1 170 13 is_stmt 1
 170:../../firmware/GD32VF103_standard_peripheral/Source/gd32vf103_gpio.c ****             /* set the specified pin mode bits */
 314              		.loc 1 170 17 is_stmt 0
 315 007e 3378E801 		and	a6,a6,t5
 316              	.LVL29:
 172:../../firmware/GD32VF103_standard_peripheral/Source/gd32vf103_gpio.c **** 
 317              		.loc 1 172 13 is_stmt 1
 172:../../firmware/GD32VF103_standard_peripheral/Source/gd32vf103_gpio.c **** 
 318              		.loc 1 172 17 is_stmt 0
 319 0082 33670701 		or	a4,a4,a6
 320              	.LVL30:
 175:../../firmware/GD32VF103_standard_peripheral/Source/gd32vf103_gpio.c ****                 /* reset the corresponding OCTL bit */
 321              		.loc 1 175 13 is_stmt 1
 175:../../firmware/GD32VF103_standard_peripheral/Source/gd32vf103_gpio.c ****                 /* reset the corresponding OCTL bit */
 322              		.loc 1 175 16 is_stmt 0
 323 0086 638FF501 		beq	a1,t6,.L37
GAS LISTING /tmp/cc4RcUf0.s 			page 11


 324              		.loc 1 180 20
 325 008a 63895500 		beq	a1,t0,.L38
 326              	.L22:
 181:../../firmware/GD32VF103_standard_peripheral/Source/gd32vf103_gpio.c ****                     GPIO_BOP(gpio_periph) = (uint32_t) ((1U << i) & pin);
 182:../../firmware/GD32VF103_standard_peripheral/Source/gd32vf103_gpio.c ****                 }
 183:../../firmware/GD32VF103_standard_peripheral/Source/gd32vf103_gpio.c ****             }
 184:../../firmware/GD32VF103_standard_peripheral/Source/gd32vf103_gpio.c ****             /* set GPIO_CTL1 register */
 185:../../firmware/GD32VF103_standard_peripheral/Source/gd32vf103_gpio.c ****             GPIO_CTL1(gpio_periph) = reg;
 327              		.loc 1 185 13 is_stmt 1
 328              		.loc 1 185 36 is_stmt 0
 329 008e 58C1     		sw	a4,4(a0)
 330              	.LVL31:
 331              	.L20:
 332 0090 8507     		addi	a5,a5,1
 333              	.LVL32:
 165:../../firmware/GD32VF103_standard_peripheral/Source/gd32vf103_gpio.c ****         if ((1U << i) & pin) {
 334              		.loc 1 165 5 discriminator 2
 335 0092 E39767FC 		bne	a5,t1,.L23
 186:../../firmware/GD32VF103_standard_peripheral/Source/gd32vf103_gpio.c ****         }
 187:../../firmware/GD32VF103_standard_peripheral/Source/gd32vf103_gpio.c ****     }
 188:../../firmware/GD32VF103_standard_peripheral/Source/gd32vf103_gpio.c **** }
 336              		.loc 1 188 1
 337 0096 8280     		ret
 338              	.LVL33:
 339              	.L36:
 157:../../firmware/GD32VF103_standard_peripheral/Source/gd32vf103_gpio.c ****                 }
 340              		.loc 1 157 21 is_stmt 1
 157:../../firmware/GD32VF103_standard_peripheral/Source/gd32vf103_gpio.c ****                 }
 341              		.loc 1 157 43 is_stmt 0
 342 0098 18C9     		sw	a4,16(a0)
 343 009a 45BF     		j	.L18
 344              	.LVL34:
 345              	.L38:
 181:../../firmware/GD32VF103_standard_peripheral/Source/gd32vf103_gpio.c ****                 }
 346              		.loc 1 181 21 is_stmt 1
 181:../../firmware/GD32VF103_standard_peripheral/Source/gd32vf103_gpio.c ****                 }
 347              		.loc 1 181 43 is_stmt 0
 348 009c 10C9     		sw	a2,16(a0)
 349 009e C5BF     		j	.L22
 350              	.LVL35:
 351              	.L35:
 153:../../firmware/GD32VF103_standard_peripheral/Source/gd32vf103_gpio.c ****             } else {
 352              		.loc 1 153 17 is_stmt 1
 153:../../firmware/GD32VF103_standard_peripheral/Source/gd32vf103_gpio.c ****             } else {
 353              		.loc 1 153 38 is_stmt 0
 354 00a0 58C9     		sw	a4,20(a0)
 355 00a2 65B7     		j	.L18
 356              	.LVL36:
 357              	.L37:
 177:../../firmware/GD32VF103_standard_peripheral/Source/gd32vf103_gpio.c ****             } else {
 358              		.loc 1 177 17 is_stmt 1
 177:../../firmware/GD32VF103_standard_peripheral/Source/gd32vf103_gpio.c ****             } else {
 359              		.loc 1 177 38 is_stmt 0
 360 00a4 50C9     		sw	a2,20(a0)
 361 00a6 E5B7     		j	.L22
 362              		.cfi_endproc
 363              	.LFE4:
GAS LISTING /tmp/cc4RcUf0.s 			page 12


 365              		.section	.text.gpio_bit_set,"ax",@progbits
 366              		.align	1
 367              		.globl	gpio_bit_set
 369              	gpio_bit_set:
 370              	.LFB5:
 189:../../firmware/GD32VF103_standard_peripheral/Source/gd32vf103_gpio.c **** 
 190:../../firmware/GD32VF103_standard_peripheral/Source/gd32vf103_gpio.c **** /*!
 191:../../firmware/GD32VF103_standard_peripheral/Source/gd32vf103_gpio.c ****     \brief      set GPIO pin
 192:../../firmware/GD32VF103_standard_peripheral/Source/gd32vf103_gpio.c ****     \param[in]  gpio_periph: GPIOx(x = A,B,C,D,E)
 193:../../firmware/GD32VF103_standard_peripheral/Source/gd32vf103_gpio.c ****     \param[in]  pin: GPIO pin
 194:../../firmware/GD32VF103_standard_peripheral/Source/gd32vf103_gpio.c ****                 one or more parameters can be selected which are shown as below:
 195:../../firmware/GD32VF103_standard_peripheral/Source/gd32vf103_gpio.c ****       \arg        GPIO_PIN_x(x=0..15), GPIO_PIN_ALL
 196:../../firmware/GD32VF103_standard_peripheral/Source/gd32vf103_gpio.c ****     \param[out] none
 197:../../firmware/GD32VF103_standard_peripheral/Source/gd32vf103_gpio.c ****     \retval     none
 198:../../firmware/GD32VF103_standard_peripheral/Source/gd32vf103_gpio.c **** */
 199:../../firmware/GD32VF103_standard_peripheral/Source/gd32vf103_gpio.c **** void gpio_bit_set(uint32_t gpio_periph, uint32_t pin)
 200:../../firmware/GD32VF103_standard_peripheral/Source/gd32vf103_gpio.c **** {
 371              		.loc 1 200 1 is_stmt 1
 372              		.cfi_startproc
 373              	.LVL37:
 201:../../firmware/GD32VF103_standard_peripheral/Source/gd32vf103_gpio.c ****     GPIO_BOP(gpio_periph) = (uint32_t) pin;
 374              		.loc 1 201 5
 375              		.loc 1 201 27 is_stmt 0
 376 0000 0CC9     		sw	a1,16(a0)
 202:../../firmware/GD32VF103_standard_peripheral/Source/gd32vf103_gpio.c **** }
 377              		.loc 1 202 1
 378 0002 8280     		ret
 379              		.cfi_endproc
 380              	.LFE5:
 382              		.section	.text.gpio_bit_reset,"ax",@progbits
 383              		.align	1
 384              		.globl	gpio_bit_reset
 386              	gpio_bit_reset:
 387              	.LFB6:
 203:../../firmware/GD32VF103_standard_peripheral/Source/gd32vf103_gpio.c **** 
 204:../../firmware/GD32VF103_standard_peripheral/Source/gd32vf103_gpio.c **** /*!
 205:../../firmware/GD32VF103_standard_peripheral/Source/gd32vf103_gpio.c ****     \brief      reset GPIO pin
 206:../../firmware/GD32VF103_standard_peripheral/Source/gd32vf103_gpio.c ****     \param[in]  gpio_periph: GPIOx(x = A,B,C,D,E)
 207:../../firmware/GD32VF103_standard_peripheral/Source/gd32vf103_gpio.c ****     \param[in]  pin: GPIO pin
 208:../../firmware/GD32VF103_standard_peripheral/Source/gd32vf103_gpio.c ****                 one or more parameters can be selected which are shown as below:
 209:../../firmware/GD32VF103_standard_peripheral/Source/gd32vf103_gpio.c ****       \arg        GPIO_PIN_x(x=0..15), GPIO_PIN_ALL
 210:../../firmware/GD32VF103_standard_peripheral/Source/gd32vf103_gpio.c ****     \param[out] none
 211:../../firmware/GD32VF103_standard_peripheral/Source/gd32vf103_gpio.c ****     \retval     none
 212:../../firmware/GD32VF103_standard_peripheral/Source/gd32vf103_gpio.c **** */
 213:../../firmware/GD32VF103_standard_peripheral/Source/gd32vf103_gpio.c **** void gpio_bit_reset(uint32_t gpio_periph, uint32_t pin)
 214:../../firmware/GD32VF103_standard_peripheral/Source/gd32vf103_gpio.c **** {
 388              		.loc 1 214 1 is_stmt 1
 389              		.cfi_startproc
 390              	.LVL38:
 215:../../firmware/GD32VF103_standard_peripheral/Source/gd32vf103_gpio.c ****     GPIO_BC(gpio_periph) = (uint32_t) pin;
 391              		.loc 1 215 5
 392              		.loc 1 215 26 is_stmt 0
 393 0000 4CC9     		sw	a1,20(a0)
 216:../../firmware/GD32VF103_standard_peripheral/Source/gd32vf103_gpio.c **** }
 394              		.loc 1 216 1
 395 0002 8280     		ret
 396              		.cfi_endproc
GAS LISTING /tmp/cc4RcUf0.s 			page 13


 397              	.LFE6:
 399              		.section	.text.gpio_bit_write,"ax",@progbits
 400              		.align	1
 401              		.globl	gpio_bit_write
 403              	gpio_bit_write:
 404              	.LFB7:
 217:../../firmware/GD32VF103_standard_peripheral/Source/gd32vf103_gpio.c **** 
 218:../../firmware/GD32VF103_standard_peripheral/Source/gd32vf103_gpio.c **** /*!
 219:../../firmware/GD32VF103_standard_peripheral/Source/gd32vf103_gpio.c ****     \brief      write data to the specified GPIO pin
 220:../../firmware/GD32VF103_standard_peripheral/Source/gd32vf103_gpio.c ****     \param[in]  gpio_periph: GPIOx(x = A,B,C,D,E)
 221:../../firmware/GD32VF103_standard_peripheral/Source/gd32vf103_gpio.c ****     \param[in]  pin: GPIO pin
 222:../../firmware/GD32VF103_standard_peripheral/Source/gd32vf103_gpio.c ****                 one or more parameters can be selected which are shown as below:
 223:../../firmware/GD32VF103_standard_peripheral/Source/gd32vf103_gpio.c ****       \arg        GPIO_PIN_x(x=0..15), GPIO_PIN_ALL
 224:../../firmware/GD32VF103_standard_peripheral/Source/gd32vf103_gpio.c ****     \param[in]  bit_value: SET or RESET
 225:../../firmware/GD32VF103_standard_peripheral/Source/gd32vf103_gpio.c ****                 only one parameter can be selected which is shown as below:
 226:../../firmware/GD32VF103_standard_peripheral/Source/gd32vf103_gpio.c ****       \arg        RESET: clear the port pin
 227:../../firmware/GD32VF103_standard_peripheral/Source/gd32vf103_gpio.c ****       \arg        SET: set the port pin
 228:../../firmware/GD32VF103_standard_peripheral/Source/gd32vf103_gpio.c ****     \param[out] none
 229:../../firmware/GD32VF103_standard_peripheral/Source/gd32vf103_gpio.c ****     \retval     none
 230:../../firmware/GD32VF103_standard_peripheral/Source/gd32vf103_gpio.c **** */
 231:../../firmware/GD32VF103_standard_peripheral/Source/gd32vf103_gpio.c **** void gpio_bit_write(uint32_t gpio_periph, uint32_t pin, bit_status bit_value)
 232:../../firmware/GD32VF103_standard_peripheral/Source/gd32vf103_gpio.c **** {
 405              		.loc 1 232 1 is_stmt 1
 406              		.cfi_startproc
 407              	.LVL39:
 233:../../firmware/GD32VF103_standard_peripheral/Source/gd32vf103_gpio.c ****     if (RESET != bit_value) {
 408              		.loc 1 233 5
 409              		.loc 1 233 8 is_stmt 0
 410 0000 19C2     		beq	a2,zero,.L42
 234:../../firmware/GD32VF103_standard_peripheral/Source/gd32vf103_gpio.c ****         GPIO_BOP(gpio_periph) = (uint32_t) pin;
 411              		.loc 1 234 9 is_stmt 1
 412              		.loc 1 234 31 is_stmt 0
 413 0002 0CC9     		sw	a1,16(a0)
 414 0004 8280     		ret
 415              	.L42:
 235:../../firmware/GD32VF103_standard_peripheral/Source/gd32vf103_gpio.c ****     } else {
 236:../../firmware/GD32VF103_standard_peripheral/Source/gd32vf103_gpio.c ****         GPIO_BC(gpio_periph) = (uint32_t) pin;
 416              		.loc 1 236 9 is_stmt 1
 417              		.loc 1 236 30 is_stmt 0
 418 0006 4CC9     		sw	a1,20(a0)
 237:../../firmware/GD32VF103_standard_peripheral/Source/gd32vf103_gpio.c ****     }
 238:../../firmware/GD32VF103_standard_peripheral/Source/gd32vf103_gpio.c **** }
 419              		.loc 1 238 1
 420 0008 8280     		ret
 421              		.cfi_endproc
 422              	.LFE7:
 424              		.section	.text.gpio_port_write,"ax",@progbits
 425              		.align	1
 426              		.globl	gpio_port_write
 428              	gpio_port_write:
 429              	.LFB8:
 239:../../firmware/GD32VF103_standard_peripheral/Source/gd32vf103_gpio.c **** 
 240:../../firmware/GD32VF103_standard_peripheral/Source/gd32vf103_gpio.c **** /*!
 241:../../firmware/GD32VF103_standard_peripheral/Source/gd32vf103_gpio.c ****     \brief      write data to the specified GPIO port
 242:../../firmware/GD32VF103_standard_peripheral/Source/gd32vf103_gpio.c ****     \param[in]  gpio_periph: GPIOx(x = A,B,C,D,E)
 243:../../firmware/GD32VF103_standard_peripheral/Source/gd32vf103_gpio.c ****     \param[in]  data: specify the value to be written to the port output data register
 244:../../firmware/GD32VF103_standard_peripheral/Source/gd32vf103_gpio.c ****     \param[out] none
GAS LISTING /tmp/cc4RcUf0.s 			page 14


 245:../../firmware/GD32VF103_standard_peripheral/Source/gd32vf103_gpio.c ****     \retval     none
 246:../../firmware/GD32VF103_standard_peripheral/Source/gd32vf103_gpio.c **** */
 247:../../firmware/GD32VF103_standard_peripheral/Source/gd32vf103_gpio.c **** void gpio_port_write(uint32_t gpio_periph, uint16_t data)
 248:../../firmware/GD32VF103_standard_peripheral/Source/gd32vf103_gpio.c **** {
 430              		.loc 1 248 1 is_stmt 1
 431              		.cfi_startproc
 432              	.LVL40:
 249:../../firmware/GD32VF103_standard_peripheral/Source/gd32vf103_gpio.c ****     GPIO_OCTL(gpio_periph) = (uint32_t) data;
 433              		.loc 1 249 5
 434              		.loc 1 249 28 is_stmt 0
 435 0000 4CC5     		sw	a1,12(a0)
 250:../../firmware/GD32VF103_standard_peripheral/Source/gd32vf103_gpio.c **** }
 436              		.loc 1 250 1
 437 0002 8280     		ret
 438              		.cfi_endproc
 439              	.LFE8:
 441              		.section	.text.gpio_input_bit_get,"ax",@progbits
 442              		.align	1
 443              		.globl	gpio_input_bit_get
 445              	gpio_input_bit_get:
 446              	.LFB9:
 251:../../firmware/GD32VF103_standard_peripheral/Source/gd32vf103_gpio.c **** 
 252:../../firmware/GD32VF103_standard_peripheral/Source/gd32vf103_gpio.c **** /*!
 253:../../firmware/GD32VF103_standard_peripheral/Source/gd32vf103_gpio.c ****     \brief      get GPIO pin input status
 254:../../firmware/GD32VF103_standard_peripheral/Source/gd32vf103_gpio.c ****     \param[in]  gpio_periph: GPIOx(x = A,B,C,D,E)
 255:../../firmware/GD32VF103_standard_peripheral/Source/gd32vf103_gpio.c ****     \param[in]  pin: GPIO pin
 256:../../firmware/GD32VF103_standard_peripheral/Source/gd32vf103_gpio.c ****                 only one parameter can be selected which are shown as below:
 257:../../firmware/GD32VF103_standard_peripheral/Source/gd32vf103_gpio.c ****       \arg        GPIO_PIN_x(x=0..15), GPIO_PIN_ALL
 258:../../firmware/GD32VF103_standard_peripheral/Source/gd32vf103_gpio.c ****     \param[out] none
 259:../../firmware/GD32VF103_standard_peripheral/Source/gd32vf103_gpio.c ****     \retval     input status of gpio pin: SET or RESET
 260:../../firmware/GD32VF103_standard_peripheral/Source/gd32vf103_gpio.c **** */
 261:../../firmware/GD32VF103_standard_peripheral/Source/gd32vf103_gpio.c **** FlagStatus gpio_input_bit_get(uint32_t gpio_periph, uint32_t pin)
 262:../../firmware/GD32VF103_standard_peripheral/Source/gd32vf103_gpio.c **** {
 447              		.loc 1 262 1 is_stmt 1
 448              		.cfi_startproc
 449              	.LVL41:
 263:../../firmware/GD32VF103_standard_peripheral/Source/gd32vf103_gpio.c ****     if ((uint32_t) RESET != (GPIO_ISTAT(gpio_periph) & (pin))) {
 450              		.loc 1 263 5
 451              		.loc 1 263 30 is_stmt 0
 452 0000 0845     		lw	a0,8(a0)
 453              	.LVL42:
 454              		.loc 1 263 54
 455 0002 6D8D     		and	a0,a0,a1
 264:../../firmware/GD32VF103_standard_peripheral/Source/gd32vf103_gpio.c ****         return SET;
 265:../../firmware/GD32VF103_standard_peripheral/Source/gd32vf103_gpio.c ****     } else {
 266:../../firmware/GD32VF103_standard_peripheral/Source/gd32vf103_gpio.c ****         return RESET;
 267:../../firmware/GD32VF103_standard_peripheral/Source/gd32vf103_gpio.c ****     }
 268:../../firmware/GD32VF103_standard_peripheral/Source/gd32vf103_gpio.c **** }
 456              		.loc 1 268 1
 457 0004 3335A000 		snez	a0,a0
 458 0008 8280     		ret
 459              		.cfi_endproc
 460              	.LFE9:
 462              		.section	.text.gpio_input_port_get,"ax",@progbits
 463              		.align	1
 464              		.globl	gpio_input_port_get
 466              	gpio_input_port_get:
GAS LISTING /tmp/cc4RcUf0.s 			page 15


 467              	.LFB10:
 269:../../firmware/GD32VF103_standard_peripheral/Source/gd32vf103_gpio.c **** 
 270:../../firmware/GD32VF103_standard_peripheral/Source/gd32vf103_gpio.c **** /*!
 271:../../firmware/GD32VF103_standard_peripheral/Source/gd32vf103_gpio.c ****     \brief      get GPIO port input status
 272:../../firmware/GD32VF103_standard_peripheral/Source/gd32vf103_gpio.c ****     \param[in]  gpio_periph: GPIOx(x = A,B,C,D,E)
 273:../../firmware/GD32VF103_standard_peripheral/Source/gd32vf103_gpio.c ****     \param[out] none
 274:../../firmware/GD32VF103_standard_peripheral/Source/gd32vf103_gpio.c ****     \retval     input status of gpio all pins
 275:../../firmware/GD32VF103_standard_peripheral/Source/gd32vf103_gpio.c **** */
 276:../../firmware/GD32VF103_standard_peripheral/Source/gd32vf103_gpio.c **** uint16_t gpio_input_port_get(uint32_t gpio_periph)
 277:../../firmware/GD32VF103_standard_peripheral/Source/gd32vf103_gpio.c **** {
 468              		.loc 1 277 1 is_stmt 1
 469              		.cfi_startproc
 470              	.LVL43:
 278:../../firmware/GD32VF103_standard_peripheral/Source/gd32vf103_gpio.c ****     return (uint16_t) (GPIO_ISTAT(gpio_periph));
 471              		.loc 1 278 5
 472              		.loc 1 278 24 is_stmt 0
 473 0000 0845     		lw	a0,8(a0)
 474              	.LVL44:
 279:../../firmware/GD32VF103_standard_peripheral/Source/gd32vf103_gpio.c **** }
 475              		.loc 1 279 1
 476 0002 4205     		slli	a0,a0,16
 477 0004 4181     		srli	a0,a0,16
 478 0006 8280     		ret
 479              		.cfi_endproc
 480              	.LFE10:
 482              		.section	.text.gpio_output_bit_get,"ax",@progbits
 483              		.align	1
 484              		.globl	gpio_output_bit_get
 486              	gpio_output_bit_get:
 487              	.LFB11:
 280:../../firmware/GD32VF103_standard_peripheral/Source/gd32vf103_gpio.c **** 
 281:../../firmware/GD32VF103_standard_peripheral/Source/gd32vf103_gpio.c **** /*!
 282:../../firmware/GD32VF103_standard_peripheral/Source/gd32vf103_gpio.c ****     \brief      get GPIO pin output status
 283:../../firmware/GD32VF103_standard_peripheral/Source/gd32vf103_gpio.c ****     \param[in]  gpio_periph: GPIOx(x = A,B,C,D,E)
 284:../../firmware/GD32VF103_standard_peripheral/Source/gd32vf103_gpio.c ****     \param[in]  pin: GPIO pin
 285:../../firmware/GD32VF103_standard_peripheral/Source/gd32vf103_gpio.c ****                 only one parameter can be selected which are shown as below:
 286:../../firmware/GD32VF103_standard_peripheral/Source/gd32vf103_gpio.c ****       \arg        GPIO_PIN_x(x=0..15), GPIO_PIN_ALL
 287:../../firmware/GD32VF103_standard_peripheral/Source/gd32vf103_gpio.c ****     \param[out] none
 288:../../firmware/GD32VF103_standard_peripheral/Source/gd32vf103_gpio.c ****     \retval     output status of gpio pin: SET or RESET
 289:../../firmware/GD32VF103_standard_peripheral/Source/gd32vf103_gpio.c **** */
 290:../../firmware/GD32VF103_standard_peripheral/Source/gd32vf103_gpio.c **** FlagStatus gpio_output_bit_get(uint32_t gpio_periph, uint32_t pin)
 291:../../firmware/GD32VF103_standard_peripheral/Source/gd32vf103_gpio.c **** {
 488              		.loc 1 291 1 is_stmt 1
 489              		.cfi_startproc
 490              	.LVL45:
 292:../../firmware/GD32VF103_standard_peripheral/Source/gd32vf103_gpio.c ****     if ((uint32_t) RESET != (GPIO_OCTL(gpio_periph) & (pin))) {
 491              		.loc 1 292 5
 492              		.loc 1 292 30 is_stmt 0
 493 0000 4845     		lw	a0,12(a0)
 494              	.LVL46:
 495              		.loc 1 292 53
 496 0002 6D8D     		and	a0,a0,a1
 293:../../firmware/GD32VF103_standard_peripheral/Source/gd32vf103_gpio.c ****         return SET;
 294:../../firmware/GD32VF103_standard_peripheral/Source/gd32vf103_gpio.c ****     } else {
 295:../../firmware/GD32VF103_standard_peripheral/Source/gd32vf103_gpio.c ****         return RESET;
 296:../../firmware/GD32VF103_standard_peripheral/Source/gd32vf103_gpio.c ****     }
 297:../../firmware/GD32VF103_standard_peripheral/Source/gd32vf103_gpio.c **** }
GAS LISTING /tmp/cc4RcUf0.s 			page 16


 497              		.loc 1 297 1
 498 0004 3335A000 		snez	a0,a0
 499 0008 8280     		ret
 500              		.cfi_endproc
 501              	.LFE11:
 503              		.section	.text.gpio_output_port_get,"ax",@progbits
 504              		.align	1
 505              		.globl	gpio_output_port_get
 507              	gpio_output_port_get:
 508              	.LFB12:
 298:../../firmware/GD32VF103_standard_peripheral/Source/gd32vf103_gpio.c **** 
 299:../../firmware/GD32VF103_standard_peripheral/Source/gd32vf103_gpio.c **** /*!
 300:../../firmware/GD32VF103_standard_peripheral/Source/gd32vf103_gpio.c ****     \brief      get GPIO port output status
 301:../../firmware/GD32VF103_standard_peripheral/Source/gd32vf103_gpio.c ****     \param[in]  gpio_periph: GPIOx(x = A,B,C,D,E)
 302:../../firmware/GD32VF103_standard_peripheral/Source/gd32vf103_gpio.c ****     \param[out] none
 303:../../firmware/GD32VF103_standard_peripheral/Source/gd32vf103_gpio.c ****     \retval     output status of gpio all pins
 304:../../firmware/GD32VF103_standard_peripheral/Source/gd32vf103_gpio.c **** */
 305:../../firmware/GD32VF103_standard_peripheral/Source/gd32vf103_gpio.c **** uint16_t gpio_output_port_get(uint32_t gpio_periph)
 306:../../firmware/GD32VF103_standard_peripheral/Source/gd32vf103_gpio.c **** {
 509              		.loc 1 306 1 is_stmt 1
 510              		.cfi_startproc
 511              	.LVL47:
 307:../../firmware/GD32VF103_standard_peripheral/Source/gd32vf103_gpio.c ****     return ((uint16_t) GPIO_OCTL(gpio_periph));
 512              		.loc 1 307 5
 513              		.loc 1 307 24 is_stmt 0
 514 0000 4845     		lw	a0,12(a0)
 515              	.LVL48:
 308:../../firmware/GD32VF103_standard_peripheral/Source/gd32vf103_gpio.c **** }
 516              		.loc 1 308 1
 517 0002 4205     		slli	a0,a0,16
 518 0004 4181     		srli	a0,a0,16
 519 0006 8280     		ret
 520              		.cfi_endproc
 521              	.LFE12:
 523              		.section	.text.gpio_pin_remap_config,"ax",@progbits
 524              		.align	1
 525              		.globl	gpio_pin_remap_config
 527              	gpio_pin_remap_config:
 528              	.LFB13:
 309:../../firmware/GD32VF103_standard_peripheral/Source/gd32vf103_gpio.c **** 
 310:../../firmware/GD32VF103_standard_peripheral/Source/gd32vf103_gpio.c **** /*!
 311:../../firmware/GD32VF103_standard_peripheral/Source/gd32vf103_gpio.c ****     \brief      configure GPIO pin remap
 312:../../firmware/GD32VF103_standard_peripheral/Source/gd32vf103_gpio.c ****     \param[in]  gpio_remap: select the pin to remap
 313:../../firmware/GD32VF103_standard_peripheral/Source/gd32vf103_gpio.c ****                 only one parameter can be selected which are shown as below:
 314:../../firmware/GD32VF103_standard_peripheral/Source/gd32vf103_gpio.c ****       \arg        GPIO_SPI0_REMAP: SPI0 remapping
 315:../../firmware/GD32VF103_standard_peripheral/Source/gd32vf103_gpio.c ****       \arg        GPIO_I2C0_REMAP: I2C0 remapping
 316:../../firmware/GD32VF103_standard_peripheral/Source/gd32vf103_gpio.c ****       \arg        GPIO_USART0_REMAP: USART0 remapping
 317:../../firmware/GD32VF103_standard_peripheral/Source/gd32vf103_gpio.c ****       \arg        GPIO_USART1_REMAP: USART1 remapping
 318:../../firmware/GD32VF103_standard_peripheral/Source/gd32vf103_gpio.c ****       \arg        GPIO_USART2_PARTIAL_REMAP: USART2 partial remapping
 319:../../firmware/GD32VF103_standard_peripheral/Source/gd32vf103_gpio.c ****       \arg        GPIO_USART2_FULL_REMAP: USART2 full remapping
 320:../../firmware/GD32VF103_standard_peripheral/Source/gd32vf103_gpio.c ****       \arg        GPIO_TIMER0_PARTIAL_REMAP: TIMER0 partial remapping
 321:../../firmware/GD32VF103_standard_peripheral/Source/gd32vf103_gpio.c ****       \arg        GPIO_TIMER0_FULL_REMAP: TIMER0 full remapping
 322:../../firmware/GD32VF103_standard_peripheral/Source/gd32vf103_gpio.c ****       \arg        GPIO_TIMER1_PARTIAL_REMAP0: TIMER1 partial remapping
 323:../../firmware/GD32VF103_standard_peripheral/Source/gd32vf103_gpio.c ****       \arg        GPIO_TIMER1_PARTIAL_REMAP1: TIMER1 partial remapping
 324:../../firmware/GD32VF103_standard_peripheral/Source/gd32vf103_gpio.c ****       \arg        GPIO_TIMER1_FULL_REMAP: TIMER1 full remapping
 325:../../firmware/GD32VF103_standard_peripheral/Source/gd32vf103_gpio.c ****       \arg        GPIO_TIMER2_PARTIAL_REMAP: TIMER2 partial remapping
 326:../../firmware/GD32VF103_standard_peripheral/Source/gd32vf103_gpio.c ****       \arg        GPIO_TIMER2_FULL_REMAP: TIMER2 full remapping
GAS LISTING /tmp/cc4RcUf0.s 			page 17


 327:../../firmware/GD32VF103_standard_peripheral/Source/gd32vf103_gpio.c ****       \arg        GPIO_TIMER3_REMAP: TIMER3 remapping
 328:../../firmware/GD32VF103_standard_peripheral/Source/gd32vf103_gpio.c ****       \arg        GPIO_CAN0_PARTIAL_REMAP: CAN0 partial remapping
 329:../../firmware/GD32VF103_standard_peripheral/Source/gd32vf103_gpio.c ****       \arg        GPIO_CAN0_FULL_REMAP: CAN0 full remapping
 330:../../firmware/GD32VF103_standard_peripheral/Source/gd32vf103_gpio.c ****       \arg        GPIO_PD01_REMAP: PD01 remapping
 331:../../firmware/GD32VF103_standard_peripheral/Source/gd32vf103_gpio.c ****       \arg        GPIO_TIMER4CH3_IREMAP: TIMER4 channel3 internal remapping
 332:../../firmware/GD32VF103_standard_peripheral/Source/gd32vf103_gpio.c ****       \arg        GPIO_CAN1_REMAP: CAN1 remapping
 333:../../firmware/GD32VF103_standard_peripheral/Source/gd32vf103_gpio.c ****       \arg        GPIO_SWJ_NONJTRST_REMAP: JTAG-DP,but without NJTRST
 334:../../firmware/GD32VF103_standard_peripheral/Source/gd32vf103_gpio.c ****       \arg        GPIO_SWJ_DISABLE_REMAP: JTAG-DP disabled
 335:../../firmware/GD32VF103_standard_peripheral/Source/gd32vf103_gpio.c ****       \arg        GPIO_SPI2_REMAP: SPI2 remapping
 336:../../firmware/GD32VF103_standard_peripheral/Source/gd32vf103_gpio.c ****       \arg        GPIO_TIMER1ITI1_REMAP: TIMER1 internal trigger 1 remapping
 337:../../firmware/GD32VF103_standard_peripheral/Source/gd32vf103_gpio.c ****       \arg        GPIO_EXMC_NADV_REMAP: EXMC_NADV connect/disconnect
 338:../../firmware/GD32VF103_standard_peripheral/Source/gd32vf103_gpio.c ****     \param[in]  newvalue: ENABLE or DISABLE
 339:../../firmware/GD32VF103_standard_peripheral/Source/gd32vf103_gpio.c ****     \param[out] none
 340:../../firmware/GD32VF103_standard_peripheral/Source/gd32vf103_gpio.c ****     \retval     none
 341:../../firmware/GD32VF103_standard_peripheral/Source/gd32vf103_gpio.c **** */
 342:../../firmware/GD32VF103_standard_peripheral/Source/gd32vf103_gpio.c **** void gpio_pin_remap_config(uint32_t remap, ControlStatus newvalue)
 343:../../firmware/GD32VF103_standard_peripheral/Source/gd32vf103_gpio.c **** {
 529              		.loc 1 343 1 is_stmt 1
 530              		.cfi_startproc
 531              	.LVL49:
 344:../../firmware/GD32VF103_standard_peripheral/Source/gd32vf103_gpio.c ****     uint32_t remap1 = 0U, remap2 = 0U, temp_reg = 0U, temp_mask = 0U;
 532              		.loc 1 344 5
 345:../../firmware/GD32VF103_standard_peripheral/Source/gd32vf103_gpio.c **** 
 346:../../firmware/GD32VF103_standard_peripheral/Source/gd32vf103_gpio.c ****     if (AFIO_PCF1_FIELDS == (remap & AFIO_PCF1_FIELDS)) {
 533              		.loc 1 346 5
 347:../../firmware/GD32VF103_standard_peripheral/Source/gd32vf103_gpio.c ****         /* get AFIO_PCF1 regiter value */
 348:../../firmware/GD32VF103_standard_peripheral/Source/gd32vf103_gpio.c ****         temp_reg = AFIO_PCF1;
 534              		.loc 1 348 18 is_stmt 0
 535 0000 B7070140 		li	a5,1073807360
 346:../../firmware/GD32VF103_standard_peripheral/Source/gd32vf103_gpio.c ****         /* get AFIO_PCF1 regiter value */
 536              		.loc 1 346 8
 537 0004 63480506 		blt	a0,zero,.L61
 349:../../firmware/GD32VF103_standard_peripheral/Source/gd32vf103_gpio.c ****     } else {
 350:../../firmware/GD32VF103_standard_peripheral/Source/gd32vf103_gpio.c ****         /* get AFIO_PCF0 regiter value */
 351:../../firmware/GD32VF103_standard_peripheral/Source/gd32vf103_gpio.c ****         temp_reg = AFIO_PCF0;
 538              		.loc 1 351 9 is_stmt 1
 352:../../firmware/GD32VF103_standard_peripheral/Source/gd32vf103_gpio.c ****     }
 353:../../firmware/GD32VF103_standard_peripheral/Source/gd32vf103_gpio.c **** 
 354:../../firmware/GD32VF103_standard_peripheral/Source/gd32vf103_gpio.c ****     temp_mask = (remap & PCF_POSITION_MASK) >> 0x10U;
 355:../../firmware/GD32VF103_standard_peripheral/Source/gd32vf103_gpio.c ****     remap1 = remap & LSB_16BIT_MASK;
 356:../../firmware/GD32VF103_standard_peripheral/Source/gd32vf103_gpio.c **** 
 357:../../firmware/GD32VF103_standard_peripheral/Source/gd32vf103_gpio.c ****     /* judge pin remap type */
 358:../../firmware/GD32VF103_standard_peripheral/Source/gd32vf103_gpio.c ****     if ((PCF_LOCATION1_MASK | PCF_LOCATION2_MASK)
 359:../../firmware/GD32VF103_standard_peripheral/Source/gd32vf103_gpio.c ****             == (remap & (PCF_LOCATION1_MASK | PCF_LOCATION2_MASK))) {
 539              		.loc 1 359 23 is_stmt 0
 540 0008 37073000 		li	a4,3145728
 351:../../firmware/GD32VF103_standard_peripheral/Source/gd32vf103_gpio.c ****     }
 541              		.loc 1 351 18
 542 000c DC43     		lw	a5,4(a5)
 543              	.LVL50:
 354:../../firmware/GD32VF103_standard_peripheral/Source/gd32vf103_gpio.c ****     remap1 = remap & LSB_16BIT_MASK;
 544              		.loc 1 354 5 is_stmt 1
 355:../../firmware/GD32VF103_standard_peripheral/Source/gd32vf103_gpio.c **** 
 545              		.loc 1 355 5
 355:../../firmware/GD32VF103_standard_peripheral/Source/gd32vf103_gpio.c **** 
 546              		.loc 1 355 12 is_stmt 0
 547 000e 93160501 		slli	a3,a0,16
GAS LISTING /tmp/cc4RcUf0.s 			page 18


 548              		.loc 1 359 23
 549 0012 3376E500 		and	a2,a0,a4
 355:../../firmware/GD32VF103_standard_peripheral/Source/gd32vf103_gpio.c **** 
 550              		.loc 1 355 12
 551 0016 C182     		srli	a3,a3,16
 552              	.LVL51:
 358:../../firmware/GD32VF103_standard_peripheral/Source/gd32vf103_gpio.c ****             == (remap & (PCF_LOCATION1_MASK | PCF_LOCATION2_MASK))) {
 553              		.loc 1 358 5 is_stmt 1
 358:../../firmware/GD32VF103_standard_peripheral/Source/gd32vf103_gpio.c ****             == (remap & (PCF_LOCATION1_MASK | PCF_LOCATION2_MASK))) {
 554              		.loc 1 358 8 is_stmt 0
 555 0018 6308E606 		beq	a2,a4,.L62
 556              	.LVL52:
 557              	.L52:
 360:../../firmware/GD32VF103_standard_peripheral/Source/gd32vf103_gpio.c ****         temp_reg &= PCF_SWJCFG_MASK;
 361:../../firmware/GD32VF103_standard_peripheral/Source/gd32vf103_gpio.c ****         AFIO_PCF0 &= PCF_SWJCFG_MASK;
 362:../../firmware/GD32VF103_standard_peripheral/Source/gd32vf103_gpio.c ****     } else if (PCF_LOCATION2_MASK == (remap & PCF_LOCATION2_MASK)) {
 558              		.loc 1 362 12 is_stmt 1
 559              		.loc 1 362 15 is_stmt 0
 560 001c 1317B500 		slli	a4,a0,11
 561 0020 635C0702 		bge	a4,zero,.L54
 363:../../firmware/GD32VF103_standard_peripheral/Source/gd32vf103_gpio.c ****         remap2 = ((uint32_t) 0x03U) << temp_mask;
 562              		.loc 1 363 9 is_stmt 1
 563              	.LVL53:
 364:../../firmware/GD32VF103_standard_peripheral/Source/gd32vf103_gpio.c ****         temp_reg &= ~remap2;
 564              		.loc 1 364 9
 354:../../firmware/GD32VF103_standard_peripheral/Source/gd32vf103_gpio.c ****     remap1 = remap & LSB_16BIT_MASK;
 565              		.loc 1 354 45 is_stmt 0
 566 0024 13570501 		srli	a4,a0,16
 354:../../firmware/GD32VF103_standard_peripheral/Source/gd32vf103_gpio.c ****     remap1 = remap & LSB_16BIT_MASK;
 567              		.loc 1 354 15
 568 0028 1376F700 		andi	a2,a4,15
 363:../../firmware/GD32VF103_standard_peripheral/Source/gd32vf103_gpio.c ****         remap2 = ((uint32_t) 0x03U) << temp_mask;
 569              		.loc 1 363 16
 570 002c 0D47     		li	a4,3
 571 002e 3317C700 		sll	a4,a4,a2
 572              		.loc 1 364 21
 573 0032 1347F7FF 		not	a4,a4
 574              		.loc 1 364 18
 575 0036 7D8F     		and	a4,a4,a5
 576              	.LVL54:
 365:../../firmware/GD32VF103_standard_peripheral/Source/gd32vf103_gpio.c ****         temp_reg |= ~PCF_SWJCFG_MASK;
 577              		.loc 1 365 9 is_stmt 1
 578              		.loc 1 365 18 is_stmt 0
 579 0038 B707000F 		li	a5,251658240
 580 003c D98F     		or	a5,a4,a5
 581              	.LVL55:
 582              	.L53:
 366:../../firmware/GD32VF103_standard_peripheral/Source/gd32vf103_gpio.c ****     }  else {
 367:../../firmware/GD32VF103_standard_peripheral/Source/gd32vf103_gpio.c ****         temp_reg &= ~(remap1 << ((remap >> 0x15U) * 0x10U));
 368:../../firmware/GD32VF103_standard_peripheral/Source/gd32vf103_gpio.c ****         temp_reg |= ~PCF_SWJCFG_MASK;
 369:../../firmware/GD32VF103_standard_peripheral/Source/gd32vf103_gpio.c ****     }
 370:../../firmware/GD32VF103_standard_peripheral/Source/gd32vf103_gpio.c **** 
 371:../../firmware/GD32VF103_standard_peripheral/Source/gd32vf103_gpio.c ****     /* set pin remap value */
 372:../../firmware/GD32VF103_standard_peripheral/Source/gd32vf103_gpio.c ****     if (DISABLE != newvalue) {
 583              		.loc 1 372 5 is_stmt 1
 584              		.loc 1 372 8 is_stmt 0
 585 003e 99C5     		beq	a1,zero,.L55
GAS LISTING /tmp/cc4RcUf0.s 			page 19


 373:../../firmware/GD32VF103_standard_peripheral/Source/gd32vf103_gpio.c ****         temp_reg |= (remap1 << ((remap >> 0x15U) * 0x10U));
 586              		.loc 1 373 9 is_stmt 1
 587              		.loc 1 373 40 is_stmt 0
 588 0040 13575501 		srli	a4,a0,21
 589              		.loc 1 373 50
 590 0044 1207     		slli	a4,a4,4
 591              		.loc 1 373 29
 592 0046 B396E600 		sll	a3,a3,a4
 593              	.LVL56:
 594              		.loc 1 373 18
 595 004a D58F     		or	a5,a5,a3
 596              	.LVL57:
 597              	.L55:
 374:../../firmware/GD32VF103_standard_peripheral/Source/gd32vf103_gpio.c ****     }
 375:../../firmware/GD32VF103_standard_peripheral/Source/gd32vf103_gpio.c **** 
 376:../../firmware/GD32VF103_standard_peripheral/Source/gd32vf103_gpio.c ****     if (AFIO_PCF1_FIELDS == (remap & AFIO_PCF1_FIELDS)) {
 598              		.loc 1 376 5 is_stmt 1
 377:../../firmware/GD32VF103_standard_peripheral/Source/gd32vf103_gpio.c ****         /* set AFIO_PCF1 regiter value */
 378:../../firmware/GD32VF103_standard_peripheral/Source/gd32vf103_gpio.c ****         AFIO_PCF1 = temp_reg;
 599              		.loc 1 378 19 is_stmt 0
 600 004c 37070140 		li	a4,1073807360
 376:../../firmware/GD32VF103_standard_peripheral/Source/gd32vf103_gpio.c ****         /* set AFIO_PCF1 regiter value */
 601              		.loc 1 376 8
 602 0050 63400502 		blt	a0,zero,.L63
 379:../../firmware/GD32VF103_standard_peripheral/Source/gd32vf103_gpio.c ****     } else {
 380:../../firmware/GD32VF103_standard_peripheral/Source/gd32vf103_gpio.c ****         /* set AFIO_PCF0 regiter value */
 381:../../firmware/GD32VF103_standard_peripheral/Source/gd32vf103_gpio.c ****         AFIO_PCF0 = temp_reg;
 603              		.loc 1 381 9 is_stmt 1
 604              		.loc 1 381 19 is_stmt 0
 605 0054 5CC3     		sw	a5,4(a4)
 382:../../firmware/GD32VF103_standard_peripheral/Source/gd32vf103_gpio.c ****     }
 383:../../firmware/GD32VF103_standard_peripheral/Source/gd32vf103_gpio.c **** }
 606              		.loc 1 383 1
 607 0056 8280     		ret
 608              	.LVL58:
 609              	.L54:
 367:../../firmware/GD32VF103_standard_peripheral/Source/gd32vf103_gpio.c ****         temp_reg |= ~PCF_SWJCFG_MASK;
 610              		.loc 1 367 9 is_stmt 1
 367:../../firmware/GD32VF103_standard_peripheral/Source/gd32vf103_gpio.c ****         temp_reg |= ~PCF_SWJCFG_MASK;
 611              		.loc 1 367 41 is_stmt 0
 612 0058 13575501 		srli	a4,a0,21
 367:../../firmware/GD32VF103_standard_peripheral/Source/gd32vf103_gpio.c ****         temp_reg |= ~PCF_SWJCFG_MASK;
 613              		.loc 1 367 51
 614 005c 1207     		slli	a4,a4,4
 367:../../firmware/GD32VF103_standard_peripheral/Source/gd32vf103_gpio.c ****         temp_reg |= ~PCF_SWJCFG_MASK;
 615              		.loc 1 367 30
 616 005e 3397E600 		sll	a4,a3,a4
 367:../../firmware/GD32VF103_standard_peripheral/Source/gd32vf103_gpio.c ****         temp_reg |= ~PCF_SWJCFG_MASK;
 617              		.loc 1 367 21
 618 0062 1347F7FF 		not	a4,a4
 367:../../firmware/GD32VF103_standard_peripheral/Source/gd32vf103_gpio.c ****         temp_reg |= ~PCF_SWJCFG_MASK;
 619              		.loc 1 367 18
 620 0066 7D8F     		and	a4,a4,a5
 621              	.LVL59:
 368:../../firmware/GD32VF103_standard_peripheral/Source/gd32vf103_gpio.c ****     }
 622              		.loc 1 368 9 is_stmt 1
 368:../../firmware/GD32VF103_standard_peripheral/Source/gd32vf103_gpio.c ****     }
GAS LISTING /tmp/cc4RcUf0.s 			page 20


 623              		.loc 1 368 18 is_stmt 0
 624 0068 B707000F 		li	a5,251658240
 625 006c D98F     		or	a5,a4,a5
 626              	.LVL60:
 627 006e C1BF     		j	.L53
 628              	.LVL61:
 629              	.L63:
 378:../../firmware/GD32VF103_standard_peripheral/Source/gd32vf103_gpio.c ****     } else {
 630              		.loc 1 378 9 is_stmt 1
 378:../../firmware/GD32VF103_standard_peripheral/Source/gd32vf103_gpio.c ****     } else {
 631              		.loc 1 378 19 is_stmt 0
 632 0070 5CCF     		sw	a5,28(a4)
 633 0072 8280     		ret
 634              	.LVL62:
 635              	.L61:
 348:../../firmware/GD32VF103_standard_peripheral/Source/gd32vf103_gpio.c ****     } else {
 636              		.loc 1 348 9 is_stmt 1
 359:../../firmware/GD32VF103_standard_peripheral/Source/gd32vf103_gpio.c ****         temp_reg &= PCF_SWJCFG_MASK;
 637              		.loc 1 359 23 is_stmt 0
 638 0074 37073000 		li	a4,3145728
 348:../../firmware/GD32VF103_standard_peripheral/Source/gd32vf103_gpio.c ****     } else {
 639              		.loc 1 348 18
 640 0078 DC4F     		lw	a5,28(a5)
 641              	.LVL63:
 354:../../firmware/GD32VF103_standard_peripheral/Source/gd32vf103_gpio.c ****     remap1 = remap & LSB_16BIT_MASK;
 642              		.loc 1 354 5 is_stmt 1
 355:../../firmware/GD32VF103_standard_peripheral/Source/gd32vf103_gpio.c **** 
 643              		.loc 1 355 5
 355:../../firmware/GD32VF103_standard_peripheral/Source/gd32vf103_gpio.c **** 
 644              		.loc 1 355 12 is_stmt 0
 645 007a 93160501 		slli	a3,a0,16
 359:../../firmware/GD32VF103_standard_peripheral/Source/gd32vf103_gpio.c ****         temp_reg &= PCF_SWJCFG_MASK;
 646              		.loc 1 359 23
 647 007e 3376E500 		and	a2,a0,a4
 355:../../firmware/GD32VF103_standard_peripheral/Source/gd32vf103_gpio.c **** 
 648              		.loc 1 355 12
 649 0082 C182     		srli	a3,a3,16
 650              	.LVL64:
 358:../../firmware/GD32VF103_standard_peripheral/Source/gd32vf103_gpio.c ****             == (remap & (PCF_LOCATION1_MASK | PCF_LOCATION2_MASK))) {
 651              		.loc 1 358 5 is_stmt 1
 358:../../firmware/GD32VF103_standard_peripheral/Source/gd32vf103_gpio.c ****             == (remap & (PCF_LOCATION1_MASK | PCF_LOCATION2_MASK))) {
 652              		.loc 1 358 8 is_stmt 0
 653 0084 E31CE6F8 		bne	a2,a4,.L52
 654              	.LVL65:
 655              	.L62:
 360:../../firmware/GD32VF103_standard_peripheral/Source/gd32vf103_gpio.c ****         AFIO_PCF0 &= PCF_SWJCFG_MASK;
 656              		.loc 1 360 9 is_stmt 1
 361:../../firmware/GD32VF103_standard_peripheral/Source/gd32vf103_gpio.c ****     } else if (PCF_LOCATION2_MASK == (remap & PCF_LOCATION2_MASK)) {
 657              		.loc 1 361 19 is_stmt 0
 658 0088 37080140 		li	a6,1073807360
 659 008c 03264800 		lw	a2,4(a6)
 360:../../firmware/GD32VF103_standard_peripheral/Source/gd32vf103_gpio.c ****         AFIO_PCF0 &= PCF_SWJCFG_MASK;
 660              		.loc 1 360 18
 661 0090 370700F1 		li	a4,-251658240
 662 0094 7D17     		addi	a4,a4,-1
 361:../../firmware/GD32VF103_standard_peripheral/Source/gd32vf103_gpio.c ****     } else if (PCF_LOCATION2_MASK == (remap & PCF_LOCATION2_MASK)) {
 663              		.loc 1 361 19
GAS LISTING /tmp/cc4RcUf0.s 			page 21


 664 0096 798E     		and	a2,a2,a4
 360:../../firmware/GD32VF103_standard_peripheral/Source/gd32vf103_gpio.c ****         AFIO_PCF0 &= PCF_SWJCFG_MASK;
 665              		.loc 1 360 18
 666 0098 F98F     		and	a5,a5,a4
 667              	.LVL66:
 361:../../firmware/GD32VF103_standard_peripheral/Source/gd32vf103_gpio.c ****     } else if (PCF_LOCATION2_MASK == (remap & PCF_LOCATION2_MASK)) {
 668              		.loc 1 361 9 is_stmt 1
 361:../../firmware/GD32VF103_standard_peripheral/Source/gd32vf103_gpio.c ****     } else if (PCF_LOCATION2_MASK == (remap & PCF_LOCATION2_MASK)) {
 669              		.loc 1 361 19 is_stmt 0
 670 009a 2322C800 		sw	a2,4(a6)
 671 009e 45B7     		j	.L53
 672              		.cfi_endproc
 673              	.LFE13:
 675              		.section	.text.gpio_exti_source_select,"ax",@progbits
 676              		.align	1
 677              		.globl	gpio_exti_source_select
 679              	gpio_exti_source_select:
 680              	.LFB14:
 384:../../firmware/GD32VF103_standard_peripheral/Source/gd32vf103_gpio.c **** 
 385:../../firmware/GD32VF103_standard_peripheral/Source/gd32vf103_gpio.c **** /*!
 386:../../firmware/GD32VF103_standard_peripheral/Source/gd32vf103_gpio.c ****     \brief      select GPIO pin exti sources
 387:../../firmware/GD32VF103_standard_peripheral/Source/gd32vf103_gpio.c ****     \param[in]  gpio_outputport: gpio event output port
 388:../../firmware/GD32VF103_standard_peripheral/Source/gd32vf103_gpio.c ****                 only one parameter can be selected which are shown as below:
 389:../../firmware/GD32VF103_standard_peripheral/Source/gd32vf103_gpio.c ****       \arg        GPIO_PORT_SOURCE_GPIOA: output port source A
 390:../../firmware/GD32VF103_standard_peripheral/Source/gd32vf103_gpio.c ****       \arg        GPIO_PORT_SOURCE_GPIOB: output port source B
 391:../../firmware/GD32VF103_standard_peripheral/Source/gd32vf103_gpio.c ****       \arg        GPIO_PORT_SOURCE_GPIOC: output port source C
 392:../../firmware/GD32VF103_standard_peripheral/Source/gd32vf103_gpio.c ****       \arg        GPIO_PORT_SOURCE_GPIOD: output port source D
 393:../../firmware/GD32VF103_standard_peripheral/Source/gd32vf103_gpio.c ****       \arg        GPIO_PORT_SOURCE_GPIOE: output port source E
 394:../../firmware/GD32VF103_standard_peripheral/Source/gd32vf103_gpio.c ****     \param[in]  gpio_outputpin: GPIO_PIN_SOURCE_x(x=0..15)
 395:../../firmware/GD32VF103_standard_peripheral/Source/gd32vf103_gpio.c ****     \param[out] none
 396:../../firmware/GD32VF103_standard_peripheral/Source/gd32vf103_gpio.c ****     \retval     none
 397:../../firmware/GD32VF103_standard_peripheral/Source/gd32vf103_gpio.c **** */
 398:../../firmware/GD32VF103_standard_peripheral/Source/gd32vf103_gpio.c **** void gpio_exti_source_select(uint8_t output_port, uint8_t output_pin)
 399:../../firmware/GD32VF103_standard_peripheral/Source/gd32vf103_gpio.c **** {
 681              		.loc 1 399 1 is_stmt 1
 682              		.cfi_startproc
 683              	.LVL67:
 400:../../firmware/GD32VF103_standard_peripheral/Source/gd32vf103_gpio.c ****     uint32_t source = 0U;
 684              		.loc 1 400 5
 401:../../firmware/GD32VF103_standard_peripheral/Source/gd32vf103_gpio.c ****     source = ((uint32_t) 0x0FU)
 685              		.loc 1 401 5
 402:../../firmware/GD32VF103_standard_peripheral/Source/gd32vf103_gpio.c ****             << (AFIO_EXTI_SOURCE_FIELDS * (output_pin & AFIO_EXTI_SOURCE_MASK));
 686              		.loc 1 402 55 is_stmt 0
 687 0000 93F73500 		andi	a5,a1,3
 688              		.loc 1 402 41
 689 0004 8A07     		slli	a5,a5,2
 690              	.LVL68:
 403:../../firmware/GD32VF103_standard_peripheral/Source/gd32vf103_gpio.c **** 
 404:../../firmware/GD32VF103_standard_peripheral/Source/gd32vf103_gpio.c ****     /* select EXTI sources */
 405:../../firmware/GD32VF103_standard_peripheral/Source/gd32vf103_gpio.c ****     if (GPIO_PIN_SOURCE_4 > output_pin) {
 691              		.loc 1 405 5 is_stmt 1
 401:../../firmware/GD32VF103_standard_peripheral/Source/gd32vf103_gpio.c ****             << (AFIO_EXTI_SOURCE_FIELDS * (output_pin & AFIO_EXTI_SOURCE_MASK));
 692              		.loc 1 401 12 is_stmt 0
 693 0006 3D47     		li	a4,15
 694 0008 3317F700 		sll	a4,a4,a5
 695              		.loc 1 405 8
 696 000c 8D46     		li	a3,3
GAS LISTING /tmp/cc4RcUf0.s 			page 22


 697 000e 1347F7FF 		not	a4,a4
 698 0012 3315F500 		sll	a0,a0,a5
 699              	.LVL69:
 700 0016 63EBB600 		bgtu	a1,a3,.L65
 406:../../firmware/GD32VF103_standard_peripheral/Source/gd32vf103_gpio.c ****         /* select EXTI0/EXTI1/EXTI2/EXTI3 */
 407:../../firmware/GD32VF103_standard_peripheral/Source/gd32vf103_gpio.c ****         AFIO_EXTISS0 &= ~source;
 701              		.loc 1 407 9 is_stmt 1
 702              		.loc 1 407 22 is_stmt 0
 703 001a B7060140 		li	a3,1073807360
 704 001e 9C46     		lw	a5,8(a3)
 705              	.LVL70:
 706 0020 7D8F     		and	a4,a5,a4
 707 0022 98C6     		sw	a4,8(a3)
 408:../../firmware/GD32VF103_standard_peripheral/Source/gd32vf103_gpio.c ****         AFIO_EXTISS0 |= (((uint32_t) output_port)
 708              		.loc 1 408 9 is_stmt 1
 709              		.loc 1 408 22 is_stmt 0
 710 0024 9C46     		lw	a5,8(a3)
 711 0026 C98F     		or	a5,a5,a0
 712 0028 9CC6     		sw	a5,8(a3)
 713 002a 8280     		ret
 714              	.LVL71:
 715              	.L65:
 409:../../firmware/GD32VF103_standard_peripheral/Source/gd32vf103_gpio.c ****                 << (AFIO_EXTI_SOURCE_FIELDS
 410:../../firmware/GD32VF103_standard_peripheral/Source/gd32vf103_gpio.c ****                         * (output_pin & AFIO_EXTI_SOURCE_MASK)));
 411:../../firmware/GD32VF103_standard_peripheral/Source/gd32vf103_gpio.c ****     } else if (GPIO_PIN_SOURCE_8 > output_pin) {
 716              		.loc 1 411 12 is_stmt 1
 717              		.loc 1 411 15 is_stmt 0
 718 002c 9D47     		li	a5,7
 719              	.LVL72:
 720 002e 63EBB700 		bgtu	a1,a5,.L67
 412:../../firmware/GD32VF103_standard_peripheral/Source/gd32vf103_gpio.c ****         /* select EXTI4/EXTI5/EXTI6/EXTI7 */
 413:../../firmware/GD32VF103_standard_peripheral/Source/gd32vf103_gpio.c ****         AFIO_EXTISS1 &= ~source;
 721              		.loc 1 413 9 is_stmt 1
 722              		.loc 1 413 22 is_stmt 0
 723 0032 B7060140 		li	a3,1073807360
 724 0036 DC46     		lw	a5,12(a3)
 725 0038 7D8F     		and	a4,a5,a4
 726 003a D8C6     		sw	a4,12(a3)
 414:../../firmware/GD32VF103_standard_peripheral/Source/gd32vf103_gpio.c ****         AFIO_EXTISS1 |= (((uint32_t) output_port)
 727              		.loc 1 414 9 is_stmt 1
 728              		.loc 1 414 22 is_stmt 0
 729 003c DC46     		lw	a5,12(a3)
 730 003e C98F     		or	a5,a5,a0
 731 0040 DCC6     		sw	a5,12(a3)
 732 0042 8280     		ret
 733              	.L67:
 415:../../firmware/GD32VF103_standard_peripheral/Source/gd32vf103_gpio.c ****                 << (AFIO_EXTI_SOURCE_FIELDS
 416:../../firmware/GD32VF103_standard_peripheral/Source/gd32vf103_gpio.c ****                         * (output_pin & AFIO_EXTI_SOURCE_MASK)));
 417:../../firmware/GD32VF103_standard_peripheral/Source/gd32vf103_gpio.c ****     } else if (GPIO_PIN_SOURCE_12 > output_pin) {
 734              		.loc 1 417 12 is_stmt 1
 735              		.loc 1 417 15 is_stmt 0
 736 0044 AD47     		li	a5,11
 418:../../firmware/GD32VF103_standard_peripheral/Source/gd32vf103_gpio.c ****         /* select EXTI8/EXTI9/EXTI10/EXTI11 */
 419:../../firmware/GD32VF103_standard_peripheral/Source/gd32vf103_gpio.c ****         AFIO_EXTISS2 &= ~source;
 737              		.loc 1 419 22
 738 0046 B7060140 		li	a3,1073807360
 417:../../firmware/GD32VF103_standard_peripheral/Source/gd32vf103_gpio.c ****         /* select EXTI8/EXTI9/EXTI10/EXTI11 */
GAS LISTING /tmp/cc4RcUf0.s 			page 23


 739              		.loc 1 417 15
 740 004a 63E9B700 		bgtu	a1,a5,.L68
 741              		.loc 1 419 9 is_stmt 1
 742              		.loc 1 419 22 is_stmt 0
 743 004e 9C4A     		lw	a5,16(a3)
 744 0050 7D8F     		and	a4,a5,a4
 745 0052 98CA     		sw	a4,16(a3)
 420:../../firmware/GD32VF103_standard_peripheral/Source/gd32vf103_gpio.c ****         AFIO_EXTISS2 |= (((uint32_t) output_port)
 746              		.loc 1 420 9 is_stmt 1
 747              		.loc 1 420 22 is_stmt 0
 748 0054 9C4A     		lw	a5,16(a3)
 749 0056 C98F     		or	a5,a5,a0
 750 0058 9CCA     		sw	a5,16(a3)
 751 005a 8280     		ret
 752              	.L68:
 421:../../firmware/GD32VF103_standard_peripheral/Source/gd32vf103_gpio.c ****                 << (AFIO_EXTI_SOURCE_FIELDS
 422:../../firmware/GD32VF103_standard_peripheral/Source/gd32vf103_gpio.c ****                         * (output_pin & AFIO_EXTI_SOURCE_MASK)));
 423:../../firmware/GD32VF103_standard_peripheral/Source/gd32vf103_gpio.c ****     } else {
 424:../../firmware/GD32VF103_standard_peripheral/Source/gd32vf103_gpio.c ****         /* select EXTI12/EXTI13/EXTI14/EXTI15 */
 425:../../firmware/GD32VF103_standard_peripheral/Source/gd32vf103_gpio.c ****         AFIO_EXTISS3 &= ~source;
 753              		.loc 1 425 9 is_stmt 1
 754              		.loc 1 425 22 is_stmt 0
 755 005c DC4A     		lw	a5,20(a3)
 756 005e 7D8F     		and	a4,a5,a4
 757 0060 D8CA     		sw	a4,20(a3)
 426:../../firmware/GD32VF103_standard_peripheral/Source/gd32vf103_gpio.c ****         AFIO_EXTISS3 |= (((uint32_t) output_port)
 758              		.loc 1 426 9 is_stmt 1
 759              		.loc 1 426 22 is_stmt 0
 760 0062 DC4A     		lw	a5,20(a3)
 761 0064 C98F     		or	a5,a5,a0
 762 0066 DCCA     		sw	a5,20(a3)
 427:../../firmware/GD32VF103_standard_peripheral/Source/gd32vf103_gpio.c ****                 << (AFIO_EXTI_SOURCE_FIELDS
 428:../../firmware/GD32VF103_standard_peripheral/Source/gd32vf103_gpio.c ****                         * (output_pin & AFIO_EXTI_SOURCE_MASK)));
 429:../../firmware/GD32VF103_standard_peripheral/Source/gd32vf103_gpio.c ****     }
 430:../../firmware/GD32VF103_standard_peripheral/Source/gd32vf103_gpio.c **** }
 763              		.loc 1 430 1
 764 0068 8280     		ret
 765              		.cfi_endproc
 766              	.LFE14:
 768              		.section	.text.gpio_event_output_config,"ax",@progbits
 769              		.align	1
 770              		.globl	gpio_event_output_config
 772              	gpio_event_output_config:
 773              	.LFB15:
 431:../../firmware/GD32VF103_standard_peripheral/Source/gd32vf103_gpio.c **** 
 432:../../firmware/GD32VF103_standard_peripheral/Source/gd32vf103_gpio.c **** /*!
 433:../../firmware/GD32VF103_standard_peripheral/Source/gd32vf103_gpio.c ****     \brief      configure GPIO pin event output
 434:../../firmware/GD32VF103_standard_peripheral/Source/gd32vf103_gpio.c ****     \param[in]  output_port: gpio event output port
 435:../../firmware/GD32VF103_standard_peripheral/Source/gd32vf103_gpio.c ****                 only one parameter can be selected which are shown as below:
 436:../../firmware/GD32VF103_standard_peripheral/Source/gd32vf103_gpio.c ****       \arg        GPIO_EVENT_PORT_GPIOA: event output port A
 437:../../firmware/GD32VF103_standard_peripheral/Source/gd32vf103_gpio.c ****       \arg        GPIO_EVENT_PORT_GPIOB: event output port B
 438:../../firmware/GD32VF103_standard_peripheral/Source/gd32vf103_gpio.c ****       \arg        GPIO_EVENT_PORT_GPIOC: event output port C
 439:../../firmware/GD32VF103_standard_peripheral/Source/gd32vf103_gpio.c ****       \arg        GPIO_EVENT_PORT_GPIOD: event output port D
 440:../../firmware/GD32VF103_standard_peripheral/Source/gd32vf103_gpio.c ****       \arg        GPIO_EVENT_PORT_GPIOE: event output port E
 441:../../firmware/GD32VF103_standard_peripheral/Source/gd32vf103_gpio.c ****     \param[in]  output_pin:
 442:../../firmware/GD32VF103_standard_peripheral/Source/gd32vf103_gpio.c ****                 only one parameter can be selected which are shown as below:
 443:../../firmware/GD32VF103_standard_peripheral/Source/gd32vf103_gpio.c ****       \arg        GPIO_EVENT_PIN_x(x=0..15)
GAS LISTING /tmp/cc4RcUf0.s 			page 24


 444:../../firmware/GD32VF103_standard_peripheral/Source/gd32vf103_gpio.c ****     \param[out] none
 445:../../firmware/GD32VF103_standard_peripheral/Source/gd32vf103_gpio.c ****     \retval     none
 446:../../firmware/GD32VF103_standard_peripheral/Source/gd32vf103_gpio.c **** */
 447:../../firmware/GD32VF103_standard_peripheral/Source/gd32vf103_gpio.c **** void gpio_event_output_config(uint8_t output_port, uint8_t output_pin)
 448:../../firmware/GD32VF103_standard_peripheral/Source/gd32vf103_gpio.c **** {
 774              		.loc 1 448 1 is_stmt 1
 775              		.cfi_startproc
 776              	.LVL73:
 449:../../firmware/GD32VF103_standard_peripheral/Source/gd32vf103_gpio.c ****     uint32_t reg = 0U;
 777              		.loc 1 449 5
 450:../../firmware/GD32VF103_standard_peripheral/Source/gd32vf103_gpio.c ****     reg = AFIO_EC;
 778              		.loc 1 450 5
 779              		.loc 1 450 9 is_stmt 0
 780 0000 37070140 		li	a4,1073807360
 781 0004 1C43     		lw	a5,0(a4)
 782              	.LVL74:
 451:../../firmware/GD32VF103_standard_peripheral/Source/gd32vf103_gpio.c **** 
 452:../../firmware/GD32VF103_standard_peripheral/Source/gd32vf103_gpio.c ****     /* clear AFIO_EC_PORT and AFIO_EC_PIN bits */
 453:../../firmware/GD32VF103_standard_peripheral/Source/gd32vf103_gpio.c ****     reg &= (uint32_t) (~(AFIO_EC_PORT | AFIO_EC_PIN));
 783              		.loc 1 453 5 is_stmt 1
 454:../../firmware/GD32VF103_standard_peripheral/Source/gd32vf103_gpio.c **** 
 455:../../firmware/GD32VF103_standard_peripheral/Source/gd32vf103_gpio.c ****     reg |= (uint32_t) ((uint32_t) output_port << GPIO_OUTPUT_PORT_OFFSET);
 784              		.loc 1 455 5
 456:../../firmware/GD32VF103_standard_peripheral/Source/gd32vf103_gpio.c ****     reg |= (uint32_t) output_pin;
 785              		.loc 1 456 5
 455:../../firmware/GD32VF103_standard_peripheral/Source/gd32vf103_gpio.c ****     reg |= (uint32_t) output_pin;
 786              		.loc 1 455 12 is_stmt 0
 787 0006 1205     		slli	a0,a0,4
 788              	.LVL75:
 453:../../firmware/GD32VF103_standard_peripheral/Source/gd32vf103_gpio.c **** 
 789              		.loc 1 453 9
 790 0008 93F707F8 		andi	a5,a5,-128
 791              	.LVL76:
 792 000c CD8F     		or	a5,a5,a1
 793              		.loc 1 456 9
 794 000e C98F     		or	a5,a0,a5
 795              	.LVL77:
 457:../../firmware/GD32VF103_standard_peripheral/Source/gd32vf103_gpio.c **** 
 458:../../firmware/GD32VF103_standard_peripheral/Source/gd32vf103_gpio.c ****     AFIO_EC = reg;
 796              		.loc 1 458 5 is_stmt 1
 797              		.loc 1 458 13 is_stmt 0
 798 0010 1CC3     		sw	a5,0(a4)
 459:../../firmware/GD32VF103_standard_peripheral/Source/gd32vf103_gpio.c **** }
 799              		.loc 1 459 1
 800 0012 8280     		ret
 801              		.cfi_endproc
 802              	.LFE15:
 804              		.section	.text.gpio_event_output_enable,"ax",@progbits
 805              		.align	1
 806              		.globl	gpio_event_output_enable
 808              	gpio_event_output_enable:
 809              	.LFB16:
 460:../../firmware/GD32VF103_standard_peripheral/Source/gd32vf103_gpio.c **** 
 461:../../firmware/GD32VF103_standard_peripheral/Source/gd32vf103_gpio.c **** /*!
 462:../../firmware/GD32VF103_standard_peripheral/Source/gd32vf103_gpio.c ****     \brief      enable GPIO pin event output
 463:../../firmware/GD32VF103_standard_peripheral/Source/gd32vf103_gpio.c ****     \param[in]  none
 464:../../firmware/GD32VF103_standard_peripheral/Source/gd32vf103_gpio.c ****     \param[out] none
GAS LISTING /tmp/cc4RcUf0.s 			page 25


 465:../../firmware/GD32VF103_standard_peripheral/Source/gd32vf103_gpio.c ****     \retval     none
 466:../../firmware/GD32VF103_standard_peripheral/Source/gd32vf103_gpio.c **** */
 467:../../firmware/GD32VF103_standard_peripheral/Source/gd32vf103_gpio.c **** void gpio_event_output_enable(void)
 468:../../firmware/GD32VF103_standard_peripheral/Source/gd32vf103_gpio.c **** {
 810              		.loc 1 468 1 is_stmt 1
 811              		.cfi_startproc
 469:../../firmware/GD32VF103_standard_peripheral/Source/gd32vf103_gpio.c ****     AFIO_EC |= AFIO_EC_EOE;
 812              		.loc 1 469 5
 813              		.loc 1 469 13 is_stmt 0
 814 0000 37070140 		li	a4,1073807360
 815 0004 1C43     		lw	a5,0(a4)
 816 0006 93E70708 		ori	a5,a5,128
 817 000a 1CC3     		sw	a5,0(a4)
 470:../../firmware/GD32VF103_standard_peripheral/Source/gd32vf103_gpio.c **** }
 818              		.loc 1 470 1
 819 000c 8280     		ret
 820              		.cfi_endproc
 821              	.LFE16:
 823              		.section	.text.gpio_event_output_disable,"ax",@progbits
 824              		.align	1
 825              		.globl	gpio_event_output_disable
 827              	gpio_event_output_disable:
 828              	.LFB17:
 471:../../firmware/GD32VF103_standard_peripheral/Source/gd32vf103_gpio.c **** 
 472:../../firmware/GD32VF103_standard_peripheral/Source/gd32vf103_gpio.c **** /*!
 473:../../firmware/GD32VF103_standard_peripheral/Source/gd32vf103_gpio.c ****     \brief      disable GPIO pin event output
 474:../../firmware/GD32VF103_standard_peripheral/Source/gd32vf103_gpio.c ****     \param[in]  none
 475:../../firmware/GD32VF103_standard_peripheral/Source/gd32vf103_gpio.c ****     \param[out] none
 476:../../firmware/GD32VF103_standard_peripheral/Source/gd32vf103_gpio.c ****     \retval     none
 477:../../firmware/GD32VF103_standard_peripheral/Source/gd32vf103_gpio.c **** */
 478:../../firmware/GD32VF103_standard_peripheral/Source/gd32vf103_gpio.c **** void gpio_event_output_disable(void)
 479:../../firmware/GD32VF103_standard_peripheral/Source/gd32vf103_gpio.c **** {
 829              		.loc 1 479 1 is_stmt 1
 830              		.cfi_startproc
 480:../../firmware/GD32VF103_standard_peripheral/Source/gd32vf103_gpio.c ****     AFIO_EC &= (uint32_t) (~AFIO_EC_EOE);
 831              		.loc 1 480 5
 832              		.loc 1 480 13 is_stmt 0
 833 0000 37070140 		li	a4,1073807360
 834 0004 1C43     		lw	a5,0(a4)
 835 0006 93F7F7F7 		andi	a5,a5,-129
 836 000a 1CC3     		sw	a5,0(a4)
 481:../../firmware/GD32VF103_standard_peripheral/Source/gd32vf103_gpio.c **** }
 837              		.loc 1 481 1
 838 000c 8280     		ret
 839              		.cfi_endproc
 840              	.LFE17:
 842              		.section	.text.gpio_pin_lock,"ax",@progbits
 843              		.align	1
 844              		.globl	gpio_pin_lock
 846              	gpio_pin_lock:
 847              	.LFB18:
 482:../../firmware/GD32VF103_standard_peripheral/Source/gd32vf103_gpio.c **** 
 483:../../firmware/GD32VF103_standard_peripheral/Source/gd32vf103_gpio.c **** /*!
 484:../../firmware/GD32VF103_standard_peripheral/Source/gd32vf103_gpio.c ****     \brief      lock GPIO pin
 485:../../firmware/GD32VF103_standard_peripheral/Source/gd32vf103_gpio.c ****     \param[in]  gpio_periph: GPIOx(x = A,B,C,D,E)
 486:../../firmware/GD32VF103_standard_peripheral/Source/gd32vf103_gpio.c ****     \param[in]  pin: GPIO pin
 487:../../firmware/GD32VF103_standard_peripheral/Source/gd32vf103_gpio.c ****                 one or more parameters can be selected which are shown as below:
GAS LISTING /tmp/cc4RcUf0.s 			page 26


 488:../../firmware/GD32VF103_standard_peripheral/Source/gd32vf103_gpio.c ****       \arg        GPIO_PIN_x(x=0..15), GPIO_PIN_ALL
 489:../../firmware/GD32VF103_standard_peripheral/Source/gd32vf103_gpio.c ****     \param[out] none
 490:../../firmware/GD32VF103_standard_peripheral/Source/gd32vf103_gpio.c ****     \retval     none
 491:../../firmware/GD32VF103_standard_peripheral/Source/gd32vf103_gpio.c **** */
 492:../../firmware/GD32VF103_standard_peripheral/Source/gd32vf103_gpio.c **** void gpio_pin_lock(uint32_t gpio_periph, uint32_t pin)
 493:../../firmware/GD32VF103_standard_peripheral/Source/gd32vf103_gpio.c **** {
 848              		.loc 1 493 1 is_stmt 1
 849              		.cfi_startproc
 850              	.LVL78:
 494:../../firmware/GD32VF103_standard_peripheral/Source/gd32vf103_gpio.c ****     uint32_t lock = 0x00010000U;
 851              		.loc 1 494 5
 495:../../firmware/GD32VF103_standard_peripheral/Source/gd32vf103_gpio.c ****     lock |= pin;
 852              		.loc 1 495 5
 853              		.loc 1 495 10 is_stmt 0
 854 0000 C167     		li	a5,65536
 855 0002 CD8F     		or	a5,a1,a5
 856              	.LVL79:
 496:../../firmware/GD32VF103_standard_peripheral/Source/gd32vf103_gpio.c **** 
 497:../../firmware/GD32VF103_standard_peripheral/Source/gd32vf103_gpio.c ****     /* lock key writing sequence: write 1 -> write 0 -> write 1 -> read 0 -> read 1 */
 498:../../firmware/GD32VF103_standard_peripheral/Source/gd32vf103_gpio.c ****     GPIO_LOCK(gpio_periph) = (uint32_t) lock;
 857              		.loc 1 498 5 is_stmt 1
 858              		.loc 1 498 28 is_stmt 0
 859 0004 1CCD     		sw	a5,24(a0)
 499:../../firmware/GD32VF103_standard_peripheral/Source/gd32vf103_gpio.c ****     GPIO_LOCK(gpio_periph) = (uint32_t) pin;
 860              		.loc 1 499 5 is_stmt 1
 861              		.loc 1 499 28 is_stmt 0
 862 0006 0CCD     		sw	a1,24(a0)
 500:../../firmware/GD32VF103_standard_peripheral/Source/gd32vf103_gpio.c ****     GPIO_LOCK(gpio_periph) = (uint32_t) lock;
 863              		.loc 1 500 5 is_stmt 1
 864              		.loc 1 500 28 is_stmt 0
 865 0008 1CCD     		sw	a5,24(a0)
 501:../../firmware/GD32VF103_standard_peripheral/Source/gd32vf103_gpio.c ****     lock = GPIO_LOCK(gpio_periph);
 866              		.loc 1 501 5 is_stmt 1
 867              		.loc 1 501 10 is_stmt 0
 868 000a 1C4D     		lw	a5,24(a0)
 869              	.LVL80:
 502:../../firmware/GD32VF103_standard_peripheral/Source/gd32vf103_gpio.c ****     lock = GPIO_LOCK(gpio_periph);
 870              		.loc 1 502 5 is_stmt 1
 871              		.loc 1 502 10 is_stmt 0
 872 000c 1C4D     		lw	a5,24(a0)
 503:../../firmware/GD32VF103_standard_peripheral/Source/gd32vf103_gpio.c **** }
 873              		.loc 1 503 1
 874 000e 8280     		ret
 875              		.cfi_endproc
 876              	.LFE18:
 878              		.text
 879              	.Letext0:
 880              		.file 2 "/home/remahl/toolchain-gd32v/toolchain-gd32v-linux/compiler/riscv64-unknown-elf/include/m
 881              		.file 3 "/home/remahl/toolchain-gd32v/toolchain-gd32v-linux/compiler/riscv64-unknown-elf/include/s
 882              		.file 4 "../../firmware/GD32VF103_standard_peripheral/gd32vf103.h"
 883              		.file 5 "../../firmware/GD32VF103_standard_peripheral/Include/gd32vf103_rcu.h"
 884              		.file 6 "../../firmware/GD32VF103_standard_peripheral/Include/gd32vf103_gpio.h"
 885              		.file 7 "../../firmware/GD32VF103_standard_peripheral/system_gd32vf103.h"
GAS LISTING /tmp/cc4RcUf0.s 			page 27

