GAS LISTING /tmp/ccOT3P9B.s 			page 1


   1              		.file	"gd32vf103_fwdgt.c"
   2              		.option nopic
   3              		.attribute arch, "rv32i2p0_m2p0_a2p0_c2p0"
   4              		.attribute unaligned_access, 0
   5              		.attribute stack_align, 16
   6              		.text
   7              	.Ltext0:
   8              		.cfi_sections	.debug_frame
   9              		.section	.text.fwdgt_write_enable,"ax",@progbits
  10              		.align	1
  11              		.globl	fwdgt_write_enable
  13              	fwdgt_write_enable:
  14              	.LFB2:
  15              		.file 1 "../../firmware/GD32VF103_standard_peripheral/Source/gd32vf103_fwdgt.c"
   1:../../firmware/GD32VF103_standard_peripheral/Source/gd32vf103_fwdgt.c **** /*!
   2:../../firmware/GD32VF103_standard_peripheral/Source/gd32vf103_fwdgt.c ****     \file    gd32vf103_fwdgt.c
   3:../../firmware/GD32VF103_standard_peripheral/Source/gd32vf103_fwdgt.c ****     \brief   FWDGT driver
   4:../../firmware/GD32VF103_standard_peripheral/Source/gd32vf103_fwdgt.c ****        
   5:../../firmware/GD32VF103_standard_peripheral/Source/gd32vf103_fwdgt.c ****     \version 2019-06-05, V1.0.0, firmware for GD32VF103
   6:../../firmware/GD32VF103_standard_peripheral/Source/gd32vf103_fwdgt.c ****     \version 2020-08-04, V1.1.0, firmware for GD32VF103
   7:../../firmware/GD32VF103_standard_peripheral/Source/gd32vf103_fwdgt.c **** */
   8:../../firmware/GD32VF103_standard_peripheral/Source/gd32vf103_fwdgt.c **** 
   9:../../firmware/GD32VF103_standard_peripheral/Source/gd32vf103_fwdgt.c **** /*
  10:../../firmware/GD32VF103_standard_peripheral/Source/gd32vf103_fwdgt.c ****     Copyright (c) 2020, GigaDevice Semiconductor Inc.
  11:../../firmware/GD32VF103_standard_peripheral/Source/gd32vf103_fwdgt.c **** 
  12:../../firmware/GD32VF103_standard_peripheral/Source/gd32vf103_fwdgt.c ****     Redistribution and use in source and binary forms, with or without modification, 
  13:../../firmware/GD32VF103_standard_peripheral/Source/gd32vf103_fwdgt.c **** are permitted provided that the following conditions are met:
  14:../../firmware/GD32VF103_standard_peripheral/Source/gd32vf103_fwdgt.c **** 
  15:../../firmware/GD32VF103_standard_peripheral/Source/gd32vf103_fwdgt.c ****     1. Redistributions of source code must retain the above copyright notice, this 
  16:../../firmware/GD32VF103_standard_peripheral/Source/gd32vf103_fwdgt.c ****        list of conditions and the following disclaimer.
  17:../../firmware/GD32VF103_standard_peripheral/Source/gd32vf103_fwdgt.c ****     2. Redistributions in binary form must reproduce the above copyright notice, 
  18:../../firmware/GD32VF103_standard_peripheral/Source/gd32vf103_fwdgt.c ****        this list of conditions and the following disclaimer in the documentation 
  19:../../firmware/GD32VF103_standard_peripheral/Source/gd32vf103_fwdgt.c ****        and/or other materials provided with the distribution.
  20:../../firmware/GD32VF103_standard_peripheral/Source/gd32vf103_fwdgt.c ****     3. Neither the name of the copyright holder nor the names of its contributors 
  21:../../firmware/GD32VF103_standard_peripheral/Source/gd32vf103_fwdgt.c ****        may be used to endorse or promote products derived from this software without 
  22:../../firmware/GD32VF103_standard_peripheral/Source/gd32vf103_fwdgt.c ****        specific prior written permission.
  23:../../firmware/GD32VF103_standard_peripheral/Source/gd32vf103_fwdgt.c **** 
  24:../../firmware/GD32VF103_standard_peripheral/Source/gd32vf103_fwdgt.c ****     THIS SOFTWARE IS PROVIDED BY THE COPYRIGHT HOLDERS AND CONTRIBUTORS "AS IS" 
  25:../../firmware/GD32VF103_standard_peripheral/Source/gd32vf103_fwdgt.c **** AND ANY EXPRESS OR IMPLIED WARRANTIES, INCLUDING, BUT NOT LIMITED TO, THE IMPLIED 
  26:../../firmware/GD32VF103_standard_peripheral/Source/gd32vf103_fwdgt.c **** WARRANTIES OF MERCHANTABILITY AND FITNESS FOR A PARTICULAR PURPOSE ARE DISCLAIMED. 
  27:../../firmware/GD32VF103_standard_peripheral/Source/gd32vf103_fwdgt.c **** IN NO EVENT SHALL THE COPYRIGHT HOLDER OR CONTRIBUTORS BE LIABLE FOR ANY DIRECT, 
  28:../../firmware/GD32VF103_standard_peripheral/Source/gd32vf103_fwdgt.c **** INDIRECT, INCIDENTAL, SPECIAL, EXEMPLARY, OR CONSEQUENTIAL DAMAGES (INCLUDING, BUT 
  29:../../firmware/GD32VF103_standard_peripheral/Source/gd32vf103_fwdgt.c **** NOT LIMITED TO, PROCUREMENT OF SUBSTITUTE GOODS OR SERVICES; LOSS OF USE, DATA, OR 
  30:../../firmware/GD32VF103_standard_peripheral/Source/gd32vf103_fwdgt.c **** PROFITS; OR BUSINESS INTERRUPTION) HOWEVER CAUSED AND ON ANY THEORY OF LIABILITY, 
  31:../../firmware/GD32VF103_standard_peripheral/Source/gd32vf103_fwdgt.c **** WHETHER IN CONTRACT, STRICT LIABILITY, OR TORT (INCLUDING NEGLIGENCE OR OTHERWISE) 
  32:../../firmware/GD32VF103_standard_peripheral/Source/gd32vf103_fwdgt.c **** ARISING IN ANY WAY OUT OF THE USE OF THIS SOFTWARE, EVEN IF ADVISED OF THE POSSIBILITY 
  33:../../firmware/GD32VF103_standard_peripheral/Source/gd32vf103_fwdgt.c **** OF SUCH DAMAGE.
  34:../../firmware/GD32VF103_standard_peripheral/Source/gd32vf103_fwdgt.c **** */
  35:../../firmware/GD32VF103_standard_peripheral/Source/gd32vf103_fwdgt.c **** 
  36:../../firmware/GD32VF103_standard_peripheral/Source/gd32vf103_fwdgt.c **** #include "gd32vf103_fwdgt.h"
  37:../../firmware/GD32VF103_standard_peripheral/Source/gd32vf103_fwdgt.c **** 
  38:../../firmware/GD32VF103_standard_peripheral/Source/gd32vf103_fwdgt.c **** /* write value to FWDGT_CTL_CMD bit field */
  39:../../firmware/GD32VF103_standard_peripheral/Source/gd32vf103_fwdgt.c **** #define CTL_CMD(regval)             (BITS(0,15) & ((uint32_t)(regval) << 0))
  40:../../firmware/GD32VF103_standard_peripheral/Source/gd32vf103_fwdgt.c **** /* write value to FWDGT_RLD_RLD bit field */
  41:../../firmware/GD32VF103_standard_peripheral/Source/gd32vf103_fwdgt.c **** #define RLD_RLD(regval)             (BITS(0,11) & ((uint32_t)(regval) << 0))
  42:../../firmware/GD32VF103_standard_peripheral/Source/gd32vf103_fwdgt.c **** 
  43:../../firmware/GD32VF103_standard_peripheral/Source/gd32vf103_fwdgt.c **** /*!
GAS LISTING /tmp/ccOT3P9B.s 			page 2


  44:../../firmware/GD32VF103_standard_peripheral/Source/gd32vf103_fwdgt.c ****     \brief      enable write access to FWDGT_PSC and FWDGT_RLD
  45:../../firmware/GD32VF103_standard_peripheral/Source/gd32vf103_fwdgt.c ****     \param[in]  none
  46:../../firmware/GD32VF103_standard_peripheral/Source/gd32vf103_fwdgt.c ****     \param[out] none
  47:../../firmware/GD32VF103_standard_peripheral/Source/gd32vf103_fwdgt.c ****     \retval     none
  48:../../firmware/GD32VF103_standard_peripheral/Source/gd32vf103_fwdgt.c **** */
  49:../../firmware/GD32VF103_standard_peripheral/Source/gd32vf103_fwdgt.c **** void fwdgt_write_enable(void)
  50:../../firmware/GD32VF103_standard_peripheral/Source/gd32vf103_fwdgt.c **** {
  16              		.loc 1 50 1
  17              		.cfi_startproc
  51:../../firmware/GD32VF103_standard_peripheral/Source/gd32vf103_fwdgt.c ****     FWDGT_CTL = FWDGT_WRITEACCESS_ENABLE;
  18              		.loc 1 51 5
  19              		.loc 1 51 15 is_stmt 0
  20 0000 9567     		li	a5,20480
  21 0002 37370040 		li	a4,1073754112
  22 0006 93875755 		addi	a5,a5,1365
  23 000a 1CC3     		sw	a5,0(a4)
  52:../../firmware/GD32VF103_standard_peripheral/Source/gd32vf103_fwdgt.c **** }
  24              		.loc 1 52 1
  25 000c 8280     		ret
  26              		.cfi_endproc
  27              	.LFE2:
  29              		.section	.text.fwdgt_write_disable,"ax",@progbits
  30              		.align	1
  31              		.globl	fwdgt_write_disable
  33              	fwdgt_write_disable:
  34              	.LFB3:
  53:../../firmware/GD32VF103_standard_peripheral/Source/gd32vf103_fwdgt.c **** 
  54:../../firmware/GD32VF103_standard_peripheral/Source/gd32vf103_fwdgt.c **** /*!
  55:../../firmware/GD32VF103_standard_peripheral/Source/gd32vf103_fwdgt.c ****     \brief      disable write access to FWDGT_PSC and FWDGT_RLD
  56:../../firmware/GD32VF103_standard_peripheral/Source/gd32vf103_fwdgt.c ****     \param[in]  none
  57:../../firmware/GD32VF103_standard_peripheral/Source/gd32vf103_fwdgt.c ****     \param[out] none
  58:../../firmware/GD32VF103_standard_peripheral/Source/gd32vf103_fwdgt.c ****     \retval     none
  59:../../firmware/GD32VF103_standard_peripheral/Source/gd32vf103_fwdgt.c **** */
  60:../../firmware/GD32VF103_standard_peripheral/Source/gd32vf103_fwdgt.c **** void fwdgt_write_disable(void)
  61:../../firmware/GD32VF103_standard_peripheral/Source/gd32vf103_fwdgt.c **** {
  35              		.loc 1 61 1 is_stmt 1
  36              		.cfi_startproc
  62:../../firmware/GD32VF103_standard_peripheral/Source/gd32vf103_fwdgt.c ****     FWDGT_CTL = FWDGT_WRITEACCESS_DISABLE;
  37              		.loc 1 62 5
  38              		.loc 1 62 15 is_stmt 0
  39 0000 B7370040 		li	a5,1073754112
  40 0004 23A00700 		sw	zero,0(a5)
  63:../../firmware/GD32VF103_standard_peripheral/Source/gd32vf103_fwdgt.c **** }
  41              		.loc 1 63 1
  42 0008 8280     		ret
  43              		.cfi_endproc
  44              	.LFE3:
  46              		.section	.text.fwdgt_enable,"ax",@progbits
  47              		.align	1
  48              		.globl	fwdgt_enable
  50              	fwdgt_enable:
  51              	.LFB4:
  64:../../firmware/GD32VF103_standard_peripheral/Source/gd32vf103_fwdgt.c **** 
  65:../../firmware/GD32VF103_standard_peripheral/Source/gd32vf103_fwdgt.c **** /*!
  66:../../firmware/GD32VF103_standard_peripheral/Source/gd32vf103_fwdgt.c ****     \brief      start the free watchdog timer counter
  67:../../firmware/GD32VF103_standard_peripheral/Source/gd32vf103_fwdgt.c ****     \param[in]  none
  68:../../firmware/GD32VF103_standard_peripheral/Source/gd32vf103_fwdgt.c ****     \param[out] none
GAS LISTING /tmp/ccOT3P9B.s 			page 3


  69:../../firmware/GD32VF103_standard_peripheral/Source/gd32vf103_fwdgt.c ****     \retval     none
  70:../../firmware/GD32VF103_standard_peripheral/Source/gd32vf103_fwdgt.c **** */
  71:../../firmware/GD32VF103_standard_peripheral/Source/gd32vf103_fwdgt.c **** void fwdgt_enable(void)
  72:../../firmware/GD32VF103_standard_peripheral/Source/gd32vf103_fwdgt.c **** {
  52              		.loc 1 72 1 is_stmt 1
  53              		.cfi_startproc
  73:../../firmware/GD32VF103_standard_peripheral/Source/gd32vf103_fwdgt.c ****     FWDGT_CTL = FWDGT_KEY_ENABLE;
  54              		.loc 1 73 5
  55              		.loc 1 73 15 is_stmt 0
  56 0000 B567     		li	a5,53248
  57 0002 37370040 		li	a4,1073754112
  58 0006 9387C7CC 		addi	a5,a5,-820
  59 000a 1CC3     		sw	a5,0(a4)
  74:../../firmware/GD32VF103_standard_peripheral/Source/gd32vf103_fwdgt.c **** }
  60              		.loc 1 74 1
  61 000c 8280     		ret
  62              		.cfi_endproc
  63              	.LFE4:
  65              		.section	.text.fwdgt_counter_reload,"ax",@progbits
  66              		.align	1
  67              		.globl	fwdgt_counter_reload
  69              	fwdgt_counter_reload:
  70              	.LFB5:
  75:../../firmware/GD32VF103_standard_peripheral/Source/gd32vf103_fwdgt.c **** 
  76:../../firmware/GD32VF103_standard_peripheral/Source/gd32vf103_fwdgt.c **** /*!
  77:../../firmware/GD32VF103_standard_peripheral/Source/gd32vf103_fwdgt.c ****     \brief      reload the counter of FWDGT
  78:../../firmware/GD32VF103_standard_peripheral/Source/gd32vf103_fwdgt.c ****     \param[in]  none
  79:../../firmware/GD32VF103_standard_peripheral/Source/gd32vf103_fwdgt.c ****     \param[out] none
  80:../../firmware/GD32VF103_standard_peripheral/Source/gd32vf103_fwdgt.c ****     \retval     none
  81:../../firmware/GD32VF103_standard_peripheral/Source/gd32vf103_fwdgt.c **** */
  82:../../firmware/GD32VF103_standard_peripheral/Source/gd32vf103_fwdgt.c **** void fwdgt_counter_reload(void)
  83:../../firmware/GD32VF103_standard_peripheral/Source/gd32vf103_fwdgt.c **** {
  71              		.loc 1 83 1 is_stmt 1
  72              		.cfi_startproc
  84:../../firmware/GD32VF103_standard_peripheral/Source/gd32vf103_fwdgt.c ****     FWDGT_CTL = FWDGT_KEY_RELOAD;
  73              		.loc 1 84 5
  74              		.loc 1 84 15 is_stmt 0
  75 0000 AD67     		li	a5,45056
  76 0002 37370040 		li	a4,1073754112
  77 0006 9387A7AA 		addi	a5,a5,-1366
  78 000a 1CC3     		sw	a5,0(a4)
  85:../../firmware/GD32VF103_standard_peripheral/Source/gd32vf103_fwdgt.c **** }
  79              		.loc 1 85 1
  80 000c 8280     		ret
  81              		.cfi_endproc
  82              	.LFE5:
  84              		.section	.text.fwdgt_config,"ax",@progbits
  85              		.align	1
  86              		.globl	fwdgt_config
  88              	fwdgt_config:
  89              	.LFB6:
  86:../../firmware/GD32VF103_standard_peripheral/Source/gd32vf103_fwdgt.c **** 
  87:../../firmware/GD32VF103_standard_peripheral/Source/gd32vf103_fwdgt.c **** /*!
  88:../../firmware/GD32VF103_standard_peripheral/Source/gd32vf103_fwdgt.c ****     \brief      configure counter reload value, and prescaler divider value
  89:../../firmware/GD32VF103_standard_peripheral/Source/gd32vf103_fwdgt.c ****     \param[in]  reload_value: specify reload value(0x0000 - 0x0FFF)
  90:../../firmware/GD32VF103_standard_peripheral/Source/gd32vf103_fwdgt.c ****     \param[in]  prescaler_div: FWDGT prescaler value
  91:../../firmware/GD32VF103_standard_peripheral/Source/gd32vf103_fwdgt.c ****                 only one parameter can be selected which is shown as below:
GAS LISTING /tmp/ccOT3P9B.s 			page 4


  92:../../firmware/GD32VF103_standard_peripheral/Source/gd32vf103_fwdgt.c ****       \arg        FWDGT_PSC_DIV4: FWDGT prescaler set to 4
  93:../../firmware/GD32VF103_standard_peripheral/Source/gd32vf103_fwdgt.c ****       \arg        FWDGT_PSC_DIV8: FWDGT prescaler set to 8
  94:../../firmware/GD32VF103_standard_peripheral/Source/gd32vf103_fwdgt.c ****       \arg        FWDGT_PSC_DIV16: FWDGT prescaler set to 16
  95:../../firmware/GD32VF103_standard_peripheral/Source/gd32vf103_fwdgt.c ****       \arg        FWDGT_PSC_DIV32: FWDGT prescaler set to 32
  96:../../firmware/GD32VF103_standard_peripheral/Source/gd32vf103_fwdgt.c ****       \arg        FWDGT_PSC_DIV64: FWDGT prescaler set to 64
  97:../../firmware/GD32VF103_standard_peripheral/Source/gd32vf103_fwdgt.c ****       \arg        FWDGT_PSC_DIV128: FWDGT prescaler set to 128
  98:../../firmware/GD32VF103_standard_peripheral/Source/gd32vf103_fwdgt.c ****       \arg        FWDGT_PSC_DIV256: FWDGT prescaler set to 256
  99:../../firmware/GD32VF103_standard_peripheral/Source/gd32vf103_fwdgt.c ****     \param[out] none
 100:../../firmware/GD32VF103_standard_peripheral/Source/gd32vf103_fwdgt.c ****     \retval     ErrStatus: ERROR or SUCCESS
 101:../../firmware/GD32VF103_standard_peripheral/Source/gd32vf103_fwdgt.c **** */
 102:../../firmware/GD32VF103_standard_peripheral/Source/gd32vf103_fwdgt.c **** ErrStatus fwdgt_config(uint16_t reload_value, uint8_t prescaler_div)
 103:../../firmware/GD32VF103_standard_peripheral/Source/gd32vf103_fwdgt.c **** {
  90              		.loc 1 103 1 is_stmt 1
  91              		.cfi_startproc
  92              	.LVL0:
 104:../../firmware/GD32VF103_standard_peripheral/Source/gd32vf103_fwdgt.c ****     uint32_t timeout = FWDGT_PSC_TIMEOUT;
  93              		.loc 1 104 5
 105:../../firmware/GD32VF103_standard_peripheral/Source/gd32vf103_fwdgt.c ****     uint32_t flag_status = RESET;
  94              		.loc 1 105 5
 106:../../firmware/GD32VF103_standard_peripheral/Source/gd32vf103_fwdgt.c ****   
 107:../../firmware/GD32VF103_standard_peripheral/Source/gd32vf103_fwdgt.c ****     /* enable write access to FWDGT_PSC,and FWDGT_RLD */
 108:../../firmware/GD32VF103_standard_peripheral/Source/gd32vf103_fwdgt.c ****     FWDGT_CTL = FWDGT_WRITEACCESS_ENABLE;
  95              		.loc 1 108 5
  96              		.loc 1 108 15 is_stmt 0
  97 0000 9567     		li	a5,20480
  98 0002 37370040 		li	a4,1073754112
  99 0006 93875755 		addi	a5,a5,1365
 100 000a 1CC3     		sw	a5,0(a4)
 109:../../firmware/GD32VF103_standard_peripheral/Source/gd32vf103_fwdgt.c ****     /* wait until the PUD flag to be reset */
 110:../../firmware/GD32VF103_standard_peripheral/Source/gd32vf103_fwdgt.c ****     do{
 101              		.loc 1 110 5 is_stmt 1
 111:../../firmware/GD32VF103_standard_peripheral/Source/gd32vf103_fwdgt.c ****        flag_status = FWDGT_STAT & FWDGT_STAT_PUD;
 102              		.loc 1 111 8
 103              		.loc 1 111 22 is_stmt 0
 104 000c 5C47     		lw	a5,12(a4)
 105              		.loc 1 111 20
 106 000e 37071000 		li	a4,1048576
 107 0012 7917     		addi	a4,a4,-2
 108 0014 858B     		andi	a5,a5,1
 109              	.LVL1:
 110              		.loc 1 111 22
 111 0016 B7360040 		li	a3,1073754112
 112 001a 21A0     		j	.L7
 113              	.LVL2:
 114              	.L9:
 115              		.loc 1 111 22 discriminator 2
 116 001c DC46     		lw	a5,12(a3)
 117              	.LVL3:
 118              		.loc 1 111 20 discriminator 2
 119 001e 858B     		andi	a5,a5,1
 120              	.LVL4:
 112:../../firmware/GD32VF103_standard_peripheral/Source/gd32vf103_fwdgt.c ****     }while((--timeout > 0U) && ((uint32_t)RESET != flag_status));
 121              		.loc 1 112 5 discriminator 2
 122 0020 15CF     		beq	a4,zero,.L8
 123              	.L7:
 110:../../firmware/GD32VF103_standard_peripheral/Source/gd32vf103_fwdgt.c ****        flag_status = FWDGT_STAT & FWDGT_STAT_PUD;
 124              		.loc 1 110 5 is_stmt 1 discriminator 1
GAS LISTING /tmp/ccOT3P9B.s 			page 5


 111:../../firmware/GD32VF103_standard_peripheral/Source/gd32vf103_fwdgt.c ****        flag_status = FWDGT_STAT & FWDGT_STAT_PUD;
 125              		.loc 1 111 8 discriminator 1
 126              	.LVL5:
 127 0022 7D17     		addi	a4,a4,-1
 128              	.LVL6:
 129              		.loc 1 112 29 is_stmt 0 discriminator 1
 130 0024 E5FF     		bne	a5,zero,.L9
 131              	.LVL7:
 132              	.L10:
 113:../../firmware/GD32VF103_standard_peripheral/Source/gd32vf103_fwdgt.c ****     
 114:../../firmware/GD32VF103_standard_peripheral/Source/gd32vf103_fwdgt.c ****     if((uint32_t)RESET != flag_status){
 115:../../firmware/GD32VF103_standard_peripheral/Source/gd32vf103_fwdgt.c ****         return ERROR;
 116:../../firmware/GD32VF103_standard_peripheral/Source/gd32vf103_fwdgt.c ****     }
 117:../../firmware/GD32VF103_standard_peripheral/Source/gd32vf103_fwdgt.c ****     /* configure FWDGT */
 118:../../firmware/GD32VF103_standard_peripheral/Source/gd32vf103_fwdgt.c ****     FWDGT_PSC = (uint32_t)prescaler_div;
 133              		.loc 1 118 5 is_stmt 1
 134              		.loc 1 118 15 is_stmt 0
 135 0026 B7370040 		li	a5,1073754112
 136              	.LVL8:
 137 002a CCC3     		sw	a1,4(a5)
 119:../../firmware/GD32VF103_standard_peripheral/Source/gd32vf103_fwdgt.c **** 
 120:../../firmware/GD32VF103_standard_peripheral/Source/gd32vf103_fwdgt.c ****     timeout = FWDGT_RLD_TIMEOUT;
 138              		.loc 1 120 5 is_stmt 1
 139              	.LVL9:
 121:../../firmware/GD32VF103_standard_peripheral/Source/gd32vf103_fwdgt.c ****     /* wait until the RUD flag to be reset */
 122:../../firmware/GD32VF103_standard_peripheral/Source/gd32vf103_fwdgt.c ****     do{
 140              		.loc 1 122 5
 123:../../firmware/GD32VF103_standard_peripheral/Source/gd32vf103_fwdgt.c ****        flag_status = FWDGT_STAT & FWDGT_STAT_RUD;
 141              		.loc 1 123 8
 142              		.loc 1 123 22 is_stmt 0
 143 002c DC47     		lw	a5,12(a5)
 144              		.loc 1 123 20
 145 002e 37071000 		li	a4,1048576
 146 0032 7917     		addi	a4,a4,-2
 147 0034 898B     		andi	a5,a5,2
 148              	.LVL10:
 149              		.loc 1 123 22
 150 0036 B7360040 		li	a3,1073754112
 151 003a 21A0     		j	.L12
 152              	.LVL11:
 153              	.L14:
 154              		.loc 1 123 22 discriminator 2
 155 003c DC46     		lw	a5,12(a3)
 156              	.LVL12:
 157              		.loc 1 123 20 discriminator 2
 158 003e 898B     		andi	a5,a5,2
 159              	.LVL13:
 124:../../firmware/GD32VF103_standard_peripheral/Source/gd32vf103_fwdgt.c ****     }while((--timeout > 0U) && ((uint32_t)RESET != flag_status));
 160              		.loc 1 124 5 discriminator 2
 161 0040 0DC3     		beq	a4,zero,.L13
 162              	.L12:
 122:../../firmware/GD32VF103_standard_peripheral/Source/gd32vf103_fwdgt.c ****        flag_status = FWDGT_STAT & FWDGT_STAT_RUD;
 163              		.loc 1 122 5 is_stmt 1 discriminator 1
 123:../../firmware/GD32VF103_standard_peripheral/Source/gd32vf103_fwdgt.c ****        flag_status = FWDGT_STAT & FWDGT_STAT_RUD;
 164              		.loc 1 123 8 discriminator 1
 165              	.LVL14:
 166 0042 7D17     		addi	a4,a4,-1
GAS LISTING /tmp/ccOT3P9B.s 			page 6


 167              	.LVL15:
 168              		.loc 1 124 29 is_stmt 0 discriminator 1
 169 0044 E5FF     		bne	a5,zero,.L14
 170              	.LVL16:
 171              	.L15:
 125:../../firmware/GD32VF103_standard_peripheral/Source/gd32vf103_fwdgt.c ****    
 126:../../firmware/GD32VF103_standard_peripheral/Source/gd32vf103_fwdgt.c ****     if((uint32_t)RESET != flag_status){
 127:../../firmware/GD32VF103_standard_peripheral/Source/gd32vf103_fwdgt.c ****         return ERROR;
 128:../../firmware/GD32VF103_standard_peripheral/Source/gd32vf103_fwdgt.c ****     }
 129:../../firmware/GD32VF103_standard_peripheral/Source/gd32vf103_fwdgt.c ****     FWDGT_RLD = RLD_RLD(reload_value);
 172              		.loc 1 129 5 is_stmt 1
 173              		.loc 1 129 17 is_stmt 0
 174 0046 5205     		slli	a0,a0,20
 175              	.LVL17:
 176              		.loc 1 129 15
 177 0048 37370040 		li	a4,1073754112
 178              		.loc 1 129 17
 179 004c 5181     		srli	a0,a0,20
 130:../../firmware/GD32VF103_standard_peripheral/Source/gd32vf103_fwdgt.c ****     /* reload the counter */
 131:../../firmware/GD32VF103_standard_peripheral/Source/gd32vf103_fwdgt.c ****     FWDGT_CTL = FWDGT_KEY_RELOAD;
 180              		.loc 1 131 15
 181 004e AD67     		li	a5,45056
 182              	.LVL18:
 129:../../firmware/GD32VF103_standard_peripheral/Source/gd32vf103_fwdgt.c ****     /* reload the counter */
 183              		.loc 1 129 15
 184 0050 08C7     		sw	a0,8(a4)
 185              		.loc 1 131 5 is_stmt 1
 186              		.loc 1 131 15 is_stmt 0
 187 0052 9387A7AA 		addi	a5,a5,-1366
 188 0056 1CC3     		sw	a5,0(a4)
 132:../../firmware/GD32VF103_standard_peripheral/Source/gd32vf103_fwdgt.c **** 
 133:../../firmware/GD32VF103_standard_peripheral/Source/gd32vf103_fwdgt.c ****     return SUCCESS;
 189              		.loc 1 133 5 is_stmt 1
 190              		.loc 1 133 12 is_stmt 0
 191 0058 0545     		li	a0,1
 134:../../firmware/GD32VF103_standard_peripheral/Source/gd32vf103_fwdgt.c **** }
 192              		.loc 1 134 1
 193 005a 8280     		ret
 194              	.LVL19:
 195              	.L8:
 114:../../firmware/GD32VF103_standard_peripheral/Source/gd32vf103_fwdgt.c ****         return ERROR;
 196              		.loc 1 114 5 is_stmt 1
 114:../../firmware/GD32VF103_standard_peripheral/Source/gd32vf103_fwdgt.c ****         return ERROR;
 197              		.loc 1 114 7 is_stmt 0
 198 005c E9D7     		beq	a5,zero,.L10
 115:../../firmware/GD32VF103_standard_peripheral/Source/gd32vf103_fwdgt.c ****     }
 199              		.loc 1 115 16
 200 005e 0145     		li	a0,0
 201              	.LVL20:
 202 0060 8280     		ret
 203              	.LVL21:
 204              	.L13:
 126:../../firmware/GD32VF103_standard_peripheral/Source/gd32vf103_fwdgt.c ****         return ERROR;
 205              		.loc 1 126 5 is_stmt 1
 126:../../firmware/GD32VF103_standard_peripheral/Source/gd32vf103_fwdgt.c ****         return ERROR;
 206              		.loc 1 126 7 is_stmt 0
 207 0062 F5D3     		beq	a5,zero,.L15
GAS LISTING /tmp/ccOT3P9B.s 			page 7


 115:../../firmware/GD32VF103_standard_peripheral/Source/gd32vf103_fwdgt.c ****     }
 208              		.loc 1 115 16
 209 0064 0145     		li	a0,0
 210              	.LVL22:
 211 0066 8280     		ret
 212              		.cfi_endproc
 213              	.LFE6:
 215              		.section	.text.fwdgt_flag_get,"ax",@progbits
 216              		.align	1
 217              		.globl	fwdgt_flag_get
 219              	fwdgt_flag_get:
 220              	.LFB7:
 135:../../firmware/GD32VF103_standard_peripheral/Source/gd32vf103_fwdgt.c **** 
 136:../../firmware/GD32VF103_standard_peripheral/Source/gd32vf103_fwdgt.c **** /*!
 137:../../firmware/GD32VF103_standard_peripheral/Source/gd32vf103_fwdgt.c ****     \brief      get flag state of FWDGT
 138:../../firmware/GD32VF103_standard_peripheral/Source/gd32vf103_fwdgt.c ****     \param[in]  flag: flag to get 
 139:../../firmware/GD32VF103_standard_peripheral/Source/gd32vf103_fwdgt.c ****                 only one parameter can be selected which is shown as below:
 140:../../firmware/GD32VF103_standard_peripheral/Source/gd32vf103_fwdgt.c ****       \arg        FWDGT_FLAG_PUD: a write operation to FWDGT_PSC register is on going
 141:../../firmware/GD32VF103_standard_peripheral/Source/gd32vf103_fwdgt.c ****       \arg        FWDGT_FLAG_RUD: a write operation to FWDGT_RLD register is on going
 142:../../firmware/GD32VF103_standard_peripheral/Source/gd32vf103_fwdgt.c ****     \param[out] none
 143:../../firmware/GD32VF103_standard_peripheral/Source/gd32vf103_fwdgt.c ****     \retval     FlagStatus: SET or RESET
 144:../../firmware/GD32VF103_standard_peripheral/Source/gd32vf103_fwdgt.c **** */
 145:../../firmware/GD32VF103_standard_peripheral/Source/gd32vf103_fwdgt.c **** FlagStatus fwdgt_flag_get(uint16_t flag)
 146:../../firmware/GD32VF103_standard_peripheral/Source/gd32vf103_fwdgt.c **** {
 221              		.loc 1 146 1 is_stmt 1
 222              		.cfi_startproc
 223              	.LVL23:
 147:../../firmware/GD32VF103_standard_peripheral/Source/gd32vf103_fwdgt.c ****     if(FWDGT_STAT & flag){
 224              		.loc 1 147 5
 225              		.loc 1 147 8 is_stmt 0
 226 0000 B7370040 		li	a5,1073754112
 227 0004 DC47     		lw	a5,12(a5)
 228              		.loc 1 147 19
 229 0006 7D8D     		and	a0,a0,a5
 230              	.LVL24:
 148:../../firmware/GD32VF103_standard_peripheral/Source/gd32vf103_fwdgt.c ****         return SET;
 149:../../firmware/GD32VF103_standard_peripheral/Source/gd32vf103_fwdgt.c ****     }
 150:../../firmware/GD32VF103_standard_peripheral/Source/gd32vf103_fwdgt.c ****     
 151:../../firmware/GD32VF103_standard_peripheral/Source/gd32vf103_fwdgt.c ****     return RESET;
 152:../../firmware/GD32VF103_standard_peripheral/Source/gd32vf103_fwdgt.c **** }
 231              		.loc 1 152 1
 232 0008 3335A000 		snez	a0,a0
 233 000c 8280     		ret
 234              		.cfi_endproc
 235              	.LFE7:
 237              		.text
 238              	.Letext0:
 239              		.file 2 "/home/remahl/toolchain-gd32v/toolchain-gd32v-linux/compiler/riscv64-unknown-elf/include/m
 240              		.file 3 "/home/remahl/toolchain-gd32v/toolchain-gd32v-linux/compiler/riscv64-unknown-elf/include/s
 241              		.file 4 "../../firmware/GD32VF103_standard_peripheral/gd32vf103.h"
 242              		.file 5 "../../firmware/GD32VF103_standard_peripheral/system_gd32vf103.h"
GAS LISTING /tmp/ccOT3P9B.s 			page 8


DEFINED SYMBOLS
                            *ABS*:0000000000000000 gd32vf103_fwdgt.c
     /tmp/ccOT3P9B.s:13     .text.fwdgt_write_enable:0000000000000000 fwdgt_write_enable
     /tmp/ccOT3P9B.s:17     .text.fwdgt_write_enable:0000000000000000 .L0 
     /tmp/ccOT3P9B.s:18     .text.fwdgt_write_enable:0000000000000000 .L0 
     /tmp/ccOT3P9B.s:19     .text.fwdgt_write_enable:0000000000000000 .L0 
     /tmp/ccOT3P9B.s:20     .text.fwdgt_write_enable:0000000000000000 .L0 
     /tmp/ccOT3P9B.s:25     .text.fwdgt_write_enable:000000000000000c .L0 
     /tmp/ccOT3P9B.s:26     .text.fwdgt_write_enable:000000000000000e .L0 
     /tmp/ccOT3P9B.s:33     .text.fwdgt_write_disable:0000000000000000 fwdgt_write_disable
     /tmp/ccOT3P9B.s:36     .text.fwdgt_write_disable:0000000000000000 .L0 
     /tmp/ccOT3P9B.s:37     .text.fwdgt_write_disable:0000000000000000 .L0 
     /tmp/ccOT3P9B.s:38     .text.fwdgt_write_disable:0000000000000000 .L0 
     /tmp/ccOT3P9B.s:39     .text.fwdgt_write_disable:0000000000000000 .L0 
     /tmp/ccOT3P9B.s:42     .text.fwdgt_write_disable:0000000000000008 .L0 
     /tmp/ccOT3P9B.s:43     .text.fwdgt_write_disable:000000000000000a .L0 
     /tmp/ccOT3P9B.s:50     .text.fwdgt_enable:0000000000000000 fwdgt_enable
     /tmp/ccOT3P9B.s:53     .text.fwdgt_enable:0000000000000000 .L0 
     /tmp/ccOT3P9B.s:54     .text.fwdgt_enable:0000000000000000 .L0 
     /tmp/ccOT3P9B.s:55     .text.fwdgt_enable:0000000000000000 .L0 
     /tmp/ccOT3P9B.s:56     .text.fwdgt_enable:0000000000000000 .L0 
     /tmp/ccOT3P9B.s:61     .text.fwdgt_enable:000000000000000c .L0 
     /tmp/ccOT3P9B.s:62     .text.fwdgt_enable:000000000000000e .L0 
     /tmp/ccOT3P9B.s:69     .text.fwdgt_counter_reload:0000000000000000 fwdgt_counter_reload
     /tmp/ccOT3P9B.s:72     .text.fwdgt_counter_reload:0000000000000000 .L0 
     /tmp/ccOT3P9B.s:73     .text.fwdgt_counter_reload:0000000000000000 .L0 
     /tmp/ccOT3P9B.s:74     .text.fwdgt_counter_reload:0000000000000000 .L0 
     /tmp/ccOT3P9B.s:75     .text.fwdgt_counter_reload:0000000000000000 .L0 
     /tmp/ccOT3P9B.s:80     .text.fwdgt_counter_reload:000000000000000c .L0 
     /tmp/ccOT3P9B.s:81     .text.fwdgt_counter_reload:000000000000000e .L0 
     /tmp/ccOT3P9B.s:88     .text.fwdgt_config:0000000000000000 fwdgt_config
     /tmp/ccOT3P9B.s:91     .text.fwdgt_config:0000000000000000 .L0 
     /tmp/ccOT3P9B.s:93     .text.fwdgt_config:0000000000000000 .L0 
     /tmp/ccOT3P9B.s:94     .text.fwdgt_config:0000000000000000 .L0 
     /tmp/ccOT3P9B.s:95     .text.fwdgt_config:0000000000000000 .L0 
     /tmp/ccOT3P9B.s:96     .text.fwdgt_config:0000000000000000 .L0 
     /tmp/ccOT3P9B.s:97     .text.fwdgt_config:0000000000000000 .L0 
     /tmp/ccOT3P9B.s:102    .text.fwdgt_config:000000000000000c .L0 
     /tmp/ccOT3P9B.s:103    .text.fwdgt_config:000000000000000c .L0 
     /tmp/ccOT3P9B.s:104    .text.fwdgt_config:000000000000000c .L0 
     /tmp/ccOT3P9B.s:106    .text.fwdgt_config:000000000000000e .L0 
     /tmp/ccOT3P9B.s:111    .text.fwdgt_config:0000000000000016 .L0 
     /tmp/ccOT3P9B.s:116    .text.fwdgt_config:000000000000001c .L0 
     /tmp/ccOT3P9B.s:119    .text.fwdgt_config:000000000000001e .L0 
     /tmp/ccOT3P9B.s:122    .text.fwdgt_config:0000000000000020 .L0 
     /tmp/ccOT3P9B.s:125    .text.fwdgt_config:0000000000000022 .L0 
     /tmp/ccOT3P9B.s:127    .text.fwdgt_config:0000000000000022 .L0 
     /tmp/ccOT3P9B.s:130    .text.fwdgt_config:0000000000000024 .L0 
     /tmp/ccOT3P9B.s:134    .text.fwdgt_config:0000000000000026 .L0 
     /tmp/ccOT3P9B.s:135    .text.fwdgt_config:0000000000000026 .L0 
     /tmp/ccOT3P9B.s:140    .text.fwdgt_config:000000000000002c .L0 
     /tmp/ccOT3P9B.s:141    .text.fwdgt_config:000000000000002c .L0 
     /tmp/ccOT3P9B.s:142    .text.fwdgt_config:000000000000002c .L0 
     /tmp/ccOT3P9B.s:143    .text.fwdgt_config:000000000000002c .L0 
     /tmp/ccOT3P9B.s:145    .text.fwdgt_config:000000000000002e .L0 
     /tmp/ccOT3P9B.s:150    .text.fwdgt_config:0000000000000036 .L0 
     /tmp/ccOT3P9B.s:155    .text.fwdgt_config:000000000000003c .L0 
GAS LISTING /tmp/ccOT3P9B.s 			page 9


     /tmp/ccOT3P9B.s:158    .text.fwdgt_config:000000000000003e .L0 
     /tmp/ccOT3P9B.s:161    .text.fwdgt_config:0000000000000040 .L0 
     /tmp/ccOT3P9B.s:164    .text.fwdgt_config:0000000000000042 .L0 
     /tmp/ccOT3P9B.s:166    .text.fwdgt_config:0000000000000042 .L0 
     /tmp/ccOT3P9B.s:169    .text.fwdgt_config:0000000000000044 .L0 
     /tmp/ccOT3P9B.s:173    .text.fwdgt_config:0000000000000046 .L0 
     /tmp/ccOT3P9B.s:174    .text.fwdgt_config:0000000000000046 .L0 
     /tmp/ccOT3P9B.s:177    .text.fwdgt_config:0000000000000048 .L0 
     /tmp/ccOT3P9B.s:179    .text.fwdgt_config:000000000000004c .L0 
     /tmp/ccOT3P9B.s:181    .text.fwdgt_config:000000000000004e .L0 
     /tmp/ccOT3P9B.s:184    .text.fwdgt_config:0000000000000050 .L0 
     /tmp/ccOT3P9B.s:186    .text.fwdgt_config:0000000000000052 .L0 
     /tmp/ccOT3P9B.s:187    .text.fwdgt_config:0000000000000052 .L0 
     /tmp/ccOT3P9B.s:190    .text.fwdgt_config:0000000000000058 .L0 
     /tmp/ccOT3P9B.s:191    .text.fwdgt_config:0000000000000058 .L0 
     /tmp/ccOT3P9B.s:193    .text.fwdgt_config:000000000000005a .L0 
     /tmp/ccOT3P9B.s:197    .text.fwdgt_config:000000000000005c .L0 
     /tmp/ccOT3P9B.s:198    .text.fwdgt_config:000000000000005c .L0 
     /tmp/ccOT3P9B.s:200    .text.fwdgt_config:000000000000005e .L0 
     /tmp/ccOT3P9B.s:206    .text.fwdgt_config:0000000000000062 .L0 
     /tmp/ccOT3P9B.s:207    .text.fwdgt_config:0000000000000062 .L0 
     /tmp/ccOT3P9B.s:209    .text.fwdgt_config:0000000000000064 .L0 
     /tmp/ccOT3P9B.s:212    .text.fwdgt_config:0000000000000068 .L0 
     /tmp/ccOT3P9B.s:219    .text.fwdgt_flag_get:0000000000000000 fwdgt_flag_get
     /tmp/ccOT3P9B.s:222    .text.fwdgt_flag_get:0000000000000000 .L0 
     /tmp/ccOT3P9B.s:224    .text.fwdgt_flag_get:0000000000000000 .L0 
     /tmp/ccOT3P9B.s:225    .text.fwdgt_flag_get:0000000000000000 .L0 
     /tmp/ccOT3P9B.s:226    .text.fwdgt_flag_get:0000000000000000 .L0 
     /tmp/ccOT3P9B.s:229    .text.fwdgt_flag_get:0000000000000006 .L0 
     /tmp/ccOT3P9B.s:232    .text.fwdgt_flag_get:0000000000000008 .L0 
     /tmp/ccOT3P9B.s:234    .text.fwdgt_flag_get:000000000000000e .L0 
     /tmp/ccOT3P9B.s:29     .text.fwdgt_write_enable:000000000000000e .L0 
     /tmp/ccOT3P9B.s:46     .text.fwdgt_write_disable:000000000000000a .L0 
     /tmp/ccOT3P9B.s:65     .text.fwdgt_enable:000000000000000e .L0 
     /tmp/ccOT3P9B.s:84     .text.fwdgt_counter_reload:000000000000000e .L0 
     /tmp/ccOT3P9B.s:215    .text.fwdgt_config:0000000000000068 .L0 
     /tmp/ccOT3P9B.s:237    .text.fwdgt_flag_get:000000000000000e .L0 
                     .debug_frame:0000000000000000 .L0 
     /tmp/ccOT3P9B.s:123    .text.fwdgt_config:0000000000000022 .L7
     /tmp/ccOT3P9B.s:195    .text.fwdgt_config:000000000000005c .L8
     /tmp/ccOT3P9B.s:114    .text.fwdgt_config:000000000000001c .L9
     /tmp/ccOT3P9B.s:162    .text.fwdgt_config:0000000000000042 .L12
     /tmp/ccOT3P9B.s:204    .text.fwdgt_config:0000000000000062 .L13
     /tmp/ccOT3P9B.s:153    .text.fwdgt_config:000000000000003c .L14
     /tmp/ccOT3P9B.s:132    .text.fwdgt_config:0000000000000026 .L10
     /tmp/ccOT3P9B.s:171    .text.fwdgt_config:0000000000000046 .L15
     /tmp/ccOT3P9B.s:510    .debug_abbrev:0000000000000000 .Ldebug_abbrev0
     /tmp/ccOT3P9B.s:911    .debug_str:0000000000000000 .LASF32
     /tmp/ccOT3P9B.s:957    .debug_str:00000000000001d2 .LASF33
     /tmp/ccOT3P9B.s:935    .debug_str:0000000000000108 .LASF34
     /tmp/ccOT3P9B.s:893    .debug_ranges:0000000000000000 .Ldebug_ranges0
     /tmp/ccOT3P9B.s:909    .debug_line:0000000000000000 .Ldebug_line0
     /tmp/ccOT3P9B.s:951    .debug_str:00000000000001a6 .LASF0
     /tmp/ccOT3P9B.s:977    .debug_str:000000000000027f .LASF1
     /tmp/ccOT3P9B.s:913    .debug_str:000000000000007a .LASF4
     /tmp/ccOT3P9B.s:923    .debug_str:00000000000000bf .LASF2
     /tmp/ccOT3P9B.s:965    .debug_str:000000000000023e .LASF3
GAS LISTING /tmp/ccOT3P9B.s 			page 10


     /tmp/ccOT3P9B.s:937    .debug_str:000000000000014c .LASF5
     /tmp/ccOT3P9B.s:921    .debug_str:00000000000000ac .LASF6
     /tmp/ccOT3P9B.s:917    .debug_str:000000000000008e .LASF7
     /tmp/ccOT3P9B.s:943    .debug_str:0000000000000176 .LASF8
     /tmp/ccOT3P9B.s:939    .debug_str:0000000000000157 .LASF9
     /tmp/ccOT3P9B.s:959    .debug_str:0000000000000218 .LASF10
     /tmp/ccOT3P9B.s:953    .debug_str:00000000000001b3 .LASF11
     /tmp/ccOT3P9B.s:955    .debug_str:00000000000001ca .LASF12
     /tmp/ccOT3P9B.s:967    .debug_str:0000000000000248 .LASF13
     /tmp/ccOT3P9B.s:971    .debug_str:0000000000000264 .LASF14
     /tmp/ccOT3P9B.s:963    .debug_str:000000000000022e .LASF35
     /tmp/ccOT3P9B.s:979    .debug_str:000000000000028b .LASF15
     /tmp/ccOT3P9B.s:927    .debug_str:00000000000000d5 .LASF16
     /tmp/ccOT3P9B.s:973    .debug_str:000000000000026d .LASF17
     /tmp/ccOT3P9B.s:925    .debug_str:00000000000000cd .LASF18
     /tmp/ccOT3P9B.s:915    .debug_str:0000000000000084 .LASF19
     /tmp/ccOT3P9B.s:975    .debug_str:0000000000000273 .LASF20
     /tmp/ccOT3P9B.s:981    .debug_str:0000000000000291 .LASF21
     /tmp/ccOT3P9B.s:220    .text.fwdgt_flag_get:0000000000000000 .LFB7
     /tmp/ccOT3P9B.s:235    .text.fwdgt_flag_get:000000000000000e .LFE7
     /tmp/ccOT3P9B.s:947    .debug_str:0000000000000195 .LASF23
     /tmp/ccOT3P9B.s:733    .debug_loc:0000000000000000 .LLST3
     /tmp/ccOT3P9B.s:941    .debug_str:0000000000000169 .LASF22
     /tmp/ccOT3P9B.s:89     .text.fwdgt_config:0000000000000000 .LFB6
     /tmp/ccOT3P9B.s:213    .text.fwdgt_config:0000000000000068 .LFE6
     /tmp/ccOT3P9B.s:933    .debug_str:00000000000000fb .LASF24
     /tmp/ccOT3P9B.s:747    .debug_loc:0000000000000021 .LLST0
     /tmp/ccOT3P9B.s:931    .debug_str:00000000000000ed .LASF25
     /tmp/ccOT3P9B.s:961    .debug_str:0000000000000226 .LASF26
     /tmp/ccOT3P9B.s:783    .debug_loc:0000000000000074 .LLST1
     /tmp/ccOT3P9B.s:949    .debug_str:000000000000019a .LASF27
     /tmp/ccOT3P9B.s:842    .debug_loc:0000000000000106 .LLST2
     /tmp/ccOT3P9B.s:919    .debug_str:0000000000000097 .LASF28
     /tmp/ccOT3P9B.s:70     .text.fwdgt_counter_reload:0000000000000000 .LFB5
     /tmp/ccOT3P9B.s:82     .text.fwdgt_counter_reload:000000000000000e .LFE5
     /tmp/ccOT3P9B.s:929    .debug_str:00000000000000e0 .LASF29
     /tmp/ccOT3P9B.s:51     .text.fwdgt_enable:0000000000000000 .LFB4
     /tmp/ccOT3P9B.s:63     .text.fwdgt_enable:000000000000000e .LFE4
     /tmp/ccOT3P9B.s:945    .debug_str:0000000000000181 .LASF30
     /tmp/ccOT3P9B.s:34     .text.fwdgt_write_disable:0000000000000000 .LFB3
     /tmp/ccOT3P9B.s:44     .text.fwdgt_write_disable:000000000000000a .LFE3
     /tmp/ccOT3P9B.s:969    .debug_str:0000000000000251 .LASF31
     /tmp/ccOT3P9B.s:14     .text.fwdgt_write_enable:0000000000000000 .LFB2
     /tmp/ccOT3P9B.s:27     .text.fwdgt_write_enable:000000000000000e .LFE2
     /tmp/ccOT3P9B.s:223    .text.fwdgt_flag_get:0000000000000000 .LVL23
     /tmp/ccOT3P9B.s:230    .text.fwdgt_flag_get:0000000000000008 .LVL24
     /tmp/ccOT3P9B.s:92     .text.fwdgt_config:0000000000000000 .LVL0
     /tmp/ccOT3P9B.s:175    .text.fwdgt_config:0000000000000048 .LVL17
     /tmp/ccOT3P9B.s:194    .text.fwdgt_config:000000000000005c .LVL19
     /tmp/ccOT3P9B.s:201    .text.fwdgt_config:0000000000000060 .LVL20
     /tmp/ccOT3P9B.s:203    .text.fwdgt_config:0000000000000062 .LVL21
     /tmp/ccOT3P9B.s:210    .text.fwdgt_config:0000000000000066 .LVL22
     /tmp/ccOT3P9B.s:109    .text.fwdgt_config:0000000000000016 .LVL1
     /tmp/ccOT3P9B.s:113    .text.fwdgt_config:000000000000001c .LVL2
     /tmp/ccOT3P9B.s:120    .text.fwdgt_config:0000000000000020 .LVL4
     /tmp/ccOT3P9B.s:126    .text.fwdgt_config:0000000000000022 .LVL5
     /tmp/ccOT3P9B.s:128    .text.fwdgt_config:0000000000000024 .LVL6
GAS LISTING /tmp/ccOT3P9B.s 			page 11


     /tmp/ccOT3P9B.s:131    .text.fwdgt_config:0000000000000026 .LVL7
     /tmp/ccOT3P9B.s:139    .text.fwdgt_config:000000000000002c .LVL9
     /tmp/ccOT3P9B.s:148    .text.fwdgt_config:0000000000000036 .LVL10
     /tmp/ccOT3P9B.s:152    .text.fwdgt_config:000000000000003c .LVL11
     /tmp/ccOT3P9B.s:159    .text.fwdgt_config:0000000000000040 .LVL13
     /tmp/ccOT3P9B.s:165    .text.fwdgt_config:0000000000000042 .LVL14
     /tmp/ccOT3P9B.s:167    .text.fwdgt_config:0000000000000044 .LVL15
     /tmp/ccOT3P9B.s:170    .text.fwdgt_config:0000000000000046 .LVL16
     /tmp/ccOT3P9B.s:117    .text.fwdgt_config:000000000000001e .LVL3
     /tmp/ccOT3P9B.s:136    .text.fwdgt_config:000000000000002a .LVL8
     /tmp/ccOT3P9B.s:156    .text.fwdgt_config:000000000000003e .LVL12
     /tmp/ccOT3P9B.s:182    .text.fwdgt_config:0000000000000050 .LVL18
     /tmp/ccOT3P9B.s:244    .debug_info:0000000000000000 .Ldebug_info0

NO UNDEFINED SYMBOLS
