GAS LISTING /tmp/ccuIdrr6.s 			page 1


   1              		.file	"liobt.c"
   2              		.option nopic
   3              		.attribute arch, "rv32i2p0_m2p0_a2p0_c2p0"
   4              		.attribute unaligned_access, 0
   5              		.attribute stack_align, 16
   6              		.text
   7              	.Ltext0:
   8              		.cfi_sections	.debug_frame
   9              		.section	.text.lio_init_bt,"ax",@progbits
  10              		.align	1
  11              		.globl	lio_init_bt
  13              	lio_init_bt:
  14              	.LFB2:
  15              		.file 1 "liobt.c"
   1:liobt.c       **** #include "gd32vf103.h"
   2:liobt.c       **** #include "liobt.h"
   3:liobt.c       **** 
   4:liobt.c       **** 
   5:liobt.c       **** char rx_dma_buffer[LIO_BT_BUFFER_SIZE] = {'\0'};
   6:liobt.c       **** char tx_dma_buffer[LIO_BT_BUFFER_SIZE] = {'\0'};
   7:liobt.c       **** 
   8:liobt.c       **** 
   9:liobt.c       **** void lio_init_bt()
  10:liobt.c       **** {
  16              		.loc 1 10 1
  17              		.cfi_startproc
  11:liobt.c       ****     dma_parameter_struct dma_init_struct;
  18              		.loc 1 11 5
  12:liobt.c       ****     /* enable DMA0 */
  13:liobt.c       ****     rcu_periph_clock_enable(RCU_DMA0);
  19              		.loc 1 13 5
  10:liobt.c       ****     dma_parameter_struct dma_init_struct;
  20              		.loc 1 10 1 is_stmt 0
  21 0000 7971     		addi	sp,sp,-48
  22              	.LCFI0:
  23              		.cfi_def_cfa_offset 48
  24              		.loc 1 13 5
  25 0002 13050050 		li	a0,1280
  10:liobt.c       ****     dma_parameter_struct dma_init_struct;
  26              		.loc 1 10 1
  27 0006 06D6     		sw	ra,44(sp)
  28 0008 22D4     		sw	s0,40(sp)
  29              		.cfi_offset 1, -4
  30              		.cfi_offset 8, -8
  31              		.loc 1 13 5
  32 000a 97000000 		call	rcu_periph_clock_enable
  32      E7800000 
  33              	.LVL0:
  14:liobt.c       ****     /* initialize USART */
  15:liobt.c       ****     rcu_periph_clock_enable(RCU_GPIOA);
  34              		.loc 1 15 5 is_stmt 1
  35 0012 13052060 		li	a0,1538
  36 0016 97000000 		call	rcu_periph_clock_enable
  36      E7800000 
  37              	.LVL1:
  16:liobt.c       **** 
  17:liobt.c       ****     /* enable USART clock */
GAS LISTING /tmp/ccuIdrr6.s 			page 2


  18:liobt.c       ****     rcu_periph_clock_enable(RCU_USART0);
  38              		.loc 1 18 5
  39 001e 1305E060 		li	a0,1550
  40 0022 97000000 		call	rcu_periph_clock_enable
  40      E7800000 
  41              	.LVL2:
  19:liobt.c       **** 
  20:liobt.c       ****     /* connect port to USARTx_Tx */
  21:liobt.c       ****     gpio_init(GPIOA, GPIO_MODE_AF_PP, GPIO_OSPEED_50MHZ, GPIO_PIN_9);
  42              		.loc 1 21 5
  43 002a 37140140 		li	s0,1073811456
  44 002e 13050480 		addi	a0,s0,-2048
  45 0032 93060020 		li	a3,512
  46 0036 0D46     		li	a2,3
  47 0038 E145     		li	a1,24
  48 003a 97000000 		call	gpio_init
  48      E7800000 
  49              	.LVL3:
  22:liobt.c       **** 
  23:liobt.c       ****     /* connect port to USARTx_Rx */
  24:liobt.c       ****     gpio_init(GPIOA, GPIO_MODE_IN_FLOATING, GPIO_OSPEED_50MHZ, GPIO_PIN_10);
  50              		.loc 1 24 5
  51 0042 93060040 		li	a3,1024
  52 0046 0D46     		li	a2,3
  53 0048 9145     		li	a1,4
  54 004a 13050480 		addi	a0,s0,-2048
  55 004e 97000000 		call	gpio_init
  55      E7800000 
  56              	.LVL4:
  25:liobt.c       **** 
  26:liobt.c       ****     /* USART configure */
  27:liobt.c       ****     usart_deinit(USART0);
  57              		.loc 1 27 5
  58 0056 37440140 		li	s0,1073823744
  59 005a 13050480 		addi	a0,s0,-2048
  60 005e 97000000 		call	usart_deinit
  60      E7800000 
  61              	.LVL5:
  28:liobt.c       ****     usart_baudrate_set(USART0, 115200U);
  62              		.loc 1 28 5
  63 0066 F165     		li	a1,114688
  64 0068 13050480 		addi	a0,s0,-2048
  65 006c 93850520 		addi	a1,a1,512
  66 0070 97000000 		call	usart_baudrate_set
  66      E7800000 
  67              	.LVL6:
  29:liobt.c       ****     usart_word_length_set(USART0, USART_WL_8BIT);
  68              		.loc 1 29 5
  69 0078 13050480 		addi	a0,s0,-2048
  70 007c 8145     		li	a1,0
  71 007e 97000000 		call	usart_word_length_set
  71      E7800000 
  72              	.LVL7:
  30:liobt.c       ****     usart_stop_bit_set(USART0, USART_STB_1BIT);
  73              		.loc 1 30 5
  74 0086 13050480 		addi	a0,s0,-2048
  75 008a 8145     		li	a1,0
GAS LISTING /tmp/ccuIdrr6.s 			page 3


  76 008c 97000000 		call	usart_stop_bit_set
  76      E7800000 
  77              	.LVL8:
  31:liobt.c       ****     usart_parity_config(USART0, USART_PM_NONE);
  78              		.loc 1 31 5
  79 0094 13050480 		addi	a0,s0,-2048
  80 0098 8145     		li	a1,0
  81 009a 97000000 		call	usart_parity_config
  81      E7800000 
  82              	.LVL9:
  32:liobt.c       ****     usart_hardware_flow_rts_config(USART0, USART_RTS_DISABLE);
  83              		.loc 1 32 5
  84 00a2 13050480 		addi	a0,s0,-2048
  85 00a6 8145     		li	a1,0
  86 00a8 97000000 		call	usart_hardware_flow_rts_config
  86      E7800000 
  87              	.LVL10:
  33:liobt.c       ****     usart_hardware_flow_cts_config(USART0, USART_CTS_DISABLE);
  88              		.loc 1 33 5
  89 00b0 13050480 		addi	a0,s0,-2048
  90 00b4 8145     		li	a1,0
  91 00b6 97000000 		call	usart_hardware_flow_cts_config
  91      E7800000 
  92              	.LVL11:
  34:liobt.c       ****     usart_receive_config(USART0, USART_RECEIVE_ENABLE);
  93              		.loc 1 34 5
  94 00be 13050480 		addi	a0,s0,-2048
  95 00c2 9145     		li	a1,4
  96 00c4 97000000 		call	usart_receive_config
  96      E7800000 
  97              	.LVL12:
  35:liobt.c       ****     usart_transmit_config(USART0, USART_TRANSMIT_ENABLE);
  98              		.loc 1 35 5
  99 00cc A145     		li	a1,8
 100 00ce 13050480 		addi	a0,s0,-2048
 101 00d2 97000000 		call	usart_transmit_config
 101      E7800000 
 102              	.LVL13:
  36:liobt.c       ****     usart_enable(USART0);
 103              		.loc 1 36 5
 104 00da 13050480 		addi	a0,s0,-2048
 105 00de 97000000 		call	usart_enable
 105      E7800000 
 106              	.LVL14:
  37:liobt.c       **** 
  38:liobt.c       ****     usart_dma_transmit_config(USART0, USART_DENT_ENABLE);
 107              		.loc 1 38 5
 108 00e6 13050480 		addi	a0,s0,-2048
 109 00ea 93050008 		li	a1,128
 110 00ee 97000000 		call	usart_dma_transmit_config
 110      E7800000 
 111              	.LVL15:
  39:liobt.c       ****     usart_dma_receive_config(USART0, USART_DENR_ENABLE);
 112              		.loc 1 39 5
 113 00f6 13050480 		addi	a0,s0,-2048
 114 00fa 93050004 		li	a1,64
 115 00fe 97000000 		call	usart_dma_receive_config
GAS LISTING /tmp/ccuIdrr6.s 			page 4


 115      E7800000 
 116              	.LVL16:
  40:liobt.c       **** 
  41:liobt.c       ****    
  42:liobt.c       **** 
  43:liobt.c       ****     dma_deinit(DMA0, DMA_CH4);
 117              		.loc 1 43 5
 118 0106 9145     		li	a1,4
 119 0108 37050240 		li	a0,1073872896
 120 010c 97000000 		call	dma_deinit
 120      E7800000 
 121              	.LVL17:
  44:liobt.c       ****     dma_init_struct.direction = DMA_PERIPHERAL_TO_MEMORY;
 122              		.loc 1 44 5
  45:liobt.c       ****     dma_init_struct.memory_addr = (uint32_t)rx_dma_buffer;
 123              		.loc 1 45 5
 124              		.loc 1 45 33 is_stmt 0
 125 0114 B7070000 		lui	a5,%hi(.LANCHOR0)
 126 0118 93870700 		addi	a5,a5,%lo(.LANCHOR0)
 127 011c 3EC6     		sw	a5,12(sp)
  46:liobt.c       ****     dma_init_struct.memory_inc = DMA_MEMORY_INCREASE_ENABLE;
 128              		.loc 1 46 5 is_stmt 1
  47:liobt.c       ****     dma_init_struct.memory_width = DMA_MEMORY_WIDTH_8BIT;
 129              		.loc 1 47 5
  48:liobt.c       ****     dma_init_struct.number = LIO_BT_BUFFER_SIZE;
 130              		.loc 1 48 5
  49:liobt.c       ****     dma_init_struct.periph_addr = (uint32_t)&USART_DATA(USART0);
 131              		.loc 1 49 5
  48:liobt.c       ****     dma_init_struct.number = LIO_BT_BUFFER_SIZE;
 132              		.loc 1 48 28 is_stmt 0
 133 011e 93070040 		li	a5,1024
 134 0122 3ECA     		sw	a5,20(sp)
  50:liobt.c       ****     dma_init_struct.periph_inc = DMA_PERIPH_INCREASE_DISABLE;
  51:liobt.c       ****     dma_init_struct.periph_width = DMA_PERIPHERAL_WIDTH_8BIT;
  52:liobt.c       ****     dma_init_struct.priority = DMA_PRIORITY_ULTRA_HIGH;
 135              		.loc 1 52 30
 136 0124 8D67     		li	a5,12288
  53:liobt.c       ****     dma_init(DMA0, DMA_CH4, &dma_init_struct);
 137              		.loc 1 53 5
 138 0126 5000     		addi	a2,sp,4
  52:liobt.c       ****     dma_init(DMA0, DMA_CH4, &dma_init_struct);
 139              		.loc 1 52 30
 140 0128 3ECC     		sw	a5,24(sp)
 141              		.loc 1 53 5
 142 012a 9145     		li	a1,4
  50:liobt.c       ****     dma_init_struct.periph_inc = DMA_PERIPH_INCREASE_DISABLE;
 143              		.loc 1 50 32
 144 012c 93070010 		li	a5,256
 145              		.loc 1 53 5
 146 0130 37050240 		li	a0,1073872896
  49:liobt.c       ****     dma_init_struct.periph_inc = DMA_PERIPH_INCREASE_DISABLE;
 147              		.loc 1 49 33
 148 0134 13044480 		addi	s0,s0,-2044
  50:liobt.c       ****     dma_init_struct.periph_width = DMA_PERIPHERAL_WIDTH_8BIT;
 149              		.loc 1 50 32
 150 0138 231EF100 		sh	a5,28(sp)
  49:liobt.c       ****     dma_init_struct.periph_inc = DMA_PERIPH_INCREASE_DISABLE;
GAS LISTING /tmp/ccuIdrr6.s 			page 5


 151              		.loc 1 49 33
 152 013c 22C2     		sw	s0,4(sp)
  50:liobt.c       ****     dma_init_struct.periph_width = DMA_PERIPHERAL_WIDTH_8BIT;
 153              		.loc 1 50 5 is_stmt 1
  51:liobt.c       ****     dma_init_struct.priority = DMA_PRIORITY_ULTRA_HIGH;
 154              		.loc 1 51 5
  51:liobt.c       ****     dma_init_struct.priority = DMA_PRIORITY_ULTRA_HIGH;
 155              		.loc 1 51 34 is_stmt 0
 156 013e 02C4     		sw	zero,8(sp)
  52:liobt.c       ****     dma_init(DMA0, DMA_CH4, &dma_init_struct);
 157              		.loc 1 52 5 is_stmt 1
  47:liobt.c       ****     dma_init_struct.number = LIO_BT_BUFFER_SIZE;
 158              		.loc 1 47 34 is_stmt 0
 159 0140 02C8     		sw	zero,16(sp)
  44:liobt.c       ****     dma_init_struct.memory_addr = (uint32_t)rx_dma_buffer;
 160              		.loc 1 44 31
 161 0142 230F0100 		sb	zero,30(sp)
 162              		.loc 1 53 5 is_stmt 1
 163 0146 97000000 		call	dma_init
 163      E7800000 
 164              	.LVL18:
  54:liobt.c       ****         /* configure DMA mode */
  55:liobt.c       ****     dma_circulation_disable(DMA0, DMA_CH4);
 165              		.loc 1 55 5
 166 014e 9145     		li	a1,4
 167 0150 37050240 		li	a0,1073872896
 168 0154 97000000 		call	dma_circulation_disable
 168      E7800000 
 169              	.LVL19:
  56:liobt.c       ****         /* enable DMA channel4 */
  57:liobt.c       ****     dma_channel_enable(DMA0, DMA_CH4);
 170              		.loc 1 57 5
 171 015c 9145     		li	a1,4
 172 015e 37050240 		li	a0,1073872896
 173 0162 97000000 		call	dma_channel_enable
 173      E7800000 
 174              	.LVL20:
  58:liobt.c       **** }
 175              		.loc 1 58 1 is_stmt 0
 176 016a B250     		lw	ra,44(sp)
 177              		.cfi_restore 1
 178 016c 2254     		lw	s0,40(sp)
 179              		.cfi_restore 8
 180 016e 4561     		addi	sp,sp,48
 181              	.LCFI1:
 182              		.cfi_def_cfa_offset 0
 183 0170 8280     		jr	ra
 184              		.cfi_endproc
 185              	.LFE2:
 187              		.section	.text.lio_read_bt,"ax",@progbits
 188              		.align	1
 189              		.globl	lio_read_bt
 191              	lio_read_bt:
 192              	.LFB3:
  59:liobt.c       **** 
  60:liobt.c       **** size_t lio_read_bt(char* buffer, uint32_t size)
  61:liobt.c       **** {
GAS LISTING /tmp/ccuIdrr6.s 			page 6


 193              		.loc 1 61 1 is_stmt 1
 194              		.cfi_startproc
 195              	.LVL21:
  62:liobt.c       ****     if(rx_dma_buffer[0] != 0)
 196              		.loc 1 62 5
  61:liobt.c       ****     if(rx_dma_buffer[0] != 0)
 197              		.loc 1 61 1 is_stmt 0
 198 0000 7971     		addi	sp,sp,-48
 199              	.LCFI2:
 200              		.cfi_def_cfa_offset 48
 201              		.loc 1 62 21
 202 0002 B7070000 		lui	a5,%hi(.LANCHOR0)
  61:liobt.c       ****     if(rx_dma_buffer[0] != 0)
 203              		.loc 1 61 1
 204 0006 26D2     		sw	s1,36(sp)
 205              		.cfi_offset 9, -12
 206              		.loc 1 62 21
 207 0008 93840700 		addi	s1,a5,%lo(.LANCHOR0)
 208 000c 03C70400 		lbu	a4,0(s1)
  61:liobt.c       ****     if(rx_dma_buffer[0] != 0)
 209              		.loc 1 61 1
 210 0010 22D4     		sw	s0,40(sp)
 211 0012 06D6     		sw	ra,44(sp)
 212              		.cfi_offset 8, -8
 213              		.cfi_offset 1, -4
  63:liobt.c       ****     {
  64:liobt.c       ****         int i = 0;
  65:liobt.c       ****         for(; i < LIO_BT_BUFFER_SIZE && rx_dma_buffer[i] != 0 && i < size - 1; i++){
  66:liobt.c       ****             buffer[i] = rx_dma_buffer[i];
  67:liobt.c       ****             rx_dma_buffer[i] = 0;
  68:liobt.c       ****         }
  69:liobt.c       ****         buffer[i] = '\0';
  70:liobt.c       **** 
  71:liobt.c       ****         dma_parameter_struct dma_init_struct;
  72:liobt.c       **** 
  73:liobt.c       ****         dma_deinit(DMA0, DMA_CH4);
  74:liobt.c       ****         dma_init_struct.direction = DMA_PERIPHERAL_TO_MEMORY;
  75:liobt.c       ****         dma_init_struct.memory_addr = (uint32_t)rx_dma_buffer;
  76:liobt.c       ****         dma_init_struct.memory_inc = DMA_MEMORY_INCREASE_ENABLE;
  77:liobt.c       ****         dma_init_struct.memory_width = DMA_MEMORY_WIDTH_8BIT;
  78:liobt.c       ****         dma_init_struct.number = LIO_BT_BUFFER_SIZE;
  79:liobt.c       ****         dma_init_struct.periph_addr = (uint32_t)&USART_DATA(USART0);
  80:liobt.c       ****         dma_init_struct.periph_inc = DMA_PERIPH_INCREASE_DISABLE;
  81:liobt.c       ****         dma_init_struct.periph_width = DMA_PERIPHERAL_WIDTH_8BIT;
  82:liobt.c       ****         dma_init_struct.priority = DMA_PRIORITY_ULTRA_HIGH;
  83:liobt.c       ****         dma_init(DMA0, DMA_CH4, &dma_init_struct);
  84:liobt.c       ****         /* configure DMA mode */
  85:liobt.c       ****         dma_circulation_disable(DMA0, DMA_CH4);
  86:liobt.c       ****         /* enable DMA channel4 */
  87:liobt.c       ****         dma_channel_enable(DMA0, DMA_CH4);
  88:liobt.c       ****         return i;
  89:liobt.c       ****     }
  90:liobt.c       ****     return 0;
 214              		.loc 1 90 12
 215 0014 0144     		li	s0,0
  62:liobt.c       ****     {
 216              		.loc 1 62 7
GAS LISTING /tmp/ccuIdrr6.s 			page 7


 217 0016 19E7     		bne	a4,zero,.L13
  91:liobt.c       **** }
 218              		.loc 1 91 1
 219 0018 2285     		mv	a0,s0
 220              	.LVL22:
 221 001a B250     		lw	ra,44(sp)
 222              		.cfi_remember_state
 223              		.cfi_restore 1
 224 001c 2254     		lw	s0,40(sp)
 225              		.cfi_restore 8
 226 001e 9254     		lw	s1,36(sp)
 227              		.cfi_restore 9
 228 0020 4561     		addi	sp,sp,48
 229              	.LCFI3:
 230              		.cfi_def_cfa_offset 0
 231 0022 8280     		jr	ra
 232              	.LVL23:
 233              	.L13:
 234              	.LCFI4:
 235              		.cfi_restore_state
 236 0024 2A86     		mv	a2,a0
 237 0026 FD15     		addi	a1,a1,-1
 238              	.LVL24:
  62:liobt.c       ****     {
 239              		.loc 1 62 7
 240 0028 93870700 		addi	a5,a5,%lo(.LANCHOR0)
 241              	.LBB2:
  64:liobt.c       ****         for(; i < LIO_BT_BUFFER_SIZE && rx_dma_buffer[i] != 0 && i < size - 1; i++){
 242              		.loc 1 64 13
 243 002c 8146     		li	a3,0
  65:liobt.c       ****             buffer[i] = rx_dma_buffer[i];
 244              		.loc 1 65 9
 245 002e 93080040 		li	a7,1024
 246              	.LVL25:
 247              	.L9:
  66:liobt.c       ****             rx_dma_buffer[i] = 0;
 248              		.loc 1 66 13 is_stmt 1 discriminator 3
 249 0032 3684     		mv	s0,a3
 250 0034 3288     		mv	a6,a2
  65:liobt.c       ****             buffer[i] = rx_dma_buffer[i];
 251              		.loc 1 65 81 is_stmt 0 discriminator 3
 252 0036 8506     		addi	a3,a3,1
 253              	.LVL26:
  65:liobt.c       ****             buffer[i] = rx_dma_buffer[i];
 254              		.loc 1 65 63 discriminator 3
 255 0038 6301B402 		beq	s0,a1,.L8
  66:liobt.c       ****             rx_dma_buffer[i] = 0;
 256              		.loc 1 66 23 discriminator 4
 257 003c 2300E600 		sb	a4,0(a2)
  67:liobt.c       ****         }
 258              		.loc 1 67 13 is_stmt 1 discriminator 4
  67:liobt.c       ****         }
 259              		.loc 1 67 30 is_stmt 0 discriminator 4
 260 0040 23800700 		sb	zero,0(a5)
  65:liobt.c       ****             buffer[i] = rx_dma_buffer[i];
 261              		.loc 1 65 9 discriminator 4
 262 0044 63831609 		beq	a3,a7,.L14
GAS LISTING /tmp/ccuIdrr6.s 			page 8


  65:liobt.c       ****             buffer[i] = rx_dma_buffer[i];
 263              		.loc 1 65 54 discriminator 2
 264 0048 03C71700 		lbu	a4,1(a5)
 265 004c 13061800 		addi	a2,a6,1
 266 0050 8507     		addi	a5,a5,1
  65:liobt.c       ****             buffer[i] = rx_dma_buffer[i];
 267              		.loc 1 65 38 discriminator 2
 268 0052 65F3     		bne	a4,zero,.L9
 269 0054 3684     		mv	s0,a3
 270 0056 3308D500 		add	a6,a0,a3
 271              	.L8:
  69:liobt.c       **** 
 272              		.loc 1 69 9 is_stmt 1
  69:liobt.c       **** 
 273              		.loc 1 69 19 is_stmt 0
 274 005a 23000800 		sb	zero,0(a6)
  71:liobt.c       **** 
 275              		.loc 1 71 9 is_stmt 1
  73:liobt.c       ****         dma_init_struct.direction = DMA_PERIPHERAL_TO_MEMORY;
 276              		.loc 1 73 9
 277 005e 9145     		li	a1,4
 278              	.LVL27:
 279 0060 37050240 		li	a0,1073872896
 280              	.LVL28:
 281 0064 97000000 		call	dma_deinit
 281      E7800000 
 282              	.LVL29:
  74:liobt.c       ****         dma_init_struct.memory_addr = (uint32_t)rx_dma_buffer;
 283              		.loc 1 74 9
  75:liobt.c       ****         dma_init_struct.memory_inc = DMA_MEMORY_INCREASE_ENABLE;
 284              		.loc 1 75 9
  79:liobt.c       ****         dma_init_struct.periph_inc = DMA_PERIPH_INCREASE_DISABLE;
 285              		.loc 1 79 37 is_stmt 0
 286 006c B7470140 		li	a5,1073823744
 287 0070 93874780 		addi	a5,a5,-2044
 288 0074 3EC2     		sw	a5,4(sp)
  78:liobt.c       ****         dma_init_struct.periph_addr = (uint32_t)&USART_DATA(USART0);
 289              		.loc 1 78 32
 290 0076 93070040 		li	a5,1024
 291 007a 3ECA     		sw	a5,20(sp)
  82:liobt.c       ****         dma_init(DMA0, DMA_CH4, &dma_init_struct);
 292              		.loc 1 82 34
 293 007c 8D67     		li	a5,12288
  83:liobt.c       ****         /* configure DMA mode */
 294              		.loc 1 83 9
 295 007e 5000     		addi	a2,sp,4
  82:liobt.c       ****         dma_init(DMA0, DMA_CH4, &dma_init_struct);
 296              		.loc 1 82 34
 297 0080 3ECC     		sw	a5,24(sp)
  83:liobt.c       ****         /* configure DMA mode */
 298              		.loc 1 83 9
 299 0082 9145     		li	a1,4
  80:liobt.c       ****         dma_init_struct.periph_width = DMA_PERIPHERAL_WIDTH_8BIT;
 300              		.loc 1 80 36
 301 0084 93070010 		li	a5,256
  83:liobt.c       ****         /* configure DMA mode */
 302              		.loc 1 83 9
GAS LISTING /tmp/ccuIdrr6.s 			page 9


 303 0088 37050240 		li	a0,1073872896
  80:liobt.c       ****         dma_init_struct.periph_width = DMA_PERIPHERAL_WIDTH_8BIT;
 304              		.loc 1 80 36
 305 008c 231EF100 		sh	a5,28(sp)
  75:liobt.c       ****         dma_init_struct.memory_inc = DMA_MEMORY_INCREASE_ENABLE;
 306              		.loc 1 75 37
 307 0090 26C6     		sw	s1,12(sp)
  76:liobt.c       ****         dma_init_struct.memory_width = DMA_MEMORY_WIDTH_8BIT;
 308              		.loc 1 76 9 is_stmt 1
  77:liobt.c       ****         dma_init_struct.number = LIO_BT_BUFFER_SIZE;
 309              		.loc 1 77 9
  78:liobt.c       ****         dma_init_struct.periph_addr = (uint32_t)&USART_DATA(USART0);
 310              		.loc 1 78 9
  79:liobt.c       ****         dma_init_struct.periph_inc = DMA_PERIPH_INCREASE_DISABLE;
 311              		.loc 1 79 9
  80:liobt.c       ****         dma_init_struct.periph_width = DMA_PERIPHERAL_WIDTH_8BIT;
 312              		.loc 1 80 9
  81:liobt.c       ****         dma_init_struct.priority = DMA_PRIORITY_ULTRA_HIGH;
 313              		.loc 1 81 9
  81:liobt.c       ****         dma_init_struct.priority = DMA_PRIORITY_ULTRA_HIGH;
 314              		.loc 1 81 38 is_stmt 0
 315 0092 02C4     		sw	zero,8(sp)
  82:liobt.c       ****         dma_init(DMA0, DMA_CH4, &dma_init_struct);
 316              		.loc 1 82 9 is_stmt 1
  77:liobt.c       ****         dma_init_struct.number = LIO_BT_BUFFER_SIZE;
 317              		.loc 1 77 38 is_stmt 0
 318 0094 02C8     		sw	zero,16(sp)
  74:liobt.c       ****         dma_init_struct.memory_addr = (uint32_t)rx_dma_buffer;
 319              		.loc 1 74 35
 320 0096 230F0100 		sb	zero,30(sp)
  83:liobt.c       ****         /* configure DMA mode */
 321              		.loc 1 83 9 is_stmt 1
 322 009a 97000000 		call	dma_init
 322      E7800000 
 323              	.LVL30:
  85:liobt.c       ****         /* enable DMA channel4 */
 324              		.loc 1 85 9
 325 00a2 9145     		li	a1,4
 326 00a4 37050240 		li	a0,1073872896
 327 00a8 97000000 		call	dma_circulation_disable
 327      E7800000 
 328              	.LVL31:
  87:liobt.c       ****         return i;
 329              		.loc 1 87 9
 330 00b0 37050240 		li	a0,1073872896
 331 00b4 9145     		li	a1,4
 332 00b6 97000000 		call	dma_channel_enable
 332      E7800000 
 333              	.LVL32:
  88:liobt.c       ****     }
 334              		.loc 1 88 9
 335              	.LBE2:
 336              		.loc 1 91 1 is_stmt 0
 337 00be 2285     		mv	a0,s0
 338 00c0 B250     		lw	ra,44(sp)
 339              		.cfi_remember_state
 340              		.cfi_restore 1
GAS LISTING /tmp/ccuIdrr6.s 			page 10


 341 00c2 2254     		lw	s0,40(sp)
 342              		.cfi_restore 8
 343 00c4 9254     		lw	s1,36(sp)
 344              		.cfi_restore 9
 345 00c6 4561     		addi	sp,sp,48
 346              	.LCFI5:
 347              		.cfi_def_cfa_offset 0
 348 00c8 8280     		jr	ra
 349              	.LVL33:
 350              	.L14:
 351              	.LCFI6:
 352              		.cfi_restore_state
 353 00ca 13080540 		addi	a6,a0,1024
 354              	.LBB3:
  65:liobt.c       ****             buffer[i] = rx_dma_buffer[i];
 355              		.loc 1 65 9
 356 00ce 13040040 		li	s0,1024
 357 00d2 61B7     		j	.L8
 358              	.LBE3:
 359              		.cfi_endproc
 360              	.LFE3:
 362              		.section	.text.lio_send_bt,"ax",@progbits
 363              		.align	1
 364              		.globl	lio_send_bt
 366              	lio_send_bt:
 367              	.LFB4:
  92:liobt.c       **** 
  93:liobt.c       **** size_t lio_send_bt(char* message, uint32_t size)
  94:liobt.c       **** {
 368              		.loc 1 94 1 is_stmt 1
 369              		.cfi_startproc
 370              	.LVL34:
  95:liobt.c       ****     for(int i = 0; i < size && i < LIO_BT_BUFFER_SIZE; i++) {
 371              		.loc 1 95 5
 372              	.LBB4:
 373              		.loc 1 95 9
 374              	.LBE4:
  94:liobt.c       ****     for(int i = 0; i < size && i < LIO_BT_BUFFER_SIZE; i++) {
 375              		.loc 1 94 1 is_stmt 0
 376 0000 7971     		addi	sp,sp,-48
 377              	.LCFI7:
 378              		.cfi_def_cfa_offset 48
 379 0002 22D4     		sw	s0,40(sp)
 380 0004 26D2     		sw	s1,36(sp)
 381 0006 06D6     		sw	ra,44(sp)
 382              		.cfi_offset 8, -8
 383              		.cfi_offset 9, -12
 384              		.cfi_offset 1, -4
 385 0008 B7040000 		lui	s1,%hi(.LANCHOR1)
  94:liobt.c       ****     for(int i = 0; i < size && i < LIO_BT_BUFFER_SIZE; i++) {
 386              		.loc 1 94 1
 387 000c 2E84     		mv	s0,a1
 388 000e 93840400 		addi	s1,s1,%lo(.LANCHOR1)
 389              	.LBB5:
 390              		.loc 1 95 5
 391 0012 9DC5     		beq	a1,zero,.L16
 392 0014 B7070000 		lui	a5,%hi(.LANCHOR1)
GAS LISTING /tmp/ccuIdrr6.s 			page 11


 393 0018 B306B500 		add	a3,a0,a1
 394 001c 93840700 		addi	s1,a5,%lo(.LANCHOR1)
 395 0020 FD16     		addi	a3,a3,-1
 396 0022 93870700 		addi	a5,a5,%lo(.LANCHOR1)
 397 0026 13060540 		addi	a2,a0,1024
 398 002a 21A0     		j	.L17
 399              	.LVL35:
 400              	.L23:
 401 002c 0505     		addi	a0,a0,1
 402              	.LVL36:
 403              		.loc 1 95 29 discriminator 3
 404 002e 6309C500 		beq	a0,a2,.L16
 405              	.LVL37:
 406              	.L17:
  96:liobt.c       ****         tx_dma_buffer[i] = message[i];
 407              		.loc 1 96 9 is_stmt 1 discriminator 4
 408              		.loc 1 96 35 is_stmt 0 discriminator 4
 409 0032 03470500 		lbu	a4,0(a0)
 410 0036 8507     		addi	a5,a5,1
 411              		.loc 1 96 26 discriminator 4
 412 0038 A38FE7FE 		sb	a4,-1(a5)
 413              	.LVL38:
  95:liobt.c       ****     for(int i = 0; i < size && i < LIO_BT_BUFFER_SIZE; i++) {
 414              		.loc 1 95 5 discriminator 4
 415 003c E318D5FE 		bne	a0,a3,.L23
 416              	.LVL39:
 417              	.L16:
 418              	.LBE5:
  97:liobt.c       ****     }
  98:liobt.c       **** 
  99:liobt.c       ****     dma_parameter_struct dma_init_struct;
 419              		.loc 1 99 5 is_stmt 1
 100:liobt.c       ****     dma_deinit(DMA0, DMA_CH3);
 420              		.loc 1 100 5
 421 0040 8D45     		li	a1,3
 422              	.LVL40:
 423 0042 37050240 		li	a0,1073872896
 424 0046 97000000 		call	dma_deinit
 424      E7800000 
 425              	.LVL41:
 101:liobt.c       ****     dma_init_struct.direction = DMA_MEMORY_TO_PERIPHERAL;
 426              		.loc 1 101 5
 102:liobt.c       ****     dma_init_struct.memory_addr = (uint32_t)tx_dma_buffer;
 427              		.loc 1 102 5
 103:liobt.c       ****     dma_init_struct.memory_inc = DMA_MEMORY_INCREASE_ENABLE;
 104:liobt.c       ****     dma_init_struct.memory_width = DMA_MEMORY_WIDTH_8BIT;
 105:liobt.c       ****     dma_init_struct.number = size;
 106:liobt.c       ****     dma_init_struct.periph_addr = (uint32_t)&USART_DATA(USART0);
 428              		.loc 1 106 33 is_stmt 0
 429 004e B7470140 		li	a5,1073823744
 430 0052 93874780 		addi	a5,a5,-2044
 431 0056 3EC2     		sw	a5,4(sp)
 107:liobt.c       ****     dma_init_struct.periph_inc = DMA_PERIPH_INCREASE_DISABLE;
 108:liobt.c       ****     dma_init_struct.periph_width = DMA_PERIPHERAL_WIDTH_8BIT;
 109:liobt.c       ****     dma_init_struct.priority = DMA_PRIORITY_ULTRA_HIGH;
 432              		.loc 1 109 30
 433 0058 8D67     		li	a5,12288
GAS LISTING /tmp/ccuIdrr6.s 			page 12


 434 005a 3ECC     		sw	a5,24(sp)
 107:liobt.c       ****     dma_init_struct.periph_inc = DMA_PERIPH_INCREASE_DISABLE;
 435              		.loc 1 107 32
 436 005c 93070010 		li	a5,256
 110:liobt.c       ****     dma_init(DMA0, DMA_CH3, &dma_init_struct);
 437              		.loc 1 110 5
 438 0060 5000     		addi	a2,sp,4
 107:liobt.c       ****     dma_init_struct.periph_inc = DMA_PERIPH_INCREASE_DISABLE;
 439              		.loc 1 107 32
 440 0062 231EF100 		sh	a5,28(sp)
 441              		.loc 1 110 5
 442 0066 8D45     		li	a1,3
 101:liobt.c       ****     dma_init_struct.memory_addr = (uint32_t)tx_dma_buffer;
 443              		.loc 1 101 31
 444 0068 8547     		li	a5,1
 445              		.loc 1 110 5
 446 006a 37050240 		li	a0,1073872896
 101:liobt.c       ****     dma_init_struct.memory_addr = (uint32_t)tx_dma_buffer;
 447              		.loc 1 101 31
 448 006e 230FF100 		sb	a5,30(sp)
 102:liobt.c       ****     dma_init_struct.memory_inc = DMA_MEMORY_INCREASE_ENABLE;
 449              		.loc 1 102 33
 450 0072 26C6     		sw	s1,12(sp)
 103:liobt.c       ****     dma_init_struct.memory_width = DMA_MEMORY_WIDTH_8BIT;
 451              		.loc 1 103 5 is_stmt 1
 104:liobt.c       ****     dma_init_struct.number = size;
 452              		.loc 1 104 5
 105:liobt.c       ****     dma_init_struct.periph_addr = (uint32_t)&USART_DATA(USART0);
 453              		.loc 1 105 28 is_stmt 0
 454 0074 22CA     		sw	s0,20(sp)
 104:liobt.c       ****     dma_init_struct.number = size;
 455              		.loc 1 104 34
 456 0076 02C8     		sw	zero,16(sp)
 105:liobt.c       ****     dma_init_struct.periph_addr = (uint32_t)&USART_DATA(USART0);
 457              		.loc 1 105 5 is_stmt 1
 106:liobt.c       ****     dma_init_struct.periph_inc = DMA_PERIPH_INCREASE_DISABLE;
 458              		.loc 1 106 5
 107:liobt.c       ****     dma_init_struct.periph_width = DMA_PERIPHERAL_WIDTH_8BIT;
 459              		.loc 1 107 5
 108:liobt.c       ****     dma_init_struct.priority = DMA_PRIORITY_ULTRA_HIGH;
 460              		.loc 1 108 5
 108:liobt.c       ****     dma_init_struct.priority = DMA_PRIORITY_ULTRA_HIGH;
 461              		.loc 1 108 34 is_stmt 0
 462 0078 02C4     		sw	zero,8(sp)
 109:liobt.c       ****     dma_init(DMA0, DMA_CH3, &dma_init_struct);
 463              		.loc 1 109 5 is_stmt 1
 464              		.loc 1 110 5
 465 007a 97000000 		call	dma_init
 465      E7800000 
 466              	.LVL42:
 111:liobt.c       ****     /* configure DMA mode */
 112:liobt.c       ****     dma_circulation_disable(DMA0, DMA_CH3);
 467              		.loc 1 112 5
 468 0082 8D45     		li	a1,3
 469 0084 37050240 		li	a0,1073872896
 470 0088 97000000 		call	dma_circulation_disable
 470      E7800000 
GAS LISTING /tmp/ccuIdrr6.s 			page 13


 471              	.LVL43:
 113:liobt.c       ****     /* enable DMA channel3 */
 114:liobt.c       ****     dma_channel_enable(DMA0, DMA_CH3);
 472              		.loc 1 114 5
 473 0090 37050240 		li	a0,1073872896
 474 0094 8D45     		li	a1,3
 475 0096 97000000 		call	dma_channel_enable
 475      E7800000 
 476              	.LVL44:
 115:liobt.c       **** }
 477              		.loc 1 115 1 is_stmt 0
 478 009e B250     		lw	ra,44(sp)
 479              		.cfi_restore 1
 480 00a0 2254     		lw	s0,40(sp)
 481              		.cfi_restore 8
 482              	.LVL45:
 483 00a2 9254     		lw	s1,36(sp)
 484              		.cfi_restore 9
 485 00a4 4561     		addi	sp,sp,48
 486              	.LCFI8:
 487              		.cfi_def_cfa_offset 0
 488 00a6 8280     		jr	ra
 489              		.cfi_endproc
 490              	.LFE4:
 492              		.globl	tx_dma_buffer
 493              		.globl	rx_dma_buffer
 494              		.section	.bss.rx_dma_buffer,"aw",@nobits
 495              		.align	2
 496              		.set	.LANCHOR0,. + 0
 499              	rx_dma_buffer:
 500 0000 00000000 		.zero	1024
 500      00000000 
 500      00000000 
 500      00000000 
 500      00000000 
 501              		.section	.bss.tx_dma_buffer,"aw",@nobits
 502              		.align	2
 503              		.set	.LANCHOR1,. + 0
 506              	tx_dma_buffer:
 507 0000 00000000 		.zero	1024
 507      00000000 
 507      00000000 
 507      00000000 
 507      00000000 
 508              		.text
 509              	.Letext0:
 510              		.file 2 "/home/remahl/toolchain-gd32v/toolchain-gd32v-linux/compiler/riscv64-unknown-elf/include/m
 511              		.file 3 "/home/remahl/toolchain-gd32v/toolchain-gd32v-linux/compiler/riscv64-unknown-elf/include/s
 512              		.file 4 "../../firmware/GD32VF103_standard_peripheral/Include/gd32vf103_dma.h"
 513              		.file 5 "../../firmware/GD32VF103_standard_peripheral/Include/gd32vf103_rcu.h"
 514              		.file 6 "/home/remahl/toolchain-gd32v/toolchain-gd32v-linux/compiler/lib/gcc/riscv64-unknown-elf/8
 515              		.file 7 "../../firmware/GD32VF103_standard_peripheral/system_gd32vf103.h"
 516              		.file 8 "../../firmware/GD32VF103_standard_peripheral/Include/gd32vf103_gpio.h"
 517              		.file 9 "../../firmware/GD32VF103_standard_peripheral/Include/gd32vf103_usart.h"
GAS LISTING /tmp/ccuIdrr6.s 			page 14

