GAS LISTING /tmp/ccPYrfdj.s 			page 1


   1              		.file	"main.c"
   2              		.option nopic
   3              		.attribute arch, "rv32i2p0_m2p0_a2p0_c2p0"
   4              		.attribute unaligned_access, 0
   5              		.attribute stack_align, 16
   6              		.text
   7              	.Ltext0:
   8              		.cfi_sections	.debug_frame
   9              		.section	.text.register_gatt_service,"ax",@progbits
  10              		.align	1
  11              		.globl	register_gatt_service
  13              	register_gatt_service:
  14              	.LFB6:
  15              		.file 1 "main.c"
   1:main.c        **** /* 
   2:main.c        **** Replace this file with your code. Put your source files in this directory and any libraries in the 
   3:main.c        **** If your main program should be assembly-language replace this file with main.S instead.
   4:main.c        **** 
   5:main.c        **** Libraries (other than vendor SDK and gcc libraries) must have .h-files in /lib/[library name]/inclu
   6:main.c        **** */
   7:main.c        **** 
   8:main.c        **** #include "gd32vf103.h"
   9:main.c        **** #include "systick.h"
  10:main.c        **** #include "liobt.h"
  11:main.c        **** #include "string.h"
  12:main.c        **** #include "stdio.h"
  13:main.c        **** 
  14:main.c        **** 
  15:main.c        **** 
  16:main.c        **** #define SERVICE_UUID "4028f84c05c04181843ebdbee6e1030d"
  17:main.c        **** #define RX_CHARACTERISTIC_UUID "e399efc079f94e0882a8f3aa1dc609f2"
  18:main.c        **** #define RX_MTU "14" //Hex
  19:main.c        **** #define RX_PROPERTY "0C" //
  20:main.c        **** #define RX_HANDLE "0072"
  21:main.c        **** #define TX_CHARACTERISTIC_UUID "e399efc079f94e0882a8f3aa1dc609f1"
  22:main.c        **** #define TX_MTU "14" //Hex
  23:main.c        **** #define TX_PROPERTY "1C" //
  24:main.c        **** #define TX_HANDLE "0074"
  25:main.c        **** 
  26:main.c        **** enum command_enum {
  27:main.c        **** 	COMMAND_MODE,
  28:main.c        **** 	SET_SERVICE,
  29:main.c        **** 	SET_RX_CHARACTERISTIC,
  30:main.c        **** 	SET_TX_CHARACTERISTIC,
  31:main.c        **** 	READ_HANDLE,
  32:main.c        **** 	WRITE_HANDLE,
  33:main.c        **** 	
  34:main.c        **** };
  35:main.c        **** 
  36:main.c        **** static const char* commands[] = {
  37:main.c        **** 	[COMMAND_MODE] = "$$$" "\r\n",
  38:main.c        **** 	[SET_SERVICE] = "PS," SERVICE_UUID "\r\n",
  39:main.c        **** 	[SET_RX_CHARACTERISTIC] = "PC," RX_CHARACTERISTIC_UUID "," RX_PROPERTY "," RX_MTU "\r\n",
  40:main.c        **** 	[SET_TX_CHARACTERISTIC] = "PC," TX_CHARACTERISTIC_UUID "," TX_PROPERTY "," TX_MTU "\r\n",
  41:main.c        **** 	[READ_HANDLE] = "SHR,",
  42:main.c        **** 	[WRITE_HANDLE] = "SHW,"
  43:main.c        **** };
GAS LISTING /tmp/ccPYrfdj.s 			page 2


  44:main.c        **** 
  45:main.c        **** //Indicate: 			0b00100000   
  46:main.c        **** //Notify:				0b00010000      
  47:main.c        **** //Write:				0b00001000  
  48:main.c        **** //Write w/o response:	0b00000100  
  49:main.c        **** //Read:					0b00000010  
  50:main.c        **** 
  51:main.c        **** // N =   1
  52:main.c        **** // I =   2
  53:main.c        **** // I+N = 3
  54:main.c        **** 
  55:main.c        **** // R =           2
  56:main.c        **** // Wo =          4
  57:main.c        **** // Wo + R =      6
  58:main.c        **** // Wr =          8
  59:main.c        **** // Wr + R =      A    
  60:main.c        **** // Wr + Wo =     C
  61:main.c        **** // Wr + Wo + R = E
  62:main.c        **** 
  63:main.c        **** //Service:           PS,4028f84c05c04181843ebdbee6e1030d
  64:main.c        **** // 4028 f84c 05c0 4181 843e bdbe e6e1 030d
  65:main.c        **** //Characteristic RX: PC,e399efc079f94e0882a8f3aa1dc609f2,0c,14
  66:main.c        **** //Characteristic TX: PC,e399efc079f94e0882a8f3aa1dc609f1,1c,14
  67:main.c        **** 
  68:main.c        **** void register_gatt_service(){
  16              		.loc 1 68 29
  17              		.cfi_startproc
  69:main.c        **** 
  70:main.c        **** 	uint8_t command_buffer[256] = {0};
  18              		.loc 1 70 2
  71:main.c        **** 	uint8_t response_buffer[1024] = {0};
  19              		.loc 1 71 2
  72:main.c        **** 
  73:main.c        **** 	strcpy(command_buffer, commands[SET_SERVICE]);
  20              		.loc 1 73 2
  74:main.c        **** }
  21              		.loc 1 74 1 is_stmt 0
  22 0000 8280     		ret
  23              		.cfi_endproc
  24              	.LFE6:
  26              		.section	.text.send_command_with_response,"ax",@progbits
  27              		.align	1
  28              		.globl	send_command_with_response
  30              	send_command_with_response:
  31              	.LFB7:
  75:main.c        **** 
  76:main.c        **** int send_command_with_response(uint8_t* pCommand, uint8_t* response_buffer, uint32_t timeout_ms){
  32              		.loc 1 76 97 is_stmt 1
  33              		.cfi_startproc
  34              	.LVL0:
  77:main.c        **** 	return 0;
  35              		.loc 1 77 2
  78:main.c        **** }
  36              		.loc 1 78 1 is_stmt 0
  37 0000 0145     		li	a0,0
  38              	.LVL1:
  39 0002 8280     		ret
GAS LISTING /tmp/ccPYrfdj.s 			page 3


  40              		.cfi_endproc
  41              	.LFE7:
  43              		.section	.text.send_command,"ax",@progbits
  44              		.align	1
  45              		.globl	send_command
  47              	send_command:
  48              	.LFB8:
  79:main.c        **** 
  80:main.c        **** void send_command(uint8_t* pCommand){
  49              		.loc 1 80 37 is_stmt 1
  50              		.cfi_startproc
  51              	.LVL2:
  81:main.c        **** 
  82:main.c        **** }
  52              		.loc 1 82 1
  53 0000 8280     		ret
  54              		.cfi_endproc
  55              	.LFE8:
  57              		.section	.text.read_handle,"ax",@progbits
  58              		.align	1
  59              		.globl	read_handle
  61              	read_handle:
  62              	.LFB9:
  83:main.c        **** 
  84:main.c        **** int read_handle(uint16_t handle, uint8_t* response_buffer, uint32_t timeout){
  63              		.loc 1 84 77
  64              		.cfi_startproc
  65              	.LVL3:
  85:main.c        **** 	//Construct command
  86:main.c        **** 	uint8_t string_buffer[16] = {'\0'};
  66              		.loc 1 86 2
  84:main.c        **** 	//Construct command
  67              		.loc 1 84 77 is_stmt 0
  68 0000 130101DD 		addi	sp,sp,-560
  69              	.LCFI0:
  70              		.cfi_def_cfa_offset 560
  71 0004 23248122 		sw	s0,552(sp)
  72 0008 23229122 		sw	s1,548(sp)
  73              		.cfi_offset 8, -8
  74              		.cfi_offset 9, -12
  75 000c 3284     		mv	s0,a2
  76 000e AE84     		mv	s1,a1
  87:main.c        **** 	uint8_t receive_buffer[512] = {'\0'};
  77              		.loc 1 87 10
  78 0010 13060020 		li	a2,512
  79              	.LVL4:
  80 0014 8145     		li	a1,0
  81              	.LVL5:
  82 0016 0810     		addi	a0,sp,32
  83              	.LVL6:
  84:main.c        **** 	//Construct command
  84              		.loc 1 84 77
  85 0018 23261122 		sw	ra,556(sp)
  86              		.cfi_offset 1, -4
  86:main.c        **** 	uint8_t receive_buffer[512] = {'\0'};
  87              		.loc 1 86 10
  88 001c 02C8     		sw	zero,16(sp)
GAS LISTING /tmp/ccPYrfdj.s 			page 4


  89 001e 02CA     		sw	zero,20(sp)
  90 0020 02CC     		sw	zero,24(sp)
  91 0022 02CE     		sw	zero,28(sp)
  92              		.loc 1 87 2 is_stmt 1
  93              		.loc 1 87 10 is_stmt 0
  94 0024 97000000 		call	memset
  94      E7800000 
  95              	.LVL7:
  88:main.c        **** 	uint8_t finish_state[] = "CMD>";
  96              		.loc 1 88 2 is_stmt 1
  89:main.c        **** 	sprintf(string_buffer, "%s,%.4x\r\n");
  97              		.loc 1 89 2 is_stmt 0
  98 002c B7050000 		lui	a1,%hi(.LC0)
  88:main.c        **** 	uint8_t finish_state[] = "CMD>";
  99              		.loc 1 88 10
 100 0030 B757443E 		li	a5,1044664320
 101 0034 938737D4 		addi	a5,a5,-701
 102              		.loc 1 89 2
 103 0038 93850500 		addi	a1,a1,%lo(.LC0)
 104 003c 0808     		addi	a0,sp,16
  88:main.c        **** 	uint8_t finish_state[] = "CMD>";
 105              		.loc 1 88 10
 106 003e 3EC4     		sw	a5,8(sp)
 107 0040 23060100 		sb	zero,12(sp)
 108              		.loc 1 89 2 is_stmt 1
 109 0044 97000000 		call	sprintf
 109      E7800000 
 110              	.LVL8:
  90:main.c        **** 	//Flush rx buffer
  91:main.c        **** 	lio_read_bt(receive_buffer, 512);
 111              		.loc 1 91 2
 112 004c 93050020 		li	a1,512
 113 0050 0810     		addi	a0,sp,32
 114 0052 97000000 		call	lio_read_bt
 114      E7800000 
 115              	.LVL9:
  92:main.c        **** 	//Send command
  93:main.c        **** 	lio_send_bt(string_buffer, strlen(string_buffer));
 116              		.loc 1 93 2
 117              		.loc 1 93 29 is_stmt 0
 118 005a 0808     		addi	a0,sp,16
 119 005c 97000000 		call	strlen
 119      E7800000 
 120              	.LVL10:
 121              		.loc 1 93 2
 122 0064 AA85     		mv	a1,a0
 123 0066 0808     		addi	a0,sp,16
 124 0068 97000000 		call	lio_send_bt
 124      E7800000 
 125              	.LVL11:
  94:main.c        **** 	
  95:main.c        **** 	for(int i = 0, msg_state = 0; timeout > 0; timeout--){
 126              		.loc 1 95 2 is_stmt 1
 127              	.LBB4:
 128              		.loc 1 95 6
 129              		.loc 1 95 2 is_stmt 0
 130 0070 19E8     		bne	s0,zero,.L6
GAS LISTING /tmp/ccPYrfdj.s 			page 5


 131              	.LVL12:
 132              	.L8:
 133              	.LBE4:
  96:main.c        **** 		//Get new characters
  97:main.c        **** 		int read_chars = 0;
  98:main.c        **** 		read_chars = lio_read_bt(&receive_buffer[i], 512-i);
  99:main.c        **** 
 100:main.c        **** 		for(;read_chars > 0; read_chars--, ++i){
 101:main.c        **** 			if(receive_buffer[i] == finish_state[msg_state]) msg_state++; 
 102:main.c        **** 			else msg_state = 0;
 103:main.c        **** 			if(finish_state[msg_state] == '\0'){
 104:main.c        **** 				receive_buffer[i - strlen(finish_state)] = '\0';
 105:main.c        **** 				strncpy(response_buffer, receive_buffer, 512);
 106:main.c        **** 				return 1;
 107:main.c        **** 			}
 108:main.c        **** 		}
 109:main.c        **** 		return 0;
 110:main.c        **** 	}
 111:main.c        **** 	
 112:main.c        **** 	//wait for response
 113:main.c        **** 	return 0;
 114:main.c        **** }
 134              		.loc 1 114 1
 135 0072 8320C122 		lw	ra,556(sp)
 136              		.cfi_remember_state
 137              		.cfi_restore 1
 138 0076 03248122 		lw	s0,552(sp)
 139              		.cfi_restore 8
 140              	.LVL13:
 141 007a 83244122 		lw	s1,548(sp)
 142              		.cfi_restore 9
 143              	.LVL14:
 113:main.c        **** }
 144              		.loc 1 113 9
 145 007e 0145     		li	a0,0
 146              		.loc 1 114 1
 147 0080 13010123 		addi	sp,sp,560
 148              	.LCFI1:
 149              		.cfi_def_cfa_offset 0
 150 0084 8280     		jr	ra
 151              	.LVL15:
 152              	.L6:
 153              	.LCFI2:
 154              		.cfi_restore_state
 155              	.LBB8:
 156              	.LBB5:
  97:main.c        **** 		read_chars = lio_read_bt(&receive_buffer[i], 512-i);
 157              		.loc 1 97 3 is_stmt 1
  98:main.c        **** 
 158              		.loc 1 98 3
  98:main.c        **** 
 159              		.loc 1 98 16 is_stmt 0
 160 0086 93050020 		li	a1,512
 161 008a 0810     		addi	a0,sp,32
 162 008c 97000000 		call	lio_read_bt
 162      E7800000 
 163              	.LVL16:
GAS LISTING /tmp/ccPYrfdj.s 			page 6


 100:main.c        **** 			if(receive_buffer[i] == finish_state[msg_state]) msg_state++; 
 164              		.loc 1 100 3 is_stmt 1
 165 0094 E35FA0FC 		ble	a0,zero,.L8
 166 0098 1810     		addi	a4,sp,32
 167 009a 93063004 		li	a3,67
 168              	.LBE5:
  95:main.c        **** 		//Get new characters
 169              		.loc 1 95 17 is_stmt 0
 170 009e 8145     		li	a1,0
  95:main.c        **** 		//Get new characters
 171              		.loc 1 95 10
 172 00a0 8147     		li	a5,0
 173 00a2 39A0     		j	.L10
 174              	.LVL17:
 175              	.L11:
 176              	.LBB6:
 177 00a4 93063004 		li	a3,67
 102:main.c        **** 			if(finish_state[msg_state] == '\0'){
 178              		.loc 1 102 19
 179 00a8 8145     		li	a1,0
 180              	.LVL18:
 181              	.L9:
 100:main.c        **** 			if(receive_buffer[i] == finish_state[msg_state]) msg_state++; 
 182              		.loc 1 100 38
 183 00aa 8507     		addi	a5,a5,1
 184              	.LVL19:
 100:main.c        **** 			if(receive_buffer[i] == finish_state[msg_state]) msg_state++; 
 185              		.loc 1 100 3
 186 00ac E303F5FC 		beq	a0,a5,.L8
 187              	.LVL20:
 188              	.L10:
 101:main.c        **** 			else msg_state = 0;
 189              		.loc 1 101 4 is_stmt 1
 101:main.c        **** 			else msg_state = 0;
 190              		.loc 1 101 6 is_stmt 0
 191 00b0 03460700 		lbu	a2,0(a4)
 192 00b4 0507     		addi	a4,a4,1
 193 00b6 E317D6FE 		bne	a2,a3,.L11
 101:main.c        **** 			else msg_state = 0;
 194              		.loc 1 101 53 is_stmt 1 discriminator 1
 101:main.c        **** 			else msg_state = 0;
 195              		.loc 1 101 62 is_stmt 0 discriminator 1
 196 00ba 8505     		addi	a1,a1,1
 197              	.LVL21:
 198 00bc 1414     		addi	a3,sp,544
 199 00be AE96     		add	a3,a3,a1
 200 00c0 83C686DE 		lbu	a3,-536(a3)
 103:main.c        **** 				receive_buffer[i - strlen(finish_state)] = '\0';
 201              		.loc 1 103 4 is_stmt 1 discriminator 1
 103:main.c        **** 				receive_buffer[i - strlen(finish_state)] = '\0';
 202              		.loc 1 103 6 is_stmt 0 discriminator 1
 203 00c4 FDF2     		bne	a3,zero,.L9
 104:main.c        **** 				strncpy(response_buffer, receive_buffer, 512);
 204              		.loc 1 104 5 is_stmt 1
 104:main.c        **** 				strncpy(response_buffer, receive_buffer, 512);
 205              		.loc 1 104 46 is_stmt 0
 206 00c6 1814     		addi	a4,sp,544
GAS LISTING /tmp/ccPYrfdj.s 			page 7


 207 00c8 BA97     		add	a5,a4,a5
 208              	.LVL22:
 105:main.c        **** 				return 1;
 209              		.loc 1 105 5
 210 00ca 0C10     		addi	a1,sp,32
 211              	.LVL23:
 212 00cc 2685     		mv	a0,s1
 213 00ce 13060020 		li	a2,512
 104:main.c        **** 				strncpy(response_buffer, receive_buffer, 512);
 214              		.loc 1 104 46
 215 00d2 238E07DE 		sb	zero,-516(a5)
 105:main.c        **** 				return 1;
 216              		.loc 1 105 5 is_stmt 1
 217 00d6 97000000 		call	strncpy
 217      E7800000 
 218              	.LVL24:
 106:main.c        **** 			}
 219              		.loc 1 106 5
 220              	.LBE6:
 221              	.LBE8:
 222              		.loc 1 114 1 is_stmt 0
 223 00de 8320C122 		lw	ra,556(sp)
 224              		.cfi_restore 1
 225 00e2 03248122 		lw	s0,552(sp)
 226              		.cfi_restore 8
 227              	.LVL25:
 228 00e6 83244122 		lw	s1,548(sp)
 229              		.cfi_restore 9
 230              	.LVL26:
 231              	.LBB9:
 232              	.LBB7:
 106:main.c        **** 			}
 233              		.loc 1 106 12
 234 00ea 0545     		li	a0,1
 235              	.LBE7:
 236              	.LBE9:
 237              		.loc 1 114 1
 238 00ec 13010123 		addi	sp,sp,560
 239              	.LCFI3:
 240              		.cfi_def_cfa_offset 0
 241 00f0 8280     		jr	ra
 242              		.cfi_endproc
 243              	.LFE9:
 245              		.section	.text.write_handle_raw,"ax",@progbits
 246              		.align	1
 247              		.globl	write_handle_raw
 249              	write_handle_raw:
 250              	.LFB10:
 115:main.c        **** 
 116:main.c        **** void write_handle_raw(uint16_t handle, uint8_t* byte_data, uint8_t size){
 251              		.loc 1 116 73 is_stmt 1
 252              		.cfi_startproc
 253              	.LVL27:
 254 0000 5571     		addi	sp,sp,-208
 255              	.LCFI4:
 256              		.cfi_def_cfa_offset 208
 257 0002 A2C5     		sw	s0,200(sp)
GAS LISTING /tmp/ccPYrfdj.s 			page 8


 258 0004 A6C3     		sw	s1,196(sp)
 259 0006 CAC1     		sw	s2,192(sp)
 260              		.cfi_offset 8, -8
 261              		.cfi_offset 9, -12
 262              		.cfi_offset 18, -16
 263 0008 2E84     		mv	s0,a1
 264 000a 2A89     		mv	s2,a0
 117:main.c        **** 	uint8_t string_buffer[128] = {'\0'};
 265              		.loc 1 117 2
 266              		.loc 1 117 10 is_stmt 0
 267 000c 8145     		li	a1,0
 268              	.LVL28:
 116:main.c        **** 	uint8_t string_buffer[128] = {'\0'};
 269              		.loc 1 116 73
 270 000e B284     		mv	s1,a2
 271              		.loc 1 117 10
 272 0010 8800     		addi	a0,sp,64
 273              	.LVL29:
 274 0012 13060008 		li	a2,128
 275              	.LVL30:
 116:main.c        **** 	uint8_t string_buffer[128] = {'\0'};
 276              		.loc 1 116 73
 277 0016 86C7     		sw	ra,204(sp)
 278              		.cfi_offset 1, -4
 279              		.loc 1 117 10
 280 0018 97000000 		call	memset
 280      E7800000 
 281              	.LVL31:
 118:main.c        **** 	uint8_t data_buffer[(20*2)+1] = {'\0'};
 282              		.loc 1 118 2 is_stmt 1
 119:main.c        **** 	const uint8_t lut_hex[] = "0123456789ABCDEF";
 283              		.loc 1 119 16 is_stmt 0
 284 0020 B7070000 		lui	a5,%hi(.LC1)
 285 0024 93870700 		addi	a5,a5,%lo(.LC1)
 286 0028 8C43     		lw	a1,0(a5)
 287 002a D043     		lw	a2,4(a5)
 288 002c 9447     		lw	a3,8(a5)
 289 002e D847     		lw	a4,12(a5)
 290 0030 83C70701 		lbu	a5,16(a5)
 118:main.c        **** 	uint8_t data_buffer[(20*2)+1] = {'\0'};
 291              		.loc 1 118 10
 292 0034 02CA     		sw	zero,20(sp)
 293 0036 02CC     		sw	zero,24(sp)
 294 0038 02CE     		sw	zero,28(sp)
 295 003a 02D0     		sw	zero,32(sp)
 296 003c 02D2     		sw	zero,36(sp)
 297 003e 02D4     		sw	zero,40(sp)
 298 0040 02D6     		sw	zero,44(sp)
 299 0042 02D8     		sw	zero,48(sp)
 300 0044 02DA     		sw	zero,52(sp)
 301 0046 02DC     		sw	zero,56(sp)
 302 0048 230E0102 		sb	zero,60(sp)
 303              		.loc 1 119 2 is_stmt 1
 304              		.loc 1 119 16 is_stmt 0
 305 004c 2EC0     		sw	a1,0(sp)
 306 004e 32C2     		sw	a2,4(sp)
 307 0050 36C4     		sw	a3,8(sp)
GAS LISTING /tmp/ccPYrfdj.s 			page 9


 308 0052 3AC6     		sw	a4,12(sp)
 309 0054 2308F100 		sb	a5,16(sp)
 120:main.c        **** 	for(int i = 0; i < size; i++){
 310              		.loc 1 120 2 is_stmt 1
 311              	.LBB10:
 312              		.loc 1 120 6
 313              	.LVL32:
 314              		.loc 1 120 2 is_stmt 0
 315 0058 95C8     		beq	s1,zero,.L15
 316 005a A285     		mv	a1,s0
 317 005c 13075101 		addi	a4,sp,21
 318 0060 33059400 		add	a0,s0,s1
 319              	.LVL33:
 320              	.L16:
 121:main.c        **** 		data_buffer[i*2] = lut_hex[byte_data[i] / 16];
 321              		.loc 1 121 3 is_stmt 1 discriminator 3
 322              		.loc 1 121 39 is_stmt 0 discriminator 3
 323 0064 83C70500 		lbu	a5,0(a1)
 324              		.loc 1 121 29 discriminator 3
 325 0068 9401     		addi	a3,sp,192
 326 006a 0907     		addi	a4,a4,2
 327              		.loc 1 121 43 discriminator 3
 328 006c 13D64700 		srli	a2,a5,4
 122:main.c        **** 		data_buffer[(i*2)+1] = lut_hex[byte_data[i] % 16];
 329              		.loc 1 122 47 discriminator 3
 330 0070 BD8B     		andi	a5,a5,15
 121:main.c        **** 		data_buffer[i*2] = lut_hex[byte_data[i] / 16];
 331              		.loc 1 121 29 discriminator 3
 332 0072 3696     		add	a2,a3,a2
 333              		.loc 1 122 33 discriminator 3
 334 0074 B697     		add	a5,a3,a5
 121:main.c        **** 		data_buffer[i*2] = lut_hex[byte_data[i] / 16];
 335              		.loc 1 121 20 discriminator 3
 336 0076 034606F4 		lbu	a2,-192(a2)
 337              		.loc 1 122 24 discriminator 3
 338 007a 83C707F4 		lbu	a5,-192(a5)
 339 007e 8505     		addi	a1,a1,1
 340              	.LVL34:
 121:main.c        **** 		data_buffer[i*2] = lut_hex[byte_data[i] / 16];
 341              		.loc 1 121 20 discriminator 3
 342 0080 A30EC7FE 		sb	a2,-3(a4)
 343              		.loc 1 122 3 is_stmt 1 discriminator 3
 344              		.loc 1 122 24 is_stmt 0 discriminator 3
 345 0084 230FF7FE 		sb	a5,-2(a4)
 346              	.LVL35:
 120:main.c        **** 	for(int i = 0; i < size; i++){
 347              		.loc 1 120 2 discriminator 3
 348 0088 E31EB5FC 		bne	a0,a1,.L16
 349              	.L15:
 350              	.LBE10:
 123:main.c        **** 	}
 124:main.c        **** 	data_buffer[size*2] = '\0';
 351              		.loc 1 124 2 is_stmt 1
 352              		.loc 1 124 22 is_stmt 0
 353 008c 9C01     		addi	a5,sp,192
 354 008e 8604     		slli	s1,s1,1
 125:main.c        **** 	sprintf(string_buffer, "%s%.4x,%s\r\n", commands[WRITE_HANDLE], handle, data_buffer);
GAS LISTING /tmp/ccPYrfdj.s 			page 10


 355              		.loc 1 125 2
 356 0090 37060000 		lui	a2,%hi(.LC2)
 357 0094 B7050000 		lui	a1,%hi(.LC3)
 124:main.c        **** 	sprintf(string_buffer, "%s%.4x,%s\r\n", commands[WRITE_HANDLE], handle, data_buffer);
 358              		.loc 1 124 22
 359 0098 BE94     		add	s1,a5,s1
 360              		.loc 1 125 2
 361 009a 5808     		addi	a4,sp,20
 362 009c CA86     		mv	a3,s2
 363 009e 13060600 		addi	a2,a2,%lo(.LC2)
 364 00a2 93850500 		addi	a1,a1,%lo(.LC3)
 365 00a6 8800     		addi	a0,sp,64
 124:main.c        **** 	sprintf(string_buffer, "%s%.4x,%s\r\n", commands[WRITE_HANDLE], handle, data_buffer);
 366              		.loc 1 124 22
 367 00a8 238A04F4 		sb	zero,-172(s1)
 368              		.loc 1 125 2 is_stmt 1
 369 00ac 97000000 		call	sprintf
 369      E7800000 
 370              	.LVL36:
 126:main.c        **** 	lio_send_bt(string_buffer, strlen(string_buffer));
 371              		.loc 1 126 2
 372              		.loc 1 126 29 is_stmt 0
 373 00b4 8800     		addi	a0,sp,64
 374 00b6 97000000 		call	strlen
 374      E7800000 
 375              	.LVL37:
 376              		.loc 1 126 2
 377 00be AA85     		mv	a1,a0
 378 00c0 8800     		addi	a0,sp,64
 379 00c2 97000000 		call	lio_send_bt
 379      E7800000 
 380              	.LVL38:
 127:main.c        **** }
 381              		.loc 1 127 1
 382 00ca BE40     		lw	ra,204(sp)
 383              		.cfi_restore 1
 384 00cc 2E44     		lw	s0,200(sp)
 385              		.cfi_restore 8
 386              	.LVL39:
 387 00ce 9E44     		lw	s1,196(sp)
 388              		.cfi_restore 9
 389 00d0 0E49     		lw	s2,192(sp)
 390              		.cfi_restore 18
 391 00d2 6961     		addi	sp,sp,208
 392              	.LCFI5:
 393              		.cfi_def_cfa_offset 0
 394 00d4 8280     		jr	ra
 395              		.cfi_endproc
 396              	.LFE10:
 398              		.section	.text.rcu_config,"ax",@progbits
 399              		.align	1
 400              		.globl	rcu_config
 402              	rcu_config:
 403              	.LFB11:
 128:main.c        **** 
 129:main.c        **** void rcu_config(void)
 130:main.c        **** {
GAS LISTING /tmp/ccPYrfdj.s 			page 11


 404              		.loc 1 130 1 is_stmt 1
 405              		.cfi_startproc
 131:main.c        ****     rcu_periph_clock_enable(RCU_ADC0);
 406              		.loc 1 131 5
 130:main.c        ****     rcu_periph_clock_enable(RCU_ADC0);
 407              		.loc 1 130 1 is_stmt 0
 408 0000 4111     		addi	sp,sp,-16
 409              	.LCFI6:
 410              		.cfi_def_cfa_offset 16
 411              		.loc 1 131 5
 412 0002 13059060 		li	a0,1545
 130:main.c        ****     rcu_periph_clock_enable(RCU_ADC0);
 413              		.loc 1 130 1
 414 0006 06C6     		sw	ra,12(sp)
 415              		.cfi_offset 1, -4
 416              		.loc 1 131 5
 417 0008 97000000 		call	rcu_periph_clock_enable
 417      E7800000 
 418              	.LVL40:
 132:main.c        **** 	rcu_periph_clock_enable(RCU_DMA0);
 419              		.loc 1 132 2 is_stmt 1
 420 0010 13050050 		li	a0,1280
 421 0014 97000000 		call	rcu_periph_clock_enable
 421      E7800000 
 422              	.LVL41:
 133:main.c        **** 	rcu_periph_clock_enable(RCU_TIMER1);
 423              		.loc 1 133 2
 424 001c 13050070 		li	a0,1792
 425 0020 97000000 		call	rcu_periph_clock_enable
 425      E7800000 
 426              	.LVL42:
 134:main.c        **** 	rcu_periph_clock_enable(RCU_GPIOA);
 427              		.loc 1 134 2
 135:main.c        **** }
 428              		.loc 1 135 1 is_stmt 0
 429 0028 B240     		lw	ra,12(sp)
 430              		.cfi_restore 1
 134:main.c        **** 	rcu_periph_clock_enable(RCU_GPIOA);
 431              		.loc 1 134 2
 432 002a 13052060 		li	a0,1538
 433              		.loc 1 135 1
 434 002e 4101     		addi	sp,sp,16
 435              	.LCFI7:
 436              		.cfi_def_cfa_offset 0
 134:main.c        **** 	rcu_periph_clock_enable(RCU_GPIOA);
 437              		.loc 1 134 2
 438 0030 17030000 		tail	rcu_periph_clock_enable
 438      67000300 
 439              	.LVL43:
 440              		.cfi_endproc
 441              	.LFE11:
 443              		.section	.text.timer_config,"ax",@progbits
 444              		.align	1
 445              		.globl	timer_config
 447              	timer_config:
 448              	.LFB12:
 136:main.c        **** 
GAS LISTING /tmp/ccPYrfdj.s 			page 12


 137:main.c        **** //Setup timer 1 to trigger adc to measure every 1 ms
 138:main.c        **** int timer_config(uint32_t sample_rate)
 139:main.c        **** {
 449              		.loc 1 139 1 is_stmt 1
 450              		.cfi_startproc
 451              	.LVL44:
 140:main.c        **** 	// Max 2000hz 108
 141:main.c        ****     timer_oc_parameter_struct timer_ocintpara;
 452              		.loc 1 141 5
 142:main.c        ****     timer_parameter_struct timer_initpara;
 453              		.loc 1 142 5
 143:main.c        **** 
 144:main.c        ****     /* deinit a timer */
 145:main.c        ****     timer_deinit(TIMER1);
 454              		.loc 1 145 5
 139:main.c        **** 	// Max 2000hz 108
 455              		.loc 1 139 1 is_stmt 0
 456 0000 7971     		addi	sp,sp,-48
 457              	.LCFI8:
 458              		.cfi_def_cfa_offset 48
 459 0002 22D4     		sw	s0,40(sp)
 460              		.cfi_offset 8, -8
 461 0004 2A84     		mv	s0,a0
 462              		.loc 1 145 5
 463 0006 37050040 		li	a0,1073741824
 464              	.LVL45:
 139:main.c        **** 	// Max 2000hz 108
 465              		.loc 1 139 1
 466 000a 06D6     		sw	ra,44(sp)
 467              		.cfi_offset 1, -4
 468              		.loc 1 145 5
 469 000c 97000000 		call	timer_deinit
 469      E7800000 
 470              	.LVL46:
 146:main.c        ****     /* initialize TIMER init parameter struct */
 147:main.c        ****     timer_struct_para_init(&timer_initpara);
 471              		.loc 1 147 5 is_stmt 1
 472 0014 0808     		addi	a0,sp,16
 473 0016 97000000 		call	timer_struct_para_init
 473      E7800000 
 474              	.LVL47:
 148:main.c        ****     /* TIMER1 configuration */
 149:main.c        ****     timer_initpara.prescaler         = 5399; //  108 000 000
 475              		.loc 1 149 5
 150:main.c        ****     timer_initpara.alignedmode       = TIMER_COUNTER_EDGE;
 476              		.loc 1 150 5
 151:main.c        ****     timer_initpara.counterdirection  = TIMER_COUNTER_UP;
 477              		.loc 1 151 5
 149:main.c        ****     timer_initpara.alignedmode       = TIMER_COUNTER_EDGE;
 478              		.loc 1 149 38 is_stmt 0
 479 001e 8567     		li	a5,4096
 152:main.c        ****     timer_initpara.period            = sample_rate;
 153:main.c        ****     timer_initpara.clockdivision     = TIMER_CKDIV_DIV1;
 154:main.c        ****     timer_initpara.repetitioncounter = 0;
 155:main.c        ****     timer_init(TIMER1,&timer_initpara);
 480              		.loc 1 155 5
 481 0020 0C08     		addi	a1,sp,16
GAS LISTING /tmp/ccPYrfdj.s 			page 13


 149:main.c        ****     timer_initpara.alignedmode       = TIMER_COUNTER_EDGE;
 482              		.loc 1 149 38
 483 0022 93877751 		addi	a5,a5,1303
 484              		.loc 1 155 5
 485 0026 37050040 		li	a0,1073741824
 149:main.c        ****     timer_initpara.alignedmode       = TIMER_COUNTER_EDGE;
 486              		.loc 1 149 38
 487 002a 3EC8     		sw	a5,16(sp)
 152:main.c        ****     timer_initpara.period            = sample_rate;
 488              		.loc 1 152 38
 489 002c 22CC     		sw	s0,24(sp)
 151:main.c        ****     timer_initpara.period            = sample_rate;
 490              		.loc 1 151 38
 491 002e 231A0100 		sh	zero,20(sp)
 152:main.c        ****     timer_initpara.period            = sample_rate;
 492              		.loc 1 152 5 is_stmt 1
 153:main.c        ****     timer_initpara.repetitioncounter = 0;
 493              		.loc 1 153 5
 153:main.c        ****     timer_initpara.repetitioncounter = 0;
 494              		.loc 1 153 38 is_stmt 0
 495 0032 231E0100 		sh	zero,28(sp)
 154:main.c        ****     timer_init(TIMER1,&timer_initpara);
 496              		.loc 1 154 5 is_stmt 1
 154:main.c        ****     timer_init(TIMER1,&timer_initpara);
 497              		.loc 1 154 38 is_stmt 0
 498 0036 230F0100 		sb	zero,30(sp)
 499              		.loc 1 155 5 is_stmt 1
 500 003a 97000000 		call	timer_init
 500      E7800000 
 501              	.LVL48:
 156:main.c        **** 
 157:main.c        ****     /* CH0 configuration in PWM mode1 */
 158:main.c        ****     timer_channel_output_struct_para_init(&timer_ocintpara);
 502              		.loc 1 158 5
 503 0042 4800     		addi	a0,sp,4
 504 0044 97000000 		call	timer_channel_output_struct_para_init
 504      E7800000 
 505              	.LVL49:
 159:main.c        ****     timer_ocintpara.ocpolarity  = TIMER_OC_POLARITY_HIGH;
 506              		.loc 1 159 5
 160:main.c        ****     timer_ocintpara.outputstate = TIMER_CCX_ENABLE;
 507              		.loc 1 160 33 is_stmt 0
 508 004c 8547     		li	a5,1
 161:main.c        ****     timer_channel_output_config(TIMER1, TIMER_CH_1, &timer_ocintpara);
 509              		.loc 1 161 5
 510 004e 5000     		addi	a2,sp,4
 511 0050 8545     		li	a1,1
 512 0052 37050040 		li	a0,1073741824
 160:main.c        ****     timer_ocintpara.outputstate = TIMER_CCX_ENABLE;
 513              		.loc 1 160 33
 514 0056 2312F100 		sh	a5,4(sp)
 159:main.c        ****     timer_ocintpara.ocpolarity  = TIMER_OC_POLARITY_HIGH;
 515              		.loc 1 159 33
 516 005a 23140100 		sh	zero,8(sp)
 160:main.c        ****     timer_ocintpara.outputstate = TIMER_CCX_ENABLE;
 517              		.loc 1 160 5 is_stmt 1
 518              		.loc 1 161 5
GAS LISTING /tmp/ccPYrfdj.s 			page 14


 519 005e 97000000 		call	timer_channel_output_config
 519      E7800000 
 520              	.LVL50:
 162:main.c        **** 
 163:main.c        ****     timer_channel_output_pulse_value_config(TIMER1, TIMER_CH_1, 1);
 521              		.loc 1 163 5
 522 0066 0546     		li	a2,1
 523 0068 8545     		li	a1,1
 524 006a 37050040 		li	a0,1073741824
 525 006e 97000000 		call	timer_channel_output_pulse_value_config
 525      E7800000 
 526              	.LVL51:
 164:main.c        ****     timer_channel_output_mode_config(TIMER1, TIMER_CH_1, TIMER_OC_MODE_PWM1);
 527              		.loc 1 164 5
 528 0076 13060007 		li	a2,112
 529 007a 8545     		li	a1,1
 530 007c 37050040 		li	a0,1073741824
 531 0080 97000000 		call	timer_channel_output_mode_config
 531      E7800000 
 532              	.LVL52:
 165:main.c        ****     timer_channel_output_shadow_config(TIMER1, TIMER_CH_1, TIMER_OC_SHADOW_DISABLE);
 533              		.loc 1 165 5
 534 0088 0146     		li	a2,0
 535 008a 8545     		li	a1,1
 536 008c 37050040 		li	a0,1073741824
 537 0090 97000000 		call	timer_channel_output_shadow_config
 537      E7800000 
 538              	.LVL53:
 166:main.c        **** 
 167:main.c        **** 	timer_auto_reload_shadow_enable(TIMER1);
 539              		.loc 1 167 2
 540 0098 37050040 		li	a0,1073741824
 541 009c 97000000 		call	timer_auto_reload_shadow_enable
 541      E7800000 
 542              	.LVL54:
 168:main.c        **** }
 543              		.loc 1 168 1 is_stmt 0
 544 00a4 B250     		lw	ra,44(sp)
 545              		.cfi_restore 1
 546 00a6 2254     		lw	s0,40(sp)
 547              		.cfi_restore 8
 548              	.LVL55:
 549 00a8 4561     		addi	sp,sp,48
 550              	.LCFI9:
 551              		.cfi_def_cfa_offset 0
 552 00aa 8280     		jr	ra
 553              		.cfi_endproc
 554              	.LFE12:
 556              		.section	.text.adc_config,"ax",@progbits
 557              		.align	1
 558              		.globl	adc_config
 560              	adc_config:
 561              	.LFB13:
 169:main.c        **** 
 170:main.c        **** void adc_config(void)
 171:main.c        **** {
 562              		.loc 1 171 1 is_stmt 1
GAS LISTING /tmp/ccPYrfdj.s 			page 15


 563              		.cfi_startproc
 172:main.c        **** 	gpio_init(GPIOA, GPIO_MODE_AIN, GPIO_OSPEED_50MHZ, GPIO_PIN_0);
 564              		.loc 1 172 2
 565 0000 37150140 		li	a0,1073811456
 171:main.c        **** 	gpio_init(GPIOA, GPIO_MODE_AIN, GPIO_OSPEED_50MHZ, GPIO_PIN_0);
 566              		.loc 1 171 1 is_stmt 0
 567 0004 4111     		addi	sp,sp,-16
 568              	.LCFI10:
 569              		.cfi_def_cfa_offset 16
 570              		.loc 1 172 2
 571 0006 8546     		li	a3,1
 572 0008 0D46     		li	a2,3
 573 000a 8145     		li	a1,0
 574 000c 13050580 		addi	a0,a0,-2048
 171:main.c        **** 	gpio_init(GPIOA, GPIO_MODE_AIN, GPIO_OSPEED_50MHZ, GPIO_PIN_0);
 575              		.loc 1 171 1
 576 0010 06C6     		sw	ra,12(sp)
 577 0012 22C4     		sw	s0,8(sp)
 578              		.cfi_offset 1, -4
 579              		.cfi_offset 8, -8
 173:main.c        ****     /* reset ADC */
 174:main.c        ****     adc_deinit(ADC0);
 580              		.loc 1 174 5
 581 0014 37240140 		li	s0,1073815552
 172:main.c        ****     /* reset ADC */
 582              		.loc 1 172 2
 583 0018 97000000 		call	gpio_init
 583      E7800000 
 584              	.LVL56:
 585              		.loc 1 174 5 is_stmt 1
 586 0020 13050440 		addi	a0,s0,1024
 587 0024 97000000 		call	adc_deinit
 587      E7800000 
 588              	.LVL57:
 175:main.c        ****     /* ADC mode config */
 176:main.c        ****     adc_mode_config(ADC_MODE_FREE);
 589              		.loc 1 176 5
 590 002c 0145     		li	a0,0
 591 002e 97000000 		call	adc_mode_config
 591      E7800000 
 592              	.LVL58:
 177:main.c        ****     /* ADC continous function enable */
 178:main.c        ****     adc_special_function_config(ADC0, ADC_SCAN_MODE, ENABLE);
 593              		.loc 1 178 5
 594 0036 0546     		li	a2,1
 595 0038 13050440 		addi	a0,s0,1024
 596 003c 93050010 		li	a1,256
 597 0040 97000000 		call	adc_special_function_config
 597      E7800000 
 598              	.LVL59:
 179:main.c        ****     /* ADC data alignment config */
 180:main.c        ****     adc_data_alignment_config(ADC0, ADC_DATAALIGN_RIGHT);
 599              		.loc 1 180 5
 600 0048 13050440 		addi	a0,s0,1024
 601 004c 8145     		li	a1,0
 602 004e 97000000 		call	adc_data_alignment_config
 602      E7800000 
GAS LISTING /tmp/ccPYrfdj.s 			page 16


 603              	.LVL60:
 181:main.c        ****     /* ADC channel length config */
 182:main.c        ****     adc_channel_length_config(ADC0, ADC_REGULAR_CHANNEL, 1);
 604              		.loc 1 182 5
 605 0056 13050440 		addi	a0,s0,1024
 606 005a 0546     		li	a2,1
 607 005c 8545     		li	a1,1
 608 005e 97000000 		call	adc_channel_length_config
 608      E7800000 
 609              	.LVL61:
 183:main.c        ****  
 184:main.c        ****     /* ADC inserted channel config */
 185:main.c        ****     adc_regular_channel_config(ADC0, 0, ADC_CHANNEL_0, ADC_SAMPLETIME_55POINT5);
 610              		.loc 1 185 5
 611 0066 9546     		li	a3,5
 612 0068 13050440 		addi	a0,s0,1024
 613 006c 0146     		li	a2,0
 614 006e 8145     		li	a1,0
 615 0070 97000000 		call	adc_regular_channel_config
 615      E7800000 
 616              	.LVL62:
 186:main.c        ****    
 187:main.c        ****     /* ADC trigger config */
 188:main.c        ****     adc_external_trigger_source_config(ADC0, ADC_REGULAR_CHANNEL, ADC0_1_EXTTRIG_REGULAR_T1_CH1); 
 617              		.loc 1 188 5
 618 0078 13050440 		addi	a0,s0,1024
 619 007c 37060600 		li	a2,393216
 620 0080 8545     		li	a1,1
 621 0082 97000000 		call	adc_external_trigger_source_config
 621      E7800000 
 622              	.LVL63:
 189:main.c        ****     
 190:main.c        ****     /* ADC external trigger enable */
 191:main.c        ****     adc_external_trigger_config(ADC0, ADC_REGULAR_CHANNEL, ENABLE);
 623              		.loc 1 191 5
 624 008a 0546     		li	a2,1
 625 008c 8545     		li	a1,1
 626 008e 13050440 		addi	a0,s0,1024
 627 0092 97000000 		call	adc_external_trigger_config
 627      E7800000 
 628              	.LVL64:
 192:main.c        ****     /* clear the ADC flag 
 193:main.c        ****     adc_interrupt_flag_clear(ADC1, ADC_INT_FLAG_EOC);
 194:main.c        ****     adc_interrupt_flag_clear(ADC1, ADC_INT_FLAG_EOIC);*/
 195:main.c        ****     /* enable ADC interrupt 
 196:main.c        ****     adc_interrupt_enable(ADC1, ADC_INT_EOIC); */
 197:main.c        **** 
 198:main.c        **** 	adc_dma_mode_enable(ADC0);
 629              		.loc 1 198 2
 630 009a 13050440 		addi	a0,s0,1024
 631 009e 97000000 		call	adc_dma_mode_enable
 631      E7800000 
 632              	.LVL65:
 199:main.c        **** 
 200:main.c        ****     /* enable ADC interface */
 201:main.c        ****     adc_enable(ADC0);
 633              		.loc 1 201 5
GAS LISTING /tmp/ccPYrfdj.s 			page 17


 634 00a6 13050440 		addi	a0,s0,1024
 635 00aa 97000000 		call	adc_enable
 635      E7800000 
 636              	.LVL66:
 202:main.c        ****     delay_1ms(1);
 637              		.loc 1 202 5
 638 00b2 0545     		li	a0,1
 639 00b4 97000000 		call	delay_1ms
 639      E7800000 
 640              	.LVL67:
 203:main.c        ****     /* ADC calibration and reset calibration */
 204:main.c        ****     adc_calibration_enable(ADC0);
 641              		.loc 1 204 5
 642 00bc 13050440 		addi	a0,s0,1024
 205:main.c        **** }
 643              		.loc 1 205 1 is_stmt 0
 644 00c0 2244     		lw	s0,8(sp)
 645              		.cfi_restore 8
 646 00c2 B240     		lw	ra,12(sp)
 647              		.cfi_restore 1
 648 00c4 4101     		addi	sp,sp,16
 649              	.LCFI11:
 650              		.cfi_def_cfa_offset 0
 204:main.c        **** }
 651              		.loc 1 204 5
 652 00c6 17030000 		tail	adc_calibration_enable
 652      67000300 
 653              	.LVL68:
 654              		.cfi_endproc
 655              	.LFE13:
 657              		.section	.text.dma_config,"ax",@progbits
 658              		.align	1
 659              		.globl	dma_config
 661              	dma_config:
 662              	.LFB14:
 206:main.c        **** 
 207:main.c        **** uint16_t *pSample_buffer;
 208:main.c        **** uint32_t sample_buffer_size;
 209:main.c        **** 
 210:main.c        **** void dma_config(uint16_t *pBuffer, uint32_t samples)
 211:main.c        **** {
 663              		.loc 1 211 1 is_stmt 1
 664              		.cfi_startproc
 665              	.LVL69:
 212:main.c        **** 	pSample_buffer = pBuffer;
 666              		.loc 1 212 2
 211:main.c        **** 	pSample_buffer = pBuffer;
 667              		.loc 1 211 1 is_stmt 0
 668 0000 7971     		addi	sp,sp,-48
 669              	.LCFI12:
 670              		.cfi_def_cfa_offset 48
 671 0002 26D2     		sw	s1,36(sp)
 672              		.loc 1 212 17
 673 0004 B7070000 		lui	a5,%hi(pSample_buffer)
 674              		.cfi_offset 9, -12
 211:main.c        **** 	pSample_buffer = pBuffer;
 675              		.loc 1 211 1
GAS LISTING /tmp/ccPYrfdj.s 			page 18


 676 0008 AA84     		mv	s1,a0
 677              		.loc 1 212 17
 678 000a 23A09700 		sw	s1,%lo(pSample_buffer)(a5)
 213:main.c        **** 	sample_buffer_size = samples;
 679              		.loc 1 213 2 is_stmt 1
 214:main.c        ****     /* ADC_DMA_channel configuration */
 215:main.c        ****     dma_parameter_struct dma_data_parameter;
 216:main.c        ****     rcu_periph_clock_enable(RCU_DMA0); 
 680              		.loc 1 216 5 is_stmt 0
 681 000e 13050050 		li	a0,1280
 682              	.LVL70:
 213:main.c        **** 	sample_buffer_size = samples;
 683              		.loc 1 213 21
 684 0012 B7070000 		lui	a5,%hi(sample_buffer_size)
 211:main.c        **** 	pSample_buffer = pBuffer;
 685              		.loc 1 211 1
 686 0016 06D6     		sw	ra,44(sp)
 687 0018 22D4     		sw	s0,40(sp)
 688              		.cfi_offset 1, -4
 689              		.cfi_offset 8, -8
 213:main.c        **** 	sample_buffer_size = samples;
 690              		.loc 1 213 21
 691 001a 23A0B700 		sw	a1,%lo(sample_buffer_size)(a5)
 215:main.c        ****     rcu_periph_clock_enable(RCU_DMA0); 
 692              		.loc 1 215 5 is_stmt 1
 693              		.loc 1 216 5
 211:main.c        **** 	pSample_buffer = pBuffer;
 694              		.loc 1 211 1 is_stmt 0
 695 001e 2E84     		mv	s0,a1
 696              		.loc 1 216 5
 697 0020 97000000 		call	rcu_periph_clock_enable
 697      E7800000 
 698              	.LVL71:
 217:main.c        ****     /* ADC DMA_channel configuration */
 218:main.c        ****     dma_deinit(DMA0, DMA_CH0);
 699              		.loc 1 218 5 is_stmt 1
 700 0028 8145     		li	a1,0
 701 002a 37050240 		li	a0,1073872896
 702 002e 97000000 		call	dma_deinit
 702      E7800000 
 703              	.LVL72:
 219:main.c        ****     
 220:main.c        ****     /* initialize DMA data mode */
 221:main.c        ****     dma_data_parameter.periph_addr  = (uint32_t)(&ADC_RDATA(ADC0));
 704              		.loc 1 221 5
 705              		.loc 1 221 37 is_stmt 0
 706 0036 B7270140 		li	a5,1073815552
 707 003a 9387C744 		addi	a5,a5,1100
 708 003e 3EC2     		sw	a5,4(sp)
 222:main.c        ****     dma_data_parameter.periph_inc   = DMA_PERIPH_INCREASE_DISABLE;
 709              		.loc 1 222 5 is_stmt 1
 223:main.c        ****     dma_data_parameter.memory_addr  = (uint32_t)(pBuffer);
 710              		.loc 1 223 5
 224:main.c        ****     dma_data_parameter.memory_inc   = DMA_MEMORY_INCREASE_ENABLE;
 225:main.c        ****     dma_data_parameter.periph_width = DMA_PERIPHERAL_WIDTH_16BIT;
 226:main.c        ****     dma_data_parameter.memory_width = DMA_MEMORY_WIDTH_16BIT;  
 711              		.loc 1 226 37 is_stmt 0
GAS LISTING /tmp/ccPYrfdj.s 			page 19


 712 0040 93070040 		li	a5,1024
 225:main.c        ****     dma_data_parameter.memory_width = DMA_MEMORY_WIDTH_16BIT;  
 713              		.loc 1 225 37
 714 0044 13070010 		li	a4,256
 227:main.c        ****     dma_data_parameter.direction    = DMA_PERIPHERAL_TO_MEMORY;
 228:main.c        ****     dma_data_parameter.number       = samples;
 229:main.c        ****     dma_data_parameter.priority     = DMA_PRIORITY_HIGH;
 230:main.c        ****     dma_init(DMA0, DMA_CH0, &dma_data_parameter);
 715              		.loc 1 230 5
 716 0048 5000     		addi	a2,sp,4
 226:main.c        ****     dma_data_parameter.direction    = DMA_PERIPHERAL_TO_MEMORY;
 717              		.loc 1 226 37
 718 004a 3EC8     		sw	a5,16(sp)
 719              		.loc 1 230 5
 720 004c 8145     		li	a1,0
 229:main.c        ****     dma_init(DMA0, DMA_CH0, &dma_data_parameter);
 721              		.loc 1 229 37
 722 004e 8967     		li	a5,8192
 723              		.loc 1 230 5
 724 0050 37050240 		li	a0,1073872896
 225:main.c        ****     dma_data_parameter.memory_width = DMA_MEMORY_WIDTH_16BIT;  
 725              		.loc 1 225 37
 726 0054 3AC4     		sw	a4,8(sp)
 229:main.c        ****     dma_init(DMA0, DMA_CH0, &dma_data_parameter);
 727              		.loc 1 229 37
 728 0056 3ECC     		sw	a5,24(sp)
 222:main.c        ****     dma_data_parameter.memory_addr  = (uint32_t)(pBuffer);
 729              		.loc 1 222 37
 730 0058 231EE100 		sh	a4,28(sp)
 223:main.c        ****     dma_data_parameter.memory_inc   = DMA_MEMORY_INCREASE_ENABLE;
 731              		.loc 1 223 37
 732 005c 26C6     		sw	s1,12(sp)
 224:main.c        ****     dma_data_parameter.periph_width = DMA_PERIPHERAL_WIDTH_16BIT;
 733              		.loc 1 224 5 is_stmt 1
 225:main.c        ****     dma_data_parameter.memory_width = DMA_MEMORY_WIDTH_16BIT;  
 734              		.loc 1 225 5
 226:main.c        ****     dma_data_parameter.direction    = DMA_PERIPHERAL_TO_MEMORY;
 735              		.loc 1 226 5
 227:main.c        ****     dma_data_parameter.number       = samples;
 736              		.loc 1 227 5
 228:main.c        ****     dma_data_parameter.priority     = DMA_PRIORITY_HIGH;
 737              		.loc 1 228 5
 228:main.c        ****     dma_data_parameter.priority     = DMA_PRIORITY_HIGH;
 738              		.loc 1 228 37 is_stmt 0
 739 005e 22CA     		sw	s0,20(sp)
 229:main.c        ****     dma_init(DMA0, DMA_CH0, &dma_data_parameter);
 740              		.loc 1 229 5 is_stmt 1
 227:main.c        ****     dma_data_parameter.number       = samples;
 741              		.loc 1 227 37 is_stmt 0
 742 0060 230F0100 		sb	zero,30(sp)
 743              		.loc 1 230 5 is_stmt 1
 744 0064 97000000 		call	dma_init
 744      E7800000 
 745              	.LVL73:
 231:main.c        **** 
 232:main.c        **** 	dma_interrupt_enable(DMA0, DMA_CH0, DMA_INT_FTF);
 746              		.loc 1 232 2
GAS LISTING /tmp/ccPYrfdj.s 			page 20


 747 006c 0946     		li	a2,2
 748 006e 8145     		li	a1,0
 749 0070 37050240 		li	a0,1073872896
 750 0074 97000000 		call	dma_interrupt_enable
 750      E7800000 
 751              	.LVL74:
 233:main.c        **** 	dma_interrupt_enable(DMA0, DMA_CH0, DMA_INT_HTF);
 752              		.loc 1 233 2
 753 007c 1146     		li	a2,4
 754 007e 8145     		li	a1,0
 755 0080 37050240 		li	a0,1073872896
 756 0084 97000000 		call	dma_interrupt_enable
 756      E7800000 
 757              	.LVL75:
 234:main.c        **** 
 235:main.c        ****     dma_circulation_enable(DMA0, DMA_CH0);
 758              		.loc 1 235 5
 759 008c 8145     		li	a1,0
 760 008e 37050240 		li	a0,1073872896
 761 0092 97000000 		call	dma_circulation_enable
 761      E7800000 
 762              	.LVL76:
 236:main.c        ****   
 237:main.c        ****     /* enable DMA channel */
 238:main.c        ****     dma_channel_enable(DMA0, DMA_CH0);
 763              		.loc 1 238 5
 764 009a 8145     		li	a1,0
 765 009c 37050240 		li	a0,1073872896
 766 00a0 97000000 		call	dma_channel_enable
 766      E7800000 
 767              	.LVL77:
 239:main.c        **** }
 768              		.loc 1 239 1 is_stmt 0
 769 00a8 B250     		lw	ra,44(sp)
 770              		.cfi_restore 1
 771 00aa 2254     		lw	s0,40(sp)
 772              		.cfi_restore 8
 773              	.LVL78:
 774 00ac 9254     		lw	s1,36(sp)
 775              		.cfi_restore 9
 776              	.LVL79:
 777 00ae 4561     		addi	sp,sp,48
 778              	.LCFI13:
 779              		.cfi_def_cfa_offset 0
 780 00b0 8280     		jr	ra
 781              		.cfi_endproc
 782              	.LFE14:
 784              		.section	.text.config_clic_irqs,"ax",@progbits
 785              		.align	1
 786              		.globl	config_clic_irqs
 788              	config_clic_irqs:
 789              	.LFB15:
 240:main.c        **** 
 241:main.c        **** void config_clic_irqs (void)
 242:main.c        **** {
 790              		.loc 1 242 1 is_stmt 1
 791              		.cfi_startproc
GAS LISTING /tmp/ccPYrfdj.s 			page 21


 243:main.c        ****     eclic_global_interrupt_enable();
 792              		.loc 1 243 5
 242:main.c        ****     eclic_global_interrupt_enable();
 793              		.loc 1 242 1 is_stmt 0
 794 0000 4111     		addi	sp,sp,-16
 795              	.LCFI14:
 796              		.cfi_def_cfa_offset 16
 797 0002 06C6     		sw	ra,12(sp)
 798              		.cfi_offset 1, -4
 799              		.loc 1 243 5
 800 0004 97000000 		call	eclic_global_interrupt_enable
 800      E7800000 
 801              	.LVL80:
 244:main.c        ****     eclic_priority_group_set(ECLIC_PRIGROUP_LEVEL3_PRIO1);
 802              		.loc 1 244 5 is_stmt 1
 803 000c 0D45     		li	a0,3
 804 000e 97000000 		call	eclic_priority_group_set
 804      E7800000 
 805              	.LVL81:
 245:main.c        ****     eclic_irq_enable(DMA0_Channel0_IRQn, 1, 1);
 806              		.loc 1 245 5
 246:main.c        **** 
 247:main.c        **** }
 807              		.loc 1 247 1 is_stmt 0
 808 0016 B240     		lw	ra,12(sp)
 809              		.cfi_restore 1
 245:main.c        ****     eclic_irq_enable(DMA0_Channel0_IRQn, 1, 1);
 810              		.loc 1 245 5
 811 0018 0546     		li	a2,1
 812              		.loc 1 247 1
 245:main.c        ****     eclic_irq_enable(DMA0_Channel0_IRQn, 1, 1);
 813              		.loc 1 245 5
 814 001a 8545     		li	a1,1
 815 001c 7945     		li	a0,30
 816              		.loc 1 247 1
 817 001e 4101     		addi	sp,sp,16
 818              	.LCFI15:
 819              		.cfi_def_cfa_offset 0
 245:main.c        ****     eclic_irq_enable(DMA0_Channel0_IRQn, 1, 1);
 820              		.loc 1 245 5
 821 0020 17030000 		tail	eclic_irq_enable
 821      67000300 
 822              	.LVL82:
 823              		.cfi_endproc
 824              	.LFE15:
 826              		.section	.text.startup.main,"ax",@progbits
 827              		.align	1
 828              		.globl	main
 830              	main:
 831              	.LFB16:
 248:main.c        **** 
 249:main.c        **** int main(){
 832              		.loc 1 249 11 is_stmt 1
 833              		.cfi_startproc
 250:main.c        **** 
 251:main.c        **** 	//Start of program
 252:main.c        **** 
GAS LISTING /tmp/ccPYrfdj.s 			page 22


 253:main.c        **** 	
 254:main.c        **** 	
 255:main.c        **** 	uint8_t enter_data_mode[] = "$$$";
 834              		.loc 1 255 2
 249:main.c        **** 
 835              		.loc 1 249 11 is_stmt 0
 836 0000 0111     		addi	sp,sp,-32
 837              	.LCFI16:
 838              		.cfi_def_cfa_offset 32
 839 0002 7973     		li	t1,-8192
 840 0004 1303030C 		addi	t1,t1,192
 841 0008 26CA     		sw	s1,20(sp)
 842              		.cfi_offset 9, -12
 256:main.c        **** 
 257:main.c        **** 	uint16_t sample_data[4000] = {0xaa};
 843              		.loc 1 257 11
 844 000a 8964     		li	s1,8192
 249:main.c        **** 
 845              		.loc 1 249 11
 846 000c 06CE     		sw	ra,28(sp)
 847 000e 22CC     		sw	s0,24(sp)
 848 0010 4AC8     		sw	s2,16(sp)
 849              		.loc 1 257 11
 850 0012 938404F4 		addi	s1,s1,-192
 249:main.c        **** 
 851              		.loc 1 249 11
 852 0016 1A91     		add	sp,sp,t1
 853              	.LCFI17:
 854              		.cfi_def_cfa_offset 8032
 855              		.cfi_offset 1, -4
 856              		.cfi_offset 8, -8
 857              		.cfi_offset 18, -16
 255:main.c        **** 
 858              		.loc 1 255 10
 859 0018 B7272400 		li	a5,2367488
 860              		.loc 1 257 11
 861 001c 2686     		mv	a2,s1
 862 001e 8145     		li	a1,0
 255:main.c        **** 
 863              		.loc 1 255 10
 864 0020 93874742 		addi	a5,a5,1060
 865              		.loc 1 257 11
 866 0024 0808     		addi	a0,sp,16
 255:main.c        **** 
 867              		.loc 1 255 10
 868 0026 3EC6     		sw	a5,12(sp)
 869              		.loc 1 257 2 is_stmt 1
 870              		.loc 1 257 11 is_stmt 0
 871 0028 97000000 		call	memset
 871      E7800000 
 872              	.LVL83:
 873 0030 9307A00A 		li	a5,170
 874 0034 2318F100 		sh	a5,16(sp)
 258:main.c        **** 	rcu_config();
 875              		.loc 1 258 2 is_stmt 1
 876 0038 97000000 		call	rcu_config
 876      E7800000 
GAS LISTING /tmp/ccPYrfdj.s 			page 23


 877              	.LVL84:
 259:main.c        **** 	timer_config(20);
 878              		.loc 1 259 2
 879 0040 5145     		li	a0,20
 880 0042 97000000 		call	timer_config
 880      E7800000 
 881              	.LVL85:
 260:main.c        **** 	adc_config();
 882              		.loc 1 260 2
 883 004a 97000000 		call	adc_config
 883      E7800000 
 884              	.LVL86:
 261:main.c        **** 
 262:main.c        **** 	//Set samples to 20, which since we are using double buffers it will generate an interrupt every t
 263:main.c        **** 	dma_config(sample_data, 20);
 885              		.loc 1 263 2
 886 0052 0969     		li	s2,8192
 887 0054 930709F5 		addi	a5,s2,-176
 888 0058 8A97     		add	a5,a5,sp
 889 005a D145     		li	a1,20
 890 005c 33859740 		sub	a0,a5,s1
 891 0060 97000000 		call	dma_config
 891      E7800000 
 892              	.LVL87:
 264:main.c        **** 	
 265:main.c        **** 
 266:main.c        **** 	lio_init_bt();
 893              		.loc 1 266 2
 894 0068 97000000 		call	lio_init_bt
 894      E7800000 
 895              	.LVL88:
 267:main.c        **** 	config_clic_irqs();
 896              		.loc 1 267 2
 897 0070 97000000 		call	config_clic_irqs
 897      E7800000 
 898              	.LVL89:
 268:main.c        **** 	delay_1ms(1000);
 899              		.loc 1 268 2
 900 0078 1305803E 		li	a0,1000
 901 007c 97000000 		call	delay_1ms
 901      E7800000 
 902              	.LVL90:
 269:main.c        **** 	lio_send_bt(enter_data_mode, strlen(enter_data_mode));
 903              		.loc 1 269 2
 255:main.c        **** 
 904              		.loc 1 255 10 is_stmt 0
 905 0084 7974     		li	s0,-8192
 906              		.loc 1 269 31
 907 0086 930709F5 		addi	a5,s2,-176
 908 008a 8A97     		add	a5,a5,sp
 909 008c 1304C40B 		addi	s0,s0,188
 910 0090 3E94     		add	s0,a5,s0
 911 0092 2285     		mv	a0,s0
 912 0094 97000000 		call	strlen
 912      E7800000 
 913              	.LVL91:
 914              		.loc 1 269 2
GAS LISTING /tmp/ccPYrfdj.s 			page 24


 915 009c AA85     		mv	a1,a0
 916 009e 2285     		mv	a0,s0
 917 00a0 97000000 		call	lio_send_bt
 917      E7800000 
 918              	.LVL92:
 270:main.c        **** 	delay_1ms(50);
 919              		.loc 1 270 2 is_stmt 1
 920 00a8 13052003 		li	a0,50
 921 00ac 97000000 		call	delay_1ms
 921      E7800000 
 922              	.LVL93:
 271:main.c        **** 	timer_enable(TIMER1);
 923              		.loc 1 271 2
 924 00b4 37050040 		li	a0,1073741824
 925 00b8 97000000 		call	timer_enable
 925      E7800000 
 926              	.LVL94:
 927              	.L33:
 272:main.c        **** 
 273:main.c        **** 	while(1){
 928              		.loc 1 273 2 discriminator 1
 274:main.c        **** 		//This program does nothing in the main loop currently. So it would be entirely possible to add s
 275:main.c        **** 		__WFI();
 929              		.loc 1 275 3 discriminator 1
 930              	.LBB11:
 931              	.LBB12:
 932              		.file 2 "../../firmware/RISCV/drivers/n200_func.h"
   1:../../firmware/RISCV/drivers/n200_func.h **** /* See LICENSE file for licence details */
   2:../../firmware/RISCV/drivers/n200_func.h **** 
   3:../../firmware/RISCV/drivers/n200_func.h **** #ifndef N200_FUNC_H
   4:../../firmware/RISCV/drivers/n200_func.h **** #define N200_FUNC_H
   5:../../firmware/RISCV/drivers/n200_func.h **** 
   6:../../firmware/RISCV/drivers/n200_func.h **** 
   7:../../firmware/RISCV/drivers/n200_func.h **** #include <stddef.h>
   8:../../firmware/RISCV/drivers/n200_func.h **** #include "n200_timer.h"
   9:../../firmware/RISCV/drivers/n200_func.h **** #include "n200_eclic.h"
  10:../../firmware/RISCV/drivers/n200_func.h **** 
  11:../../firmware/RISCV/drivers/n200_func.h **** #define	ECLIC_GROUP_LEVEL0_PRIO4        0
  12:../../firmware/RISCV/drivers/n200_func.h **** #define	ECLIC_GROUP_LEVEL1_PRIO3        1
  13:../../firmware/RISCV/drivers/n200_func.h **** #define	ECLIC_GROUP_LEVEL2_PRIO2        2
  14:../../firmware/RISCV/drivers/n200_func.h **** #define	ECLIC_GROUP_LEVEL3_PRIO1        3
  15:../../firmware/RISCV/drivers/n200_func.h **** #define	ECLIC_GROUP_LEVEL4_PRIO0        4
  16:../../firmware/RISCV/drivers/n200_func.h **** 
  17:../../firmware/RISCV/drivers/n200_func.h **** void pmp_open_all_space(void);
  18:../../firmware/RISCV/drivers/n200_func.h **** 
  19:../../firmware/RISCV/drivers/n200_func.h **** void switch_m2u_mode(void);
  20:../../firmware/RISCV/drivers/n200_func.h **** 
  21:../../firmware/RISCV/drivers/n200_func.h **** uint32_t get_mtime_freq(void);
  22:../../firmware/RISCV/drivers/n200_func.h **** 
  23:../../firmware/RISCV/drivers/n200_func.h **** uint32_t mtime_lo(void);
  24:../../firmware/RISCV/drivers/n200_func.h **** 
  25:../../firmware/RISCV/drivers/n200_func.h **** uint32_t mtime_hi(void);
  26:../../firmware/RISCV/drivers/n200_func.h **** 
  27:../../firmware/RISCV/drivers/n200_func.h **** uint64_t get_mtime_value(void);
  28:../../firmware/RISCV/drivers/n200_func.h **** 
  29:../../firmware/RISCV/drivers/n200_func.h **** uint64_t get_instret_value(void);
  30:../../firmware/RISCV/drivers/n200_func.h **** 
GAS LISTING /tmp/ccPYrfdj.s 			page 25


  31:../../firmware/RISCV/drivers/n200_func.h **** uint64_t get_cycle_value(void);
  32:../../firmware/RISCV/drivers/n200_func.h **** 
  33:../../firmware/RISCV/drivers/n200_func.h **** uint32_t get_cpu_freq(void);
  34:../../firmware/RISCV/drivers/n200_func.h **** 
  35:../../firmware/RISCV/drivers/n200_func.h **** uint32_t __attribute__((noinline)) measure_cpu_freq(size_t n);
  36:../../firmware/RISCV/drivers/n200_func.h **** 
  37:../../firmware/RISCV/drivers/n200_func.h **** /* ECLIC relevant functions */
  38:../../firmware/RISCV/drivers/n200_func.h **** void eclic_init ( uint32_t num_irq );
  39:../../firmware/RISCV/drivers/n200_func.h **** uint64_t get_timer_value(void);
  40:../../firmware/RISCV/drivers/n200_func.h **** void eclic_enable_interrupt (uint32_t source);
  41:../../firmware/RISCV/drivers/n200_func.h **** void eclic_disable_interrupt (uint32_t source);
  42:../../firmware/RISCV/drivers/n200_func.h **** 
  43:../../firmware/RISCV/drivers/n200_func.h **** void eclic_set_pending(uint32_t source);
  44:../../firmware/RISCV/drivers/n200_func.h **** void eclic_clear_pending(uint32_t source);
  45:../../firmware/RISCV/drivers/n200_func.h **** 
  46:../../firmware/RISCV/drivers/n200_func.h **** void eclic_set_intctrl (uint32_t source, uint8_t intctrl);
  47:../../firmware/RISCV/drivers/n200_func.h **** uint8_t eclic_get_intctrl  (uint32_t source);
  48:../../firmware/RISCV/drivers/n200_func.h **** 
  49:../../firmware/RISCV/drivers/n200_func.h **** void eclic_set_intattr (uint32_t source, uint8_t intattr);
  50:../../firmware/RISCV/drivers/n200_func.h **** uint8_t eclic_get_intattr  (uint32_t source);
  51:../../firmware/RISCV/drivers/n200_func.h **** 
  52:../../firmware/RISCV/drivers/n200_func.h **** void eclic_set_cliccfg (uint8_t cliccfg);
  53:../../firmware/RISCV/drivers/n200_func.h **** uint8_t eclic_get_cliccfg (void);
  54:../../firmware/RISCV/drivers/n200_func.h **** 
  55:../../firmware/RISCV/drivers/n200_func.h **** void eclic_set_mth (uint8_t mth);
  56:../../firmware/RISCV/drivers/n200_func.h **** uint8_t eclic_get_mth(void);
  57:../../firmware/RISCV/drivers/n200_func.h **** 
  58:../../firmware/RISCV/drivers/n200_func.h **** /* sets nlbits */
  59:../../firmware/RISCV/drivers/n200_func.h **** void eclic_set_nlbits(uint8_t nlbits);
  60:../../firmware/RISCV/drivers/n200_func.h **** 
  61:../../firmware/RISCV/drivers/n200_func.h **** 
  62:../../firmware/RISCV/drivers/n200_func.h **** /* get nlbits */
  63:../../firmware/RISCV/drivers/n200_func.h **** uint8_t eclic_get_nlbits(void);
  64:../../firmware/RISCV/drivers/n200_func.h **** 
  65:../../firmware/RISCV/drivers/n200_func.h **** void eclic_set_irq_lvl(uint32_t source, uint8_t lvl);
  66:../../firmware/RISCV/drivers/n200_func.h **** uint8_t eclic_get_irq_lvl(uint32_t source);
  67:../../firmware/RISCV/drivers/n200_func.h **** 
  68:../../firmware/RISCV/drivers/n200_func.h **** void eclic_set_irq_lvl_abs(uint32_t source, uint8_t lvl_abs);
  69:../../firmware/RISCV/drivers/n200_func.h **** uint8_t eclic_get_irq_lvl_abs(uint32_t source);
  70:../../firmware/RISCV/drivers/n200_func.h **** 
  71:../../firmware/RISCV/drivers/n200_func.h **** uint8_t eclic_set_irq_priority(uint32_t source, uint8_t priority);
  72:../../firmware/RISCV/drivers/n200_func.h **** uint8_t eclic_get_irq_priority(uint32_t source);
  73:../../firmware/RISCV/drivers/n200_func.h **** 
  74:../../firmware/RISCV/drivers/n200_func.h **** void eclic_mode_enable(void);
  75:../../firmware/RISCV/drivers/n200_func.h **** 
  76:../../firmware/RISCV/drivers/n200_func.h **** void eclic_set_vmode(uint32_t source);
  77:../../firmware/RISCV/drivers/n200_func.h **** void eclic_set_nonvmode(uint32_t source);
  78:../../firmware/RISCV/drivers/n200_func.h **** 
  79:../../firmware/RISCV/drivers/n200_func.h **** void eclic_set_level_trig(uint32_t source);
  80:../../firmware/RISCV/drivers/n200_func.h **** void eclic_set_posedge_trig(uint32_t source);
  81:../../firmware/RISCV/drivers/n200_func.h **** void eclic_set_negedge_trig(uint32_t source);
  82:../../firmware/RISCV/drivers/n200_func.h **** 
  83:../../firmware/RISCV/drivers/n200_func.h **** 
  84:../../firmware/RISCV/drivers/n200_func.h **** /** \brief  Wait For Interrupt
  85:../../firmware/RISCV/drivers/n200_func.h **** 
  86:../../firmware/RISCV/drivers/n200_func.h ****     Wait For Interrupt is a hint instruction that suspends execution
  87:../../firmware/RISCV/drivers/n200_func.h ****     until one of a number of events occurs.
GAS LISTING /tmp/ccPYrfdj.s 			page 26


  88:../../firmware/RISCV/drivers/n200_func.h ****  */
  89:../../firmware/RISCV/drivers/n200_func.h **** __attribute__( ( always_inline ) ) static inline void __WFI(void) {
  90:../../firmware/RISCV/drivers/n200_func.h ****     __asm volatile ("wfi");
 933              		.loc 2 90 5 discriminator 1
 934              	 #APP
 935              	# 90 "../../firmware/RISCV/drivers/n200_func.h" 1
  91              	}
 936              		wfi
 937              	# 0 "" 2
 938              	 #NO_APP
 939              	.LBE12:
 940              	.LBE11:
 273:main.c        **** 		//This program does nothing in the main loop currently. So it would be entirely possible to add s
 941              		.loc 1 273 2 discriminator 1
 942              		.loc 1 275 3 discriminator 1
 943              	.LBB14:
 944              	.LBB13:
  90:../../firmware/RISCV/drivers/n200_func.h **** }
 945              		.loc 2 90 5 discriminator 1
 946              	 #APP
 947              	# 90 "../../firmware/RISCV/drivers/n200_func.h" 1
 948              		wfi
 949              	# 0 "" 2
 950              	 #NO_APP
 951 00c8 E5BF     		j	.L33
 952              	.LBE13:
 953              	.LBE14:
 954              		.cfi_endproc
 955              	.LFE16:
 957              		.section	.text.DMA0_Channel0_IRQHandler,"ax",@progbits
 958              		.align	1
 959              		.globl	DMA0_Channel0_IRQHandler
 961              	DMA0_Channel0_IRQHandler:
 962              	.LFB17:
 276:main.c        **** 	}
 277:main.c        **** }
 278:main.c        **** 
 279:main.c        **** 
 280:main.c        **** //This is the main service interrupt. 
 281:main.c        **** //Currently just sends the raw buffer unmodified, 
 282:main.c        **** //it double buffers by using the halftime flag to 
 283:main.c        **** //avoid memory corruption.
 284:main.c        **** 
 285:main.c        **** 
 286:main.c        **** void DMA0_Channel0_IRQHandler(void)
 287:main.c        **** {
 963              		.loc 1 287 1
 964              		.cfi_startproc
 288:main.c        **** 	uint8_t* pSend_data;
 965              		.loc 1 288 2
 289:main.c        **** 	//If you want to do some transformation it's probably best to first copy the sample data.
 290:main.c        **** 	//Then perform transformation, and then send the transformed data array.
 291:main.c        **** 
 292:main.c        **** 	//Since this is basically all of the code that is running on the MCU there should be a decent amou
 293:main.c        **** 	//to do calculations, although floats should probably be discouraged since no FPU is present.
 294:main.c        ****     if(dma_interrupt_flag_get(DMA0, DMA_CH0, DMA_INT_FLAG_HTF)){ 
 966              		.loc 1 294 5
GAS LISTING /tmp/ccPYrfdj.s 			page 27


 287:main.c        **** 	uint8_t* pSend_data;
 967              		.loc 1 287 1 is_stmt 0
 968 0000 4111     		addi	sp,sp,-16
 969              	.LCFI18:
 970              		.cfi_def_cfa_offset 16
 971              		.loc 1 294 8
 972 0002 1146     		li	a2,4
 973 0004 8145     		li	a1,0
 974 0006 37050240 		li	a0,1073872896
 287:main.c        **** 	uint8_t* pSend_data;
 975              		.loc 1 287 1
 976 000a 06C6     		sw	ra,12(sp)
 977 000c 22C4     		sw	s0,8(sp)
 978              		.cfi_offset 1, -4
 979              		.cfi_offset 8, -8
 980              		.loc 1 294 8
 981 000e 97000000 		call	dma_interrupt_flag_get
 981      E7800000 
 982              	.LVL95:
 983              		.loc 1 294 7
 984 0016 09C5     		beq	a0,zero,.L36
 295:main.c        **** 		pSend_data = (uint8_t*)pSample_buffer;
 985              		.loc 1 295 3 is_stmt 1
 986              		.loc 1 295 14 is_stmt 0
 987 0018 B7070000 		lui	a5,%hi(pSample_buffer)
 988 001c 03A40700 		lw	s0,%lo(pSample_buffer)(a5)
 989              	.LVL96:
 990              	.L36:
 296:main.c        ****     }
 297:main.c        **** 	if(dma_interrupt_flag_get(DMA0, DMA_CH0, DMA_INT_FLAG_FTF)){ 
 991              		.loc 1 297 2 is_stmt 1
 992              		.loc 1 297 5 is_stmt 0
 993 0020 0946     		li	a2,2
 994 0022 8145     		li	a1,0
 995 0024 37050240 		li	a0,1073872896
 996 0028 97000000 		call	dma_interrupt_flag_get
 996      E7800000 
 997              	.LVL97:
 298:main.c        **** 		pSend_data = (uint8_t*)(pSample_buffer+(sample_buffer_size/2));     
 998              		.loc 1 298 41
 999 0030 B7070000 		lui	a5,%hi(sample_buffer_size)
 1000 0034 03A60700 		lw	a2,%lo(sample_buffer_size)(a5)
 297:main.c        **** 		pSend_data = (uint8_t*)(pSample_buffer+(sample_buffer_size/2));     
 1001              		.loc 1 297 4
 1002 0038 01C9     		beq	a0,zero,.L38
 1003              		.loc 1 298 3 is_stmt 1
 1004              		.loc 1 298 41 is_stmt 0
 1005 003a B7070000 		lui	a5,%hi(pSample_buffer)
 1006              		.loc 1 298 14
 1007 003e 03A40700 		lw	s0,%lo(pSample_buffer)(a5)
 1008              	.LVL98:
 1009              		.loc 1 298 41
 1010 0042 9377E6FF 		andi	a5,a2,-2
 1011              		.loc 1 298 14
 1012 0046 3E94     		add	s0,s0,a5
 1013              	.LVL99:
 1014              	.L38:
GAS LISTING /tmp/ccPYrfdj.s 			page 28


 299:main.c        ****     }
 300:main.c        **** 
 301:main.c        **** 	write_handle_raw(0x0074, pSend_data, sample_buffer_size);
 1015              		.loc 1 301 2 is_stmt 1
 1016 0048 A285     		mv	a1,s0
 1017 004a 1376F60F 		andi	a2,a2,0xff
 1018 004e 13054007 		li	a0,116
 1019 0052 97000000 		call	write_handle_raw
 1019      E7800000 
 1020              	.LVL100:
 302:main.c        **** 	dma_interrupt_flag_clear(DMA0, DMA_CH0, DMA_INT_FLAG_G);
 1021              		.loc 1 302 2
 303:main.c        **** }
 1022              		.loc 1 303 1 is_stmt 0
 1023 005a 2244     		lw	s0,8(sp)
 1024              		.cfi_restore 8
 1025              	.LVL101:
 1026 005c B240     		lw	ra,12(sp)
 1027              		.cfi_restore 1
 302:main.c        **** 	dma_interrupt_flag_clear(DMA0, DMA_CH0, DMA_INT_FLAG_G);
 1028              		.loc 1 302 2
 1029 005e 0546     		li	a2,1
 1030              		.loc 1 303 1
 302:main.c        **** 	dma_interrupt_flag_clear(DMA0, DMA_CH0, DMA_INT_FLAG_G);
 1031              		.loc 1 302 2
 1032 0060 8145     		li	a1,0
 1033 0062 37050240 		li	a0,1073872896
 1034              		.loc 1 303 1
 1035 0066 4101     		addi	sp,sp,16
 1036              	.LCFI19:
 1037              		.cfi_def_cfa_offset 0
 302:main.c        **** 	dma_interrupt_flag_clear(DMA0, DMA_CH0, DMA_INT_FLAG_G);
 1038              		.loc 1 302 2
 1039 0068 17030000 		tail	dma_interrupt_flag_clear
 1039      67000300 
 1040              	.LVL102:
 1041              		.cfi_endproc
 1042              	.LFE17:
 1044              		.section	.text.emg_RMS_filter,"ax",@progbits
 1045              		.align	1
 1046              		.globl	emg_RMS_filter
 1048              	emg_RMS_filter:
 1049              	.LFB18:
 304:main.c        **** 
 305:main.c        **** 
 306:main.c        **** void emg_RMS_filter(uint16_t* input, uint16_t input_size){
 1050              		.loc 1 306 58 is_stmt 1
 1051              		.cfi_startproc
 1052              	.LVL103:
 307:main.c        **** 	//ingest samples
 308:main.c        **** 
 309:main.c        **** 	//remove bias - running average?
 310:main.c        **** 
 311:main.c        **** 	//RMS
 312:main.c        **** }...
 1053              		.loc 1 312 1
 1054 0000 8280     		ret
GAS LISTING /tmp/ccPYrfdj.s 			page 29


 1055              		.cfi_endproc
 1056              	.LFE18:
 1058              		.comm	sample_buffer_size,4,4
 1059              		.comm	pSample_buffer,4,4
 1060              		.section	.rodata.read_handle.str1.4,"aMS",@progbits,1
 1061              		.align	2
 1062              	.LC0:
 1063 0000 25732C25 		.string	"%s,%.4x\r\n"
 1063      2E34780D 
 1063      0A00
 1064              		.section	.rodata.write_handle_raw.str1.4,"aMS",@progbits,1
 1065              		.align	2
 1066              	.LC2:
 1067 0000 5348572C 		.string	"SHW,"
 1067      00
 1068 0005 000000   		.zero	3
 1069              	.LC3:
 1070 0008 2573252E 		.string	"%s%.4x,%s\r\n"
 1070      34782C25 
 1070      730D0A00 
 1071              	.LC1:
 1072 0014 30313233 		.string	"0123456789ABCDEF"
 1072      34353637 
 1072      38394142 
 1072      43444546 
 1072      00
 1073              		.text
 1074              	.Letext0:
 1075              		.file 3 "/home/remahl/toolchain-gd32v/toolchain-gd32v-linux/compiler/riscv64-unknown-elf/include/m
 1076              		.file 4 "/home/remahl/toolchain-gd32v/toolchain-gd32v-linux/compiler/riscv64-unknown-elf/include/s
 1077              		.file 5 "../../firmware/GD32VF103_standard_peripheral/gd32vf103.h"
 1078              		.file 6 "../../firmware/GD32VF103_standard_peripheral/Include/gd32vf103_dma.h"
 1079              		.file 7 "../../firmware/GD32VF103_standard_peripheral/Include/gd32vf103_rcu.h"
 1080              		.file 8 "../../firmware/GD32VF103_standard_peripheral/Include/gd32vf103_timer.h"
 1081              		.file 9 "/home/remahl/toolchain-gd32v/toolchain-gd32v-linux/compiler/lib/gcc/riscv64-unknown-elf/8
 1082              		.file 10 "/home/remahl/toolchain-gd32v/toolchain-gd32v-linux/compiler/riscv64-unknown-elf/include/
 1083              		.file 11 "/home/remahl/toolchain-gd32v/toolchain-gd32v-linux/compiler/riscv64-unknown-elf/include/
 1084              		.file 12 "/home/remahl/toolchain-gd32v/toolchain-gd32v-linux/compiler/riscv64-unknown-elf/include/
 1085              		.file 13 "../../firmware/GD32VF103_standard_peripheral/system_gd32vf103.h"
 1086              		.file 14 "liobt.h"
 1087              		.file 15 "systick.h"
 1088              		.file 16 "/home/remahl/toolchain-gd32v/toolchain-gd32v-linux/compiler/riscv64-unknown-elf/include/
 1089              		.file 17 "../../firmware/GD32VF103_standard_peripheral/Include/gd32vf103_eclic.h"
 1090              		.file 18 "../../firmware/GD32VF103_standard_peripheral/Include/gd32vf103_gpio.h"
 1091              		.file 19 "../../firmware/GD32VF103_standard_peripheral/Include/gd32vf103_adc.h"
 1092              		.file 20 "/home/remahl/toolchain-gd32v/toolchain-gd32v-linux/compiler/riscv64-unknown-elf/include/
 1093              		.file 21 "<built-in>"
GAS LISTING /tmp/ccPYrfdj.s 			page 30

