GAS LISTING /tmp/ccDM7e5r.s 			page 1


   1              		.file	"systick.c"
   2              		.option nopic
   3              		.attribute arch, "rv32i2p0_m2p0_a2p0_c2p0"
   4              		.attribute unaligned_access, 0
   5              		.attribute stack_align, 16
   6              		.text
   7              	.Ltext0:
   8              		.cfi_sections	.debug_frame
   9              		.globl	__floatundidf
  10              		.globl	__floatunsidf
  11              		.globl	__divdf3
  12              		.globl	__muldf3
  13              		.globl	__ltdf2
  14              		.section	.text.delay_1ms,"ax",@progbits
  15              		.align	1
  16              		.globl	delay_1ms
  18              	delay_1ms:
  19              	.LFB2:
  20              		.file 1 "systick.c"
   1:systick.c     **** /*!
   2:systick.c     ****     \file  systick.c
   3:systick.c     ****     \brief the systick configuration file
   4:systick.c     **** 
   5:systick.c     ****     \version 2019-6-5, V1.0.0, firmware for GD32VF103
   6:systick.c     **** */
   7:systick.c     **** 
   8:systick.c     **** /*
   9:systick.c     ****     Copyright (c) 2019, GigaDevice Semiconductor Inc.
  10:systick.c     **** 
  11:systick.c     ****     Redistribution and use in source and binary forms, with or without modification, 
  12:systick.c     **** are permitted provided that the following conditions are met:
  13:systick.c     **** 
  14:systick.c     ****     1. Redistributions of source code must retain the above copyright notice, this 
  15:systick.c     ****        list of conditions and the following disclaimer.
  16:systick.c     ****     2. Redistributions in binary form must reproduce the above copyright notice, 
  17:systick.c     ****        this list of conditions and the following disclaimer in the documentation 
  18:systick.c     ****        and/or other materials provided with the distribution.
  19:systick.c     ****     3. Neither the name of the copyright holder nor the names of its contributors 
  20:systick.c     ****        may be used to endorse or promote products derived from this software without 
  21:systick.c     ****        specific prior written permission.
  22:systick.c     **** 
  23:systick.c     ****     THIS SOFTWARE IS PROVIDED BY THE COPYRIGHT HOLDERS AND CONTRIBUTORS "AS IS" 
  24:systick.c     **** AND ANY EXPRESS OR IMPLIED WARRANTIES, INCLUDING, BUT NOT LIMITED TO, THE IMPLIED 
  25:systick.c     **** WARRANTIES OF MERCHANTABILITY AND FITNESS FOR A PARTICULAR PURPOSE ARE DISCLAIMED. 
  26:systick.c     **** IN NO EVENT SHALL THE COPYRIGHT HOLDER OR CONTRIBUTORS BE LIABLE FOR ANY DIRECT, 
  27:systick.c     **** INDIRECT, INCIDENTAL, SPECIAL, EXEMPLARY, OR CONSEQUENTIAL DAMAGES (INCLUDING, BUT 
  28:systick.c     **** NOT LIMITED TO, PROCUREMENT OF SUBSTITUTE GOODS OR SERVICES; LOSS OF USE, DATA, OR 
  29:systick.c     **** PROFITS; OR BUSINESS INTERRUPTION) HOWEVER CAUSED AND ON ANY THEORY OF LIABILITY, 
  30:systick.c     **** WHETHER IN CONTRACT, STRICT LIABILITY, OR TORT (INCLUDING NEGLIGENCE OR OTHERWISE) 
  31:systick.c     **** ARISING IN ANY WAY OUT OF THE USE OF THIS SOFTWARE, EVEN IF ADVISED OF THE POSSIBILITY 
  32:systick.c     **** OF SUCH DAMAGE.
  33:systick.c     **** */
  34:systick.c     **** 
  35:systick.c     **** #include "gd32vf103.h"
  36:systick.c     **** #include "systick.h"
  37:systick.c     **** 
  38:systick.c     **** /*!
GAS LISTING /tmp/ccDM7e5r.s 			page 2


  39:systick.c     ****     \brief      delay a time in milliseconds
  40:systick.c     ****     \param[in]  count: count in milliseconds
  41:systick.c     ****     \param[out] none
  42:systick.c     ****     \retval     none
  43:systick.c     **** */
  44:systick.c     **** void delay_1ms(uint32_t count)
  45:systick.c     **** {
  21              		.loc 1 45 1
  22              		.cfi_startproc
  23              	.LVL0:
  46:systick.c     **** 	uint64_t start_mtime, delta_mtime;
  24              		.loc 1 46 2
  47:systick.c     **** 
  48:systick.c     **** 	// Don't start measuruing until we see an mtime tick
  49:systick.c     **** 	uint64_t tmp = get_timer_value();
  25              		.loc 1 49 2
  45:systick.c     **** 	uint64_t start_mtime, delta_mtime;
  26              		.loc 1 45 1 is_stmt 0
  27 0000 7971     		addi	sp,sp,-48
  28              	.LCFI0:
  29              		.cfi_def_cfa_offset 48
  30 0002 4AD0     		sw	s2,32(sp)
  31 0004 4ECE     		sw	s3,28(sp)
  32 0006 5EC6     		sw	s7,12(sp)
  33 0008 06D6     		sw	ra,44(sp)
  34 000a 22D4     		sw	s0,40(sp)
  35 000c 26D2     		sw	s1,36(sp)
  36 000e 52CC     		sw	s4,24(sp)
  37 0010 56CA     		sw	s5,20(sp)
  38 0012 5AC8     		sw	s6,16(sp)
  39 0014 62C4     		sw	s8,8(sp)
  40 0016 66C2     		sw	s9,4(sp)
  41              		.cfi_offset 18, -16
  42              		.cfi_offset 19, -20
  43              		.cfi_offset 23, -36
  44              		.cfi_offset 1, -4
  45              		.cfi_offset 8, -8
  46              		.cfi_offset 9, -12
  47              		.cfi_offset 20, -24
  48              		.cfi_offset 21, -28
  49              		.cfi_offset 22, -32
  50              		.cfi_offset 24, -40
  51              		.cfi_offset 25, -44
  45:systick.c     **** 	uint64_t start_mtime, delta_mtime;
  52              		.loc 1 45 1
  53 0018 AA8B     		mv	s7,a0
  54              		.loc 1 49 17
  55 001a 97000000 		call	get_timer_value
  55      E7800000 
  56              	.LVL1:
  57 0022 2A89     		mv	s2,a0
  58 0024 AE89     		mv	s3,a1
  59              	.LVL2:
  60              	.L2:
  50:systick.c     **** 	do {
  61              		.loc 1 50 2 is_stmt 1 discriminator 1
  51:systick.c     **** 	start_mtime = get_timer_value();
GAS LISTING /tmp/ccDM7e5r.s 			page 3


  62              		.loc 1 51 2 discriminator 1
  63              		.loc 1 51 16 is_stmt 0 discriminator 1
  64 0026 97000000 		call	get_timer_value
  64      E7800000 
  65              	.LVL3:
  66 002e 2A84     		mv	s0,a0
  67 0030 AE84     		mv	s1,a1
  68              	.LVL4:
  52:systick.c     **** 	} while (start_mtime == tmp);
  69              		.loc 1 52 2 discriminator 1
  70 0032 6314A900 		bne	s2,a0,.L3
  71 0036 E388B9FE 		beq	s3,a1,.L2
  72              	.L3:
  73 003a B7070000 		lui	a5,%hi(.LC0)
  53:systick.c     **** 
  54:systick.c     **** 	do {
  55:systick.c     **** 	delta_mtime = get_timer_value() - start_mtime;
  56:systick.c     **** 	}while(delta_mtime <(SystemCoreClock/4000.0 *count ));
  74              		.loc 1 56 38 discriminator 1
  75 003e 03A90700 		lw	s2,%lo(.LC0)(a5)
  76              	.LVL5:
  77 0042 83A94700 		lw	s3,%lo(.LC0+4)(a5)
  78 0046 370B0000 		lui	s6,%hi(SystemCoreClock)
  79              	.L4:
  54:systick.c     **** 	delta_mtime = get_timer_value() - start_mtime;
  80              		.loc 1 54 2 is_stmt 1 discriminator 1
  55:systick.c     **** 	}while(delta_mtime <(SystemCoreClock/4000.0 *count ));
  81              		.loc 1 55 2 discriminator 1
  55:systick.c     **** 	}while(delta_mtime <(SystemCoreClock/4000.0 *count ));
  82              		.loc 1 55 16 is_stmt 0 discriminator 1
  83 004a 97000000 		call	get_timer_value
  83      E7800000 
  84              	.LVL6:
  85 0052 AA87     		mv	a5,a0
  86              	.LVL7:
  55:systick.c     **** 	}while(delta_mtime <(SystemCoreClock/4000.0 *count ));
  87              		.loc 1 55 14 discriminator 1
  88 0054 018D     		sub	a0,a0,s0
  89              	.LVL8:
  90 0056 B3B7A700 		sgtu	a5,a0,a5
  91              	.LVL9:
  92 005a 858D     		sub	a1,a1,s1
  93              		.loc 1 56 21 discriminator 1
  94 005c 9D8D     		sub	a1,a1,a5
  95 005e 97000000 		call	__floatundidf
  95      E7800000 
  96              	.LVL10:
  97 0066 2A8A     		mv	s4,a0
  98              		.loc 1 56 38 discriminator 1
  99 0068 03250B00 		lw	a0,%lo(SystemCoreClock)(s6)
 100              		.loc 1 56 21 discriminator 1
 101 006c AE8A     		mv	s5,a1
 102              		.loc 1 56 38 discriminator 1
 103 006e 97000000 		call	__floatunsidf
 103      E7800000 
 104              	.LVL11:
 105 0076 4A86     		mv	a2,s2
GAS LISTING /tmp/ccDM7e5r.s 			page 4


 106 0078 CE86     		mv	a3,s3
 107 007a 97000000 		call	__divdf3
 107      E7800000 
 108              	.LVL12:
 109 0082 2A8C     		mv	s8,a0
 110              		.loc 1 56 46 discriminator 1
 111 0084 5E85     		mv	a0,s7
 112              		.loc 1 56 38 discriminator 1
 113 0086 AE8C     		mv	s9,a1
 114              		.loc 1 56 46 discriminator 1
 115 0088 97000000 		call	__floatunsidf
 115      E7800000 
 116              	.LVL13:
 117 0090 2A86     		mv	a2,a0
 118 0092 AE86     		mv	a3,a1
 119 0094 6285     		mv	a0,s8
 120 0096 E685     		mv	a1,s9
 121 0098 97000000 		call	__muldf3
 121      E7800000 
 122              	.LVL14:
 123              		.loc 1 56 2 discriminator 1
 124 00a0 2A86     		mv	a2,a0
 125 00a2 AE86     		mv	a3,a1
 126 00a4 5285     		mv	a0,s4
 127 00a6 D685     		mv	a1,s5
 128 00a8 97000000 		call	__ltdf2
 128      E7800000 
 129              	.LVL15:
 130 00b0 E34D05F8 		blt	a0,zero,.L4
  57:systick.c     **** }
 131              		.loc 1 57 1
 132 00b4 B250     		lw	ra,44(sp)
 133              		.cfi_restore 1
 134 00b6 2254     		lw	s0,40(sp)
 135              		.cfi_restore 8
 136              	.LVL16:
 137 00b8 9254     		lw	s1,36(sp)
 138              		.cfi_restore 9
 139 00ba 0259     		lw	s2,32(sp)
 140              		.cfi_restore 18
 141 00bc F249     		lw	s3,28(sp)
 142              		.cfi_restore 19
 143 00be 624A     		lw	s4,24(sp)
 144              		.cfi_restore 20
 145 00c0 D24A     		lw	s5,20(sp)
 146              		.cfi_restore 21
 147 00c2 424B     		lw	s6,16(sp)
 148              		.cfi_restore 22
 149 00c4 B24B     		lw	s7,12(sp)
 150              		.cfi_restore 23
 151              	.LVL17:
 152 00c6 224C     		lw	s8,8(sp)
 153              		.cfi_restore 24
 154 00c8 924C     		lw	s9,4(sp)
 155              		.cfi_restore 25
 156 00ca 4561     		addi	sp,sp,48
 157              	.LCFI1:
GAS LISTING /tmp/ccDM7e5r.s 			page 5


 158              		.cfi_def_cfa_offset 0
 159 00cc 8280     		jr	ra
 160              		.cfi_endproc
 161              	.LFE2:
 163              		.section	.text.delay_1us,"ax",@progbits
 164              		.align	1
 165              		.globl	delay_1us
 167              	delay_1us:
 168              	.LFB3:
  58:systick.c     **** 
  59:systick.c     **** void delay_1us(uint32_t count)
  60:systick.c     **** {
 169              		.loc 1 60 1 is_stmt 1
 170              		.cfi_startproc
 171              	.LVL18:
  61:systick.c     **** 	uint64_t start_mtime, delta_mtime;
 172              		.loc 1 61 2
  62:systick.c     **** 
  63:systick.c     **** 	// Don't start measuruing until we see an mtime tick
  64:systick.c     **** 	uint64_t tmp = get_timer_value();
 173              		.loc 1 64 2
  60:systick.c     **** 	uint64_t start_mtime, delta_mtime;
 174              		.loc 1 60 1 is_stmt 0
 175 0000 7971     		addi	sp,sp,-48
 176              	.LCFI2:
 177              		.cfi_def_cfa_offset 48
 178 0002 4AD0     		sw	s2,32(sp)
 179 0004 4ECE     		sw	s3,28(sp)
 180 0006 5EC6     		sw	s7,12(sp)
 181 0008 06D6     		sw	ra,44(sp)
 182 000a 22D4     		sw	s0,40(sp)
 183 000c 26D2     		sw	s1,36(sp)
 184 000e 52CC     		sw	s4,24(sp)
 185 0010 56CA     		sw	s5,20(sp)
 186 0012 5AC8     		sw	s6,16(sp)
 187 0014 62C4     		sw	s8,8(sp)
 188 0016 66C2     		sw	s9,4(sp)
 189              		.cfi_offset 18, -16
 190              		.cfi_offset 19, -20
 191              		.cfi_offset 23, -36
 192              		.cfi_offset 1, -4
 193              		.cfi_offset 8, -8
 194              		.cfi_offset 9, -12
 195              		.cfi_offset 20, -24
 196              		.cfi_offset 21, -28
 197              		.cfi_offset 22, -32
 198              		.cfi_offset 24, -40
 199              		.cfi_offset 25, -44
  60:systick.c     **** 	uint64_t start_mtime, delta_mtime;
 200              		.loc 1 60 1
 201 0018 AA8B     		mv	s7,a0
 202              		.loc 1 64 17
 203 001a 97000000 		call	get_timer_value
 203      E7800000 
 204              	.LVL19:
 205 0022 2A89     		mv	s2,a0
 206 0024 AE89     		mv	s3,a1
GAS LISTING /tmp/ccDM7e5r.s 			page 6


 207              	.LVL20:
 208              	.L9:
  65:systick.c     **** 	do {
 209              		.loc 1 65 2 is_stmt 1 discriminator 1
  66:systick.c     **** 	start_mtime = get_timer_value();
 210              		.loc 1 66 2 discriminator 1
 211              		.loc 1 66 16 is_stmt 0 discriminator 1
 212 0026 97000000 		call	get_timer_value
 212      E7800000 
 213              	.LVL21:
 214 002e 2A84     		mv	s0,a0
 215 0030 AE84     		mv	s1,a1
 216              	.LVL22:
  67:systick.c     **** 	} while (start_mtime == tmp);
 217              		.loc 1 67 2 discriminator 1
 218 0032 6314A900 		bne	s2,a0,.L10
 219 0036 E388B9FE 		beq	s3,a1,.L9
 220              	.L10:
 221 003a B7070000 		lui	a5,%hi(.LC1)
  68:systick.c     **** 
  69:systick.c     **** 	do {
  70:systick.c     **** 	delta_mtime = get_timer_value() - start_mtime;
  71:systick.c     **** 	}while(delta_mtime <(SystemCoreClock/4000000.0 *count ));
 222              		.loc 1 71 38 discriminator 1
 223 003e 03A90700 		lw	s2,%lo(.LC1)(a5)
 224              	.LVL23:
 225 0042 83A94700 		lw	s3,%lo(.LC1+4)(a5)
 226 0046 370B0000 		lui	s6,%hi(SystemCoreClock)
 227              	.L11:
  69:systick.c     **** 	delta_mtime = get_timer_value() - start_mtime;
 228              		.loc 1 69 2 is_stmt 1 discriminator 1
  70:systick.c     **** 	}while(delta_mtime <(SystemCoreClock/4000000.0 *count ));
 229              		.loc 1 70 2 discriminator 1
  70:systick.c     **** 	}while(delta_mtime <(SystemCoreClock/4000000.0 *count ));
 230              		.loc 1 70 16 is_stmt 0 discriminator 1
 231 004a 97000000 		call	get_timer_value
 231      E7800000 
 232              	.LVL24:
 233 0052 AA87     		mv	a5,a0
 234              	.LVL25:
  70:systick.c     **** 	}while(delta_mtime <(SystemCoreClock/4000000.0 *count ));
 235              		.loc 1 70 14 discriminator 1
 236 0054 018D     		sub	a0,a0,s0
 237              	.LVL26:
 238 0056 B3B7A700 		sgtu	a5,a0,a5
 239              	.LVL27:
 240 005a 858D     		sub	a1,a1,s1
 241              		.loc 1 71 21 discriminator 1
 242 005c 9D8D     		sub	a1,a1,a5
 243 005e 97000000 		call	__floatundidf
 243      E7800000 
 244              	.LVL28:
 245 0066 2A8A     		mv	s4,a0
 246              		.loc 1 71 38 discriminator 1
 247 0068 03250B00 		lw	a0,%lo(SystemCoreClock)(s6)
 248              		.loc 1 71 21 discriminator 1
 249 006c AE8A     		mv	s5,a1
GAS LISTING /tmp/ccDM7e5r.s 			page 7


 250              		.loc 1 71 38 discriminator 1
 251 006e 97000000 		call	__floatunsidf
 251      E7800000 
 252              	.LVL29:
 253 0076 4A86     		mv	a2,s2
 254 0078 CE86     		mv	a3,s3
 255 007a 97000000 		call	__divdf3
 255      E7800000 
 256              	.LVL30:
 257 0082 2A8C     		mv	s8,a0
 258              		.loc 1 71 49 discriminator 1
 259 0084 5E85     		mv	a0,s7
 260              		.loc 1 71 38 discriminator 1
 261 0086 AE8C     		mv	s9,a1
 262              		.loc 1 71 49 discriminator 1
 263 0088 97000000 		call	__floatunsidf
 263      E7800000 
 264              	.LVL31:
 265 0090 2A86     		mv	a2,a0
 266 0092 AE86     		mv	a3,a1
 267 0094 6285     		mv	a0,s8
 268 0096 E685     		mv	a1,s9
 269 0098 97000000 		call	__muldf3
 269      E7800000 
 270              	.LVL32:
 271              		.loc 1 71 2 discriminator 1
 272 00a0 2A86     		mv	a2,a0
 273 00a2 AE86     		mv	a3,a1
 274 00a4 5285     		mv	a0,s4
 275 00a6 D685     		mv	a1,s5
 276 00a8 97000000 		call	__ltdf2
 276      E7800000 
 277              	.LVL33:
 278 00b0 E34D05F8 		blt	a0,zero,.L11
  72:systick.c     **** }...
 279              		.loc 1 72 1
 280 00b4 B250     		lw	ra,44(sp)
 281              		.cfi_restore 1
 282 00b6 2254     		lw	s0,40(sp)
 283              		.cfi_restore 8
 284              	.LVL34:
 285 00b8 9254     		lw	s1,36(sp)
 286              		.cfi_restore 9
 287 00ba 0259     		lw	s2,32(sp)
 288              		.cfi_restore 18
 289 00bc F249     		lw	s3,28(sp)
 290              		.cfi_restore 19
 291 00be 624A     		lw	s4,24(sp)
 292              		.cfi_restore 20
 293 00c0 D24A     		lw	s5,20(sp)
 294              		.cfi_restore 21
 295 00c2 424B     		lw	s6,16(sp)
 296              		.cfi_restore 22
 297 00c4 B24B     		lw	s7,12(sp)
 298              		.cfi_restore 23
 299              	.LVL35:
 300 00c6 224C     		lw	s8,8(sp)
GAS LISTING /tmp/ccDM7e5r.s 			page 8


 301              		.cfi_restore 24
 302 00c8 924C     		lw	s9,4(sp)
 303              		.cfi_restore 25
 304 00ca 4561     		addi	sp,sp,48
 305              	.LCFI3:
 306              		.cfi_def_cfa_offset 0
 307 00cc 8280     		jr	ra
 308              		.cfi_endproc
 309              	.LFE3:
 311              		.section	.rodata.delay_1ms.cst8,"aM",@progbits,8
 312              		.align	3
 313              	.LC0:
 314 0000 00000000 		.word	0
 315 0004 0040AF40 		.word	1085227008
 316              		.section	.rodata.delay_1us.cst8,"aM",@progbits,8
 317              		.align	3
 318              	.LC1:
 319 0000 00000000 		.word	0
 320 0004 80844E41 		.word	1095664768
 321              		.text
 322              	.Letext0:
 323              		.file 2 "/home/remahl/toolchain-gd32v/toolchain-gd32v-linux/compiler/riscv64-unknown-elf/include/m
 324              		.file 3 "/home/remahl/toolchain-gd32v/toolchain-gd32v-linux/compiler/riscv64-unknown-elf/include/s
 325              		.file 4 "../../firmware/GD32VF103_standard_peripheral/system_gd32vf103.h"
 326              		.file 5 "../../firmware/RISCV/drivers/n200_func.h"
GAS LISTING /tmp/ccDM7e5r.s 			page 9

